 packager

 Timestamp is 5c213589 (Mon Dec 24 14:37:45 2018)

 Preferred load address is 0000000180000000

 Start         Length     Name                   Class
 0001:00000000 00000020H .text$di                CODE
 0001:00000020 0002ae40H .text$mn                CODE
 0001:0002ae60 00000020H .text$mn$00             CODE
 0001:0002ae80 00002580H .text$x                 CODE
 0001:0002d400 00000120H .text$yd                CODE
 0002:00000000 00000628H .idata$5                DATA
 0002:00000628 00000010H .00cfg                  DATA
 0002:00000638 00000008H .CRT$XCA                DATA
 0002:00000640 00000008H .CRT$XCL                DATA
 0002:00000648 00000008H .CRT$XCU                DATA
 0002:00000650 00000008H .CRT$XCZ                DATA
 0002:00000658 00000008H .CRT$XIA                DATA
 0002:00000660 00000008H .CRT$XIC                DATA
 0002:00000668 00000008H .CRT$XIZ                DATA
 0002:00000670 00000008H .CRT$XLA                DATA
 0002:00000678 00000008H .CRT$XLZ                DATA
 0002:00000680 00000008H .CRT$XPA                DATA
 0002:00000688 00000008H .CRT$XPZ                DATA
 0002:00000690 00000008H .CRT$XTA                DATA
 0002:00000698 00000008H .CRT$XTZ                DATA
 0002:000006a0 00000000H .gfids$y                DATA
 0002:000006a0 00003e30H .rdata                  DATA
 0002:000044d0 00000030H .rdata$T                DATA
 0002:00004500 00001c84H .rdata$r                DATA
 0002:00006184 00000324H .rdata$zzzdbg           DATA
 0002:000064a8 00000008H .rtc$IAA                DATA
 0002:000064b0 00000008H .rtc$IZZ                DATA
 0002:000064b8 00000008H .rtc$TAA                DATA
 0002:000064c0 00000008H .rtc$TZZ                DATA
 0002:000064c8 00000004H .tls                    DATA
 0002:000064cc 00000004H .tls$                   DATA
 0002:000064d0 00000010H .tls$ZZZ                DATA
 0002:000064e0 000075e8H .xdata                  DATA
 0002:0000dac8 00000318H .xdata$x                DATA
 0002:0000dde0 0000024cH .edata                  DATA
 0002:0000e02c 000000f0H .idata$2                DATA
 0002:0000e11c 00000014H .idata$3                DATA
 0002:0000e130 00000628H .idata$4                DATA
 0002:0000e758 00001aecH .idata$6                DATA
 0003:00000000 00000130H .data                   DATA
 0003:00000130 00000bc0H .data$r                 DATA
 0003:00000cf0 00000718H .bss                    DATA
 0004:00000000 00002214H .pdata                  DATA

  Address         Publics by Value              Rva+Base               Lib:Object

 0000:00000000       __guard_fids_count         0000000000000000     <absolute>
 0000:00000000       __guard_longjmp_count      0000000000000000     <absolute>
 0000:00000000       __guard_longjmp_table      0000000000000000     <absolute>
 0000:00000000       __hybrid_code_map          0000000000000000     <absolute>
 0000:00000000       __guard_iat_count          0000000000000000     <absolute>
 0000:00000000       __guard_iat_table          0000000000000000     <absolute>
 0000:00000000       __volatile_metadata        0000000000000000     <absolute>
 0000:00000000       __hybrid_code_map_count    0000000000000000     <absolute>
 0000:00000000       __enclave_config           0000000000000000     <absolute>
 0000:00000000       ___safe_se_handler_count   0000000000000000     <absolute>
 0000:00000000       ___safe_se_handler_table   0000000000000000     <absolute>
 0000:00000000       __dynamic_value_reloc_table 0000000000000000     <absolute>
 0000:00000000       __guard_fids_table         0000000000000000     <absolute>
 0000:00000000       __hybrid_auxiliary_iat     0000000000000000     <absolute>
 0000:00000100       __guard_flags              0000000000000100     <absolute>
 0000:00000000       __ImageBase                0000000180000000     <linker-defined>
 0001:00000020       ??$_Buynode@AEBUpiecewise_construct_t@std@@V?$tuple@AEBV?$basic_string@_WU?$char_traits@_W@std@@V?$allocator@_W@2@@std@@@2@V?$tuple@$$V@2@@?$_Tree_comp_alloc@V?$_Tmap_traits@V?$basic_string@_WU?$char_traits@_W@std@@V?$allocator@_W@2@@std@@PEAU?$pair@V?$basic_string@_WU?$char_traits@_W@std@@V?$allocator@_W@2@@std@@PEAVIniSectionData@@@@U?$less@V?$basic_string@_WU?$char_traits@_W@std@@V?$allocator@_W@2@@std@@@2@V?$allocator@U?$pair@$$CBV?$basic_string@_WU?$char_traits@_W@std@@V?$allocator@_W@2@@std@@PEAU?$pair@V?$basic_string@_WU?$char_traits@_W@std@@V?$allocator@_W@2@@std@@PEAVIniSectionData@@@@@std@@@2@$0A@@std@@@std@@QEAAPEAU?$_Tree_node@U?$pair@$$CBV?$basic_string@_WU?$char_traits@_W@std@@V?$allocator@_W@2@@std@@PEAU?$pair@V?$basic_string@_WU?$char_traits@_W@std@@V?$allocator@_W@2@@std@@PEAVIniSectionData@@@@@std@@PEAX@1@AEBUpiecewise_construct_t@1@$$QEAV?$tuple@AEBV?$basic_string@_WU?$char_traits@_W@std@@V?$allocator@_W@2@@std@@@1@$$QEAV?$tuple@$$V@1@@Z 0000000180001020 f i IniFile.obj
 0001:00000020       ??$_Buynode@AEBUpiecewise_construct_t@std@@V?$tuple@AEBV?$basic_string@_WU?$char_traits@_W@std@@V?$allocator@_W@2@@std@@@2@V?$tuple@$$V@2@@?$_Tree_comp_alloc@V?$_Tmap_traits@V?$basic_string@_WU?$char_traits@_W@std@@V?$allocator@_W@2@@std@@PEAU?$pair@V?$basic_string@_WU?$char_traits@_W@std@@V?$allocator@_W@2@@std@@V12@@@U?$less@V?$basic_string@_WU?$char_traits@_W@std@@V?$allocator@_W@2@@std@@@2@V?$allocator@U?$pair@$$CBV?$basic_string@_WU?$char_traits@_W@std@@V?$allocator@_W@2@@std@@PEAU?$pair@V?$basic_string@_WU?$char_traits@_W@std@@V?$allocator@_W@2@@std@@V12@@@@std@@@2@$0A@@std@@@std@@QEAAPEAU?$_Tree_node@U?$pair@$$CBV?$basic_string@_WU?$char_traits@_W@std@@V?$allocator@_W@2@@std@@PEAU?$pair@V?$basic_string@_WU?$char_traits@_W@std@@V?$allocator@_W@2@@std@@V12@@@@std@@PEAX@1@AEBUpiecewise_construct_t@1@$$QEAV?$tuple@AEBV?$basic_string@_WU?$char_traits@_W@std@@V?$allocator@_W@2@@std@@@1@$$QEAV?$tuple@$$V@1@@Z 0000000180001020 f i Exports.obj
 0001:00000080       ??$_Buynode@U?$pair@V?$basic_string@_WU?$char_traits@_W@std@@V?$allocator@_W@2@@std@@PEAU?$pair@V?$basic_string@_WU?$char_traits@_W@std@@V?$allocator@_W@2@@std@@PEAVIniSectionData@@@@@std@@@?$_Tree_comp_alloc@V?$_Tmap_traits@V?$basic_string@_WU?$char_traits@_W@std@@V?$allocator@_W@2@@std@@PEAU?$pair@V?$basic_string@_WU?$char_traits@_W@std@@V?$allocator@_W@2@@std@@PEAVIniSectionData@@@@U?$less@V?$basic_string@_WU?$char_traits@_W@std@@V?$allocator@_W@2@@std@@@2@V?$allocator@U?$pair@$$CBV?$basic_string@_WU?$char_traits@_W@std@@V?$allocator@_W@2@@std@@PEAU?$pair@V?$basic_string@_WU?$char_traits@_W@std@@V?$allocator@_W@2@@std@@PEAVIniSectionData@@@@@std@@@2@$0A@@std@@@std@@QEAAPEAU?$_Tree_node@U?$pair@$$CBV?$basic_string@_WU?$char_traits@_W@std@@V?$allocator@_W@2@@std@@PEAU?$pair@V?$basic_string@_WU?$char_traits@_W@std@@V?$allocator@_W@2@@std@@PEAVIniSectionData@@@@@std@@PEAX@1@$$QEAU?$pair@V?$basic_string@_WU?$char_traits@_W@std@@V?$allocator@_W@2@@std@@PEAU?$pair@V?$basic_string@_WU?$char_traits@_W@std@@V?$allocator@_W@2@@std@@PEAVIniSectionData@@@@@1@@Z 0000000180001080 f i IniFile.obj
 0001:00000080       ??$_Buynode@U?$pair@V?$basic_string@_WU?$char_traits@_W@std@@V?$allocator@_W@2@@std@@PEAU?$pair@V?$basic_string@_WU?$char_traits@_W@std@@V?$allocator@_W@2@@std@@V12@@@@std@@@?$_Tree_comp_alloc@V?$_Tmap_traits@V?$basic_string@_WU?$char_traits@_W@std@@V?$allocator@_W@2@@std@@PEAU?$pair@V?$basic_string@_WU?$char_traits@_W@std@@V?$allocator@_W@2@@std@@V12@@@U?$less@V?$basic_string@_WU?$char_traits@_W@std@@V?$allocator@_W@2@@std@@@2@V?$allocator@U?$pair@$$CBV?$basic_string@_WU?$char_traits@_W@std@@V?$allocator@_W@2@@std@@PEAU?$pair@V?$basic_string@_WU?$char_traits@_W@std@@V?$allocator@_W@2@@std@@V12@@@@std@@@2@$0A@@std@@@std@@QEAAPEAU?$_Tree_node@U?$pair@$$CBV?$basic_string@_WU?$char_traits@_W@std@@V?$allocator@_W@2@@std@@PEAU?$pair@V?$basic_string@_WU?$char_traits@_W@std@@V?$allocator@_W@2@@std@@V12@@@@std@@PEAX@1@$$QEAU?$pair@V?$basic_string@_WU?$char_traits@_W@std@@V?$allocator@_W@2@@std@@PEAU?$pair@V?$basic_string@_WU?$char_traits@_W@std@@V?$allocator@_W@2@@std@@V12@@@@1@@Z 0000000180001080 f i Exports.obj
 0001:000000f0       ??$_Emplace_reallocate@AEBQEAVLibrary@@@?$vector@PEAVLibrary@@V?$allocator@PEAVLibrary@@@std@@@std@@QEAAPEAPEAVLibrary@@QEAPEAV2@AEBQEAV2@@Z 00000001800010f0 f i Platform.obj
 0001:000000f0       ??$_Emplace_reallocate@AEBQEAU?$pair@V?$basic_string@_WU?$char_traits@_W@std@@V?$allocator@_W@2@@std@@V12@@@@?$vector@PEAU?$pair@V?$basic_string@_WU?$char_traits@_W@std@@V?$allocator@_W@2@@std@@V12@@@V?$allocator@PEAU?$pair@V?$basic_string@_WU?$char_traits@_W@std@@V?$allocator@_W@2@@std@@V12@@@@std@@@std@@QEAAPEAPEAU?$pair@V?$basic_string@_WU?$char_traits@_W@std@@V?$allocator@_W@2@@std@@V12@@@QEAPEAU2@AEBQEAU2@@Z 00000001800010f0 f i Exports.obj
 0001:000000f0       ??$_Emplace_reallocate@AEBQEAU?$pair@V?$basic_string@_WU?$char_traits@_W@std@@V?$allocator@_W@2@@std@@PEAVIniSectionData@@@@@?$vector@PEAU?$pair@V?$basic_string@_WU?$char_traits@_W@std@@V?$allocator@_W@2@@std@@PEAVIniSectionData@@@@V?$allocator@PEAU?$pair@V?$basic_string@_WU?$char_traits@_W@std@@V?$allocator@_W@2@@std@@PEAVIniSectionData@@@@@std@@@std@@QEAAPEAPEAU?$pair@V?$basic_string@_WU?$char_traits@_W@std@@V?$allocator@_W@2@@std@@PEAVIniSectionData@@@@QEAPEAU2@AEBQEAU2@@Z 00000001800010f0 f i IniFile.obj
 0001:000002a0       ??$_Emplace_reallocate@AEBV?$basic_string@_WU?$char_traits@_W@std@@V?$allocator@_W@2@@std@@@?$vector@V?$basic_string@_WU?$char_traits@_W@std@@V?$allocator@_W@2@@std@@V?$allocator@V?$basic_string@_WU?$char_traits@_W@std@@V?$allocator@_W@2@@std@@@2@@std@@QEAAPEAV?$basic_string@_WU?$char_traits@_W@std@@V?$allocator@_W@2@@1@QEAV21@AEBV21@@Z 00000001800012a0 f i Exports.obj
 0001:000005a0       ??$_Insert_at@AEAU?$pair@$$CBV?$basic_string@_WU?$char_traits@_W@std@@V?$allocator@_W@2@@std@@PEAU?$pair@V?$basic_string@_WU?$char_traits@_W@std@@V?$allocator@_W@2@@std@@V12@@@@std@@PEAU?$_Tree_node@U?$pair@$$CBV?$basic_string@_WU?$char_traits@_W@std@@V?$allocator@_W@2@@std@@PEAU?$pair@V?$basic_string@_WU?$char_traits@_W@std@@V?$allocator@_W@2@@std@@V12@@@@std@@PEAX@2@@?$_Tree@V?$_Tmap_traits@V?$basic_string@_WU?$char_traits@_W@std@@V?$allocator@_W@2@@std@@PEAU?$pair@V?$basic_string@_WU?$char_traits@_W@std@@V?$allocator@_W@2@@std@@V12@@@U?$less@V?$basic_string@_WU?$char_traits@_W@std@@V?$allocator@_W@2@@std@@@2@V?$allocator@U?$pair@$$CBV?$basic_string@_WU?$char_traits@_W@std@@V?$allocator@_W@2@@std@@PEAU?$pair@V?$basic_string@_WU?$char_traits@_W@std@@V?$allocator@_W@2@@std@@V12@@@@std@@@2@$0A@@std@@@std@@IEAA?AV?$_Tree_iterator@V?$_Tree_val@U?$_Tree_simple_types@U?$pair@$$CBV?$basic_string@_WU?$char_traits@_W@std@@V?$allocator@_W@2@@std@@PEAU?$pair@V?$basic_string@_WU?$char_traits@_W@std@@V?$allocator@_W@2@@std@@V12@@@@std@@@std@@@std@@@1@_NPEAU?$_Tree_node@U?$pair@$$CBV?$basic_string@_WU?$char_traits@_W@std@@V?$allocator@_W@2@@std@@PEAU?$pair@V?$basic_string@_WU?$char_traits@_W@std@@V?$allocator@_W@2@@std@@V12@@@@std@@PEAX@1@AEAU?$pair@$$CBV?$basic_string@_WU?$char_traits@_W@std@@V?$allocator@_W@2@@std@@PEAU?$pair@V?$basic_string@_WU?$char_traits@_W@std@@V?$allocator@_W@2@@std@@V12@@@@1@1@Z 00000001800015a0 f i Exports.obj
 0001:000005a0       ??$_Insert_at@AEAU?$pair@$$CBV?$basic_string@_WU?$char_traits@_W@std@@V?$allocator@_W@2@@std@@PEAU?$pair@V?$basic_string@_WU?$char_traits@_W@std@@V?$allocator@_W@2@@std@@PEAVIniSectionData@@@@@std@@PEAU?$_Tree_node@U?$pair@$$CBV?$basic_string@_WU?$char_traits@_W@std@@V?$allocator@_W@2@@std@@PEAU?$pair@V?$basic_string@_WU?$char_traits@_W@std@@V?$allocator@_W@2@@std@@PEAVIniSectionData@@@@@std@@PEAX@2@@?$_Tree@V?$_Tmap_traits@V?$basic_string@_WU?$char_traits@_W@std@@V?$allocator@_W@2@@std@@PEAU?$pair@V?$basic_string@_WU?$char_traits@_W@std@@V?$allocator@_W@2@@std@@PEAVIniSectionData@@@@U?$less@V?$basic_string@_WU?$char_traits@_W@std@@V?$allocator@_W@2@@std@@@2@V?$allocator@U?$pair@$$CBV?$basic_string@_WU?$char_traits@_W@std@@V?$allocator@_W@2@@std@@PEAU?$pair@V?$basic_string@_WU?$char_traits@_W@std@@V?$allocator@_W@2@@std@@PEAVIniSectionData@@@@@std@@@2@$0A@@std@@@std@@IEAA?AV?$_Tree_iterator@V?$_Tree_val@U?$_Tree_simple_types@U?$pair@$$CBV?$basic_string@_WU?$char_traits@_W@std@@V?$allocator@_W@2@@std@@PEAU?$pair@V?$basic_string@_WU?$char_traits@_W@std@@V?$allocator@_W@2@@std@@PEAVIniSectionData@@@@@std@@@std@@@std@@@1@_NPEAU?$_Tree_node@U?$pair@$$CBV?$basic_string@_WU?$char_traits@_W@std@@V?$allocator@_W@2@@std@@PEAU?$pair@V?$basic_string@_WU?$char_traits@_W@std@@V?$allocator@_W@2@@std@@PEAVIniSectionData@@@@@std@@PEAX@1@AEAU?$pair@$$CBV?$basic_string@_WU?$char_traits@_W@std@@V?$allocator@_W@2@@std@@PEAU?$pair@V?$basic_string@_WU?$char_traits@_W@std@@V?$allocator@_W@2@@std@@PEAVIniSectionData@@@@@1@1@Z 00000001800015a0 f i IniFile.obj
 0001:00000820       ??$_Insert_hint@AEAU?$pair@$$CBV?$basic_string@_WU?$char_traits@_W@std@@V?$allocator@_W@2@@std@@PEAU?$pair@V?$basic_string@_WU?$char_traits@_W@std@@V?$allocator@_W@2@@std@@PEAVIniSectionData@@@@@std@@PEAU?$_Tree_node@U?$pair@$$CBV?$basic_string@_WU?$char_traits@_W@std@@V?$allocator@_W@2@@std@@PEAU?$pair@V?$basic_string@_WU?$char_traits@_W@std@@V?$allocator@_W@2@@std@@PEAVIniSectionData@@@@@std@@PEAX@2@@?$_Tree@V?$_Tmap_traits@V?$basic_string@_WU?$char_traits@_W@std@@V?$allocator@_W@2@@std@@PEAU?$pair@V?$basic_string@_WU?$char_traits@_W@std@@V?$allocator@_W@2@@std@@PEAVIniSectionData@@@@U?$less@V?$basic_string@_WU?$char_traits@_W@std@@V?$allocator@_W@2@@std@@@2@V?$allocator@U?$pair@$$CBV?$basic_string@_WU?$char_traits@_W@std@@V?$allocator@_W@2@@std@@PEAU?$pair@V?$basic_string@_WU?$char_traits@_W@std@@V?$allocator@_W@2@@std@@PEAVIniSectionData@@@@@std@@@2@$0A@@std@@@std@@IEAA?AV?$_Tree_iterator@V?$_Tree_val@U?$_Tree_simple_types@U?$pair@$$CBV?$basic_string@_WU?$char_traits@_W@std@@V?$allocator@_W@2@@std@@PEAU?$pair@V?$basic_string@_WU?$char_traits@_W@std@@V?$allocator@_W@2@@std@@PEAVIniSectionData@@@@@std@@@std@@@std@@@1@V?$_Tree_const_iterator@V?$_Tree_val@U?$_Tree_simple_types@U?$pair@$$CBV?$basic_string@_WU?$char_traits@_W@std@@V?$allocator@_W@2@@std@@PEAU?$pair@V?$basic_string@_WU?$char_traits@_W@std@@V?$allocator@_W@2@@std@@PEAVIniSectionData@@@@@std@@@std@@@std@@@1@AEAU?$pair@$$CBV?$basic_string@_WU?$char_traits@_W@std@@V?$allocator@_W@2@@std@@PEAU?$pair@V?$basic_string@_WU?$char_traits@_W@std@@V?$allocator@_W@2@@std@@PEAVIniSectionData@@@@@1@PEAU?$_Tree_node@U?$pair@$$CBV?$basic_string@_WU?$char_traits@_W@std@@V?$allocator@_W@2@@std@@PEAU?$pair@V?$basic_string@_WU?$char_traits@_W@std@@V?$allocator@_W@2@@std@@PEAVIniSectionData@@@@@std@@PEAX@1@@Z 0000000180001820 f i IniFile.obj
 0001:00000820       ??$_Insert_hint@AEAU?$pair@$$CBV?$basic_string@_WU?$char_traits@_W@std@@V?$allocator@_W@2@@std@@PEAU?$pair@V?$basic_string@_WU?$char_traits@_W@std@@V?$allocator@_W@2@@std@@V12@@@@std@@PEAU?$_Tree_node@U?$pair@$$CBV?$basic_string@_WU?$char_traits@_W@std@@V?$allocator@_W@2@@std@@PEAU?$pair@V?$basic_string@_WU?$char_traits@_W@std@@V?$allocator@_W@2@@std@@V12@@@@std@@PEAX@2@@?$_Tree@V?$_Tmap_traits@V?$basic_string@_WU?$char_traits@_W@std@@V?$allocator@_W@2@@std@@PEAU?$pair@V?$basic_string@_WU?$char_traits@_W@std@@V?$allocator@_W@2@@std@@V12@@@U?$less@V?$basic_string@_WU?$char_traits@_W@std@@V?$allocator@_W@2@@std@@@2@V?$allocator@U?$pair@$$CBV?$basic_string@_WU?$char_traits@_W@std@@V?$allocator@_W@2@@std@@PEAU?$pair@V?$basic_string@_WU?$char_traits@_W@std@@V?$allocator@_W@2@@std@@V12@@@@std@@@2@$0A@@std@@@std@@IEAA?AV?$_Tree_iterator@V?$_Tree_val@U?$_Tree_simple_types@U?$pair@$$CBV?$basic_string@_WU?$char_traits@_W@std@@V?$allocator@_W@2@@std@@PEAU?$pair@V?$basic_string@_WU?$char_traits@_W@std@@V?$allocator@_W@2@@std@@V12@@@@std@@@std@@@std@@@1@V?$_Tree_const_iterator@V?$_Tree_val@U?$_Tree_simple_types@U?$pair@$$CBV?$basic_string@_WU?$char_traits@_W@std@@V?$allocator@_W@2@@std@@PEAU?$pair@V?$basic_string@_WU?$char_traits@_W@std@@V?$allocator@_W@2@@std@@V12@@@@std@@@std@@@std@@@1@AEAU?$pair@$$CBV?$basic_string@_WU?$char_traits@_W@std@@V?$allocator@_W@2@@std@@PEAU?$pair@V?$basic_string@_WU?$char_traits@_W@std@@V?$allocator@_W@2@@std@@V12@@@@1@PEAU?$_Tree_node@U?$pair@$$CBV?$basic_string@_WU?$char_traits@_W@std@@V?$allocator@_W@2@@std@@PEAU?$pair@V?$basic_string@_WU?$char_traits@_W@std@@V?$allocator@_W@2@@std@@V12@@@@std@@PEAX@1@@Z 0000000180001820 f i Exports.obj
 0001:00000a60       ??$_Insert_nohint@AEAU?$pair@$$CBV?$basic_string@_WU?$char_traits@_W@std@@V?$allocator@_W@2@@std@@PEAU?$pair@V?$basic_string@_WU?$char_traits@_W@std@@V?$allocator@_W@2@@std@@PEAVIniSectionData@@@@@std@@PEAU?$_Tree_node@U?$pair@$$CBV?$basic_string@_WU?$char_traits@_W@std@@V?$allocator@_W@2@@std@@PEAU?$pair@V?$basic_string@_WU?$char_traits@_W@std@@V?$allocator@_W@2@@std@@PEAVIniSectionData@@@@@std@@PEAX@2@@?$_Tree@V?$_Tmap_traits@V?$basic_string@_WU?$char_traits@_W@std@@V?$allocator@_W@2@@std@@PEAU?$pair@V?$basic_string@_WU?$char_traits@_W@std@@V?$allocator@_W@2@@std@@PEAVIniSectionData@@@@U?$less@V?$basic_string@_WU?$char_traits@_W@std@@V?$allocator@_W@2@@std@@@2@V?$allocator@U?$pair@$$CBV?$basic_string@_WU?$char_traits@_W@std@@V?$allocator@_W@2@@std@@PEAU?$pair@V?$basic_string@_WU?$char_traits@_W@std@@V?$allocator@_W@2@@std@@PEAVIniSectionData@@@@@std@@@2@$0A@@std@@@std@@IEAA?AU?$pair@V?$_Tree_iterator@V?$_Tree_val@U?$_Tree_simple_types@U?$pair@$$CBV?$basic_string@_WU?$char_traits@_W@std@@V?$allocator@_W@2@@std@@PEAU?$pair@V?$basic_string@_WU?$char_traits@_W@std@@V?$allocator@_W@2@@std@@PEAVIniSectionData@@@@@std@@@std@@@std@@@std@@_N@1@_NAEAU?$pair@$$CBV?$basic_string@_WU?$char_traits@_W@std@@V?$allocator@_W@2@@std@@PEAU?$pair@V?$basic_string@_WU?$char_traits@_W@std@@V?$allocator@_W@2@@std@@PEAVIniSectionData@@@@@1@PEAU?$_Tree_node@U?$pair@$$CBV?$basic_string@_WU?$char_traits@_W@std@@V?$allocator@_W@2@@std@@PEAU?$pair@V?$basic_string@_WU?$char_traits@_W@std@@V?$allocator@_W@2@@std@@PEAVIniSectionData@@@@@std@@PEAX@1@@Z 0000000180001a60 f i IniFile.obj
 0001:00000a60       ??$_Insert_nohint@AEAU?$pair@$$CBV?$basic_string@_WU?$char_traits@_W@std@@V?$allocator@_W@2@@std@@PEAU?$pair@V?$basic_string@_WU?$char_traits@_W@std@@V?$allocator@_W@2@@std@@V12@@@@std@@PEAU?$_Tree_node@U?$pair@$$CBV?$basic_string@_WU?$char_traits@_W@std@@V?$allocator@_W@2@@std@@PEAU?$pair@V?$basic_string@_WU?$char_traits@_W@std@@V?$allocator@_W@2@@std@@V12@@@@std@@PEAX@2@@?$_Tree@V?$_Tmap_traits@V?$basic_string@_WU?$char_traits@_W@std@@V?$allocator@_W@2@@std@@PEAU?$pair@V?$basic_string@_WU?$char_traits@_W@std@@V?$allocator@_W@2@@std@@V12@@@U?$less@V?$basic_string@_WU?$char_traits@_W@std@@V?$allocator@_W@2@@std@@@2@V?$allocator@U?$pair@$$CBV?$basic_string@_WU?$char_traits@_W@std@@V?$allocator@_W@2@@std@@PEAU?$pair@V?$basic_string@_WU?$char_traits@_W@std@@V?$allocator@_W@2@@std@@V12@@@@std@@@2@$0A@@std@@@std@@IEAA?AU?$pair@V?$_Tree_iterator@V?$_Tree_val@U?$_Tree_simple_types@U?$pair@$$CBV?$basic_string@_WU?$char_traits@_W@std@@V?$allocator@_W@2@@std@@PEAU?$pair@V?$basic_string@_WU?$char_traits@_W@std@@V?$allocator@_W@2@@std@@V12@@@@std@@@std@@@std@@@std@@_N@1@_NAEAU?$pair@$$CBV?$basic_string@_WU?$char_traits@_W@std@@V?$allocator@_W@2@@std@@PEAU?$pair@V?$basic_string@_WU?$char_traits@_W@std@@V?$allocator@_W@2@@std@@V12@@@@1@PEAU?$_Tree_node@U?$pair@$$CBV?$basic_string@_WU?$char_traits@_W@std@@V?$allocator@_W@2@@std@@PEAU?$pair@V?$basic_string@_WU?$char_traits@_W@std@@V?$allocator@_W@2@@std@@V12@@@@std@@PEAX@1@@Z 0000000180001a60 f i Exports.obj
 0001:00000d50       ??0?$OrderedMap@V?$basic_string@_WU?$char_traits@_W@std@@V?$allocator@_W@2@@std@@V12@@@QEAA@AEBV0@@Z 0000000180001d50 f i Exports.obj
 0001:00000db0       ??0?$basic_string@_WU?$char_traits@_W@std@@V?$allocator@_W@2@@std@@QEAA@AEBV01@@Z 0000000180001db0 f i Exports.obj
 0001:00000e50       ??1?$OrderedMap@V?$basic_string@_WU?$char_traits@_W@std@@V?$allocator@_W@2@@std@@V12@@@QEAA@XZ 0000000180001e50 f i Exports.obj
 0001:00000f30       ??1?$_Uninitialized_backout_al@PEAV?$basic_string@_WU?$char_traits@_W@std@@V?$allocator@_W@2@@std@@V?$allocator@V?$basic_string@_WU?$char_traits@_W@std@@V?$allocator@_W@2@@std@@@2@@std@@QEAA@XZ 0000000180001f30 f i Exports.obj
 0001:00000f70       ??1?$basic_string@_WU?$char_traits@_W@std@@V?$allocator@_W@2@@std@@QEAA@XZ 0000000180001f70 f i Exports.obj
 0001:00000f70       ??1WindowsLibrary@@QEAA@XZ 0000000180001f70 f i WindowsPlatform.obj
 0001:00000f70       ??1?$pair@V?$basic_string@_WU?$char_traits@_W@std@@V?$allocator@_W@2@@std@@PEAU?$pair@V?$basic_string@_WU?$char_traits@_W@std@@V?$allocator@_W@2@@std@@V12@@@@std@@QEAA@XZ 0000000180001f70 f i Exports.obj
 0001:00000f70       ??1?$pair@V?$basic_string@_WU?$char_traits@_W@std@@V?$allocator@_W@2@@std@@PEAU?$pair@V?$basic_string@_WU?$char_traits@_W@std@@V?$allocator@_W@2@@std@@PEAVIniSectionData@@@@@std@@QEAA@XZ 0000000180001f70 f i IniFile.obj
 0001:00000f80       ??1?$map@V?$basic_string@_WU?$char_traits@_W@std@@V?$allocator@_W@2@@std@@PEAU?$pair@V?$basic_string@_WU?$char_traits@_W@std@@V?$allocator@_W@2@@std@@V12@@@U?$less@V?$basic_string@_WU?$char_traits@_W@std@@V?$allocator@_W@2@@std@@@2@V?$allocator@U?$pair@$$CBV?$basic_string@_WU?$char_traits@_W@std@@V?$allocator@_W@2@@std@@PEAU?$pair@V?$basic_string@_WU?$char_traits@_W@std@@V?$allocator@_W@2@@std@@V12@@@@std@@@2@@std@@QEAA@XZ 0000000180001f80 f i Exports.obj
 0001:00000fa0       ??1?$vector@PEAU?$pair@V?$basic_string@_WU?$char_traits@_W@std@@V?$allocator@_W@2@@std@@V12@@@V?$allocator@PEAU?$pair@V?$basic_string@_WU?$char_traits@_W@std@@V?$allocator@_W@2@@std@@V12@@@@std@@@std@@QEAA@XZ 0000000180001fa0 f i Exports.obj
 0001:00001000       ?_Tidy@?$vector@V?$basic_string@_WU?$char_traits@_W@std@@V?$allocator@_W@2@@std@@V?$allocator@V?$basic_string@_WU?$char_traits@_W@std@@V?$allocator@_W@2@@std@@@2@@std@@AEAAXXZ 0000000180002000 f i Exports.obj
 0001:00001000       ??1?$vector@V?$basic_string@_WU?$char_traits@_W@std@@V?$allocator@_W@2@@std@@V?$allocator@V?$basic_string@_WU?$char_traits@_W@std@@V?$allocator@_W@2@@std@@@2@@std@@QEAA@XZ 0000000180002000 f i Exports.obj
 0001:00001090       ??A?$map@V?$basic_string@_WU?$char_traits@_W@std@@V?$allocator@_W@2@@std@@PEAU?$pair@V?$basic_string@_WU?$char_traits@_W@std@@V?$allocator@_W@2@@std@@V12@@@U?$less@V?$basic_string@_WU?$char_traits@_W@std@@V?$allocator@_W@2@@std@@@2@V?$allocator@U?$pair@$$CBV?$basic_string@_WU?$char_traits@_W@std@@V?$allocator@_W@2@@std@@PEAU?$pair@V?$basic_string@_WU?$char_traits@_W@std@@V?$allocator@_W@2@@std@@V12@@@@std@@@2@@std@@QEAAAEAPEAU?$pair@V?$basic_string@_WU?$char_traits@_W@std@@V?$allocator@_W@2@@std@@V12@@@AEBV?$basic_string@_WU?$char_traits@_W@std@@V?$allocator@_W@2@@1@@Z 0000000180002090 f i Exports.obj
 0001:00001150       ??E?$_Tree_const_iterator@V?$_Tree_val@U?$_Tree_simple_types@U?$pair@$$CBV?$basic_string@_WU?$char_traits@_W@std@@V?$allocator@_W@2@@std@@PEAU?$pair@V?$basic_string@_WU?$char_traits@_W@std@@V?$allocator@_W@2@@std@@PEAVIniSectionData@@@@@std@@@std@@@std@@@std@@QEAAAEAV01@XZ 0000000180002150 f i IniFile.obj
 0001:00001150       ??E?$_Tree_const_iterator@V?$_Tree_val@U?$_Tree_simple_types@U?$pair@$$CBV?$basic_string@_WU?$char_traits@_W@std@@V?$allocator@_W@2@@std@@V12@@std@@@std@@@std@@@std@@QEAAAEAV01@XZ 0000000180002150 f i GenericPlatform.obj
 0001:00001150       ??E?$_Tree_const_iterator@V?$_Tree_val@U?$_Tree_simple_types@U?$pair@$$CBV?$basic_string@_WU?$char_traits@_W@std@@V?$allocator@_W@2@@std@@PEAU?$pair@V?$basic_string@_WU?$char_traits@_W@std@@V?$allocator@_W@2@@std@@V12@@@@std@@@std@@@std@@@std@@QEAAAEAV01@XZ 0000000180002150 f i Exports.obj
 0001:000011c0       ??F?$_Tree_const_iterator@V?$_Tree_val@U?$_Tree_simple_types@U?$pair@$$CBV?$basic_string@_WU?$char_traits@_W@std@@V?$allocator@_W@2@@std@@PEAU?$pair@V?$basic_string@_WU?$char_traits@_W@std@@V?$allocator@_W@2@@std@@PEAVIniSectionData@@@@@std@@@std@@@std@@@std@@QEAAAEAV01@XZ 00000001800021c0 f i IniFile.obj
 0001:000011c0       ??F?$_Tree_const_iterator@V?$_Tree_val@U?$_Tree_simple_types@U?$pair@$$CBV?$basic_string@_WU?$char_traits@_W@std@@V?$allocator@_W@2@@std@@V12@@std@@@std@@@std@@@std@@QEAAAEAV01@XZ 00000001800021c0 f i GenericPlatform.obj
 0001:000011c0       ??F?$_Tree_const_iterator@V?$_Tree_val@U?$_Tree_simple_types@U?$pair@$$CBV?$basic_string@_WU?$char_traits@_W@std@@V?$allocator@_W@2@@std@@PEAU?$pair@V?$basic_string@_WU?$char_traits@_W@std@@V?$allocator@_W@2@@std@@V12@@@@std@@@std@@@std@@@std@@QEAAAEAV01@XZ 00000001800021c0 f i Exports.obj
 0001:00001250       ??R?$less@V?$basic_string@_WU?$char_traits@_W@std@@V?$allocator@_W@2@@std@@@std@@QEBA_NAEBV?$basic_string@_WU?$char_traits@_W@std@@V?$allocator@_W@2@@1@0@Z 0000000180002250 f i Exports.obj
 0001:000012e0       ?Append@?$OrderedMap@V?$basic_string@_WU?$char_traits@_W@std@@V?$allocator@_W@2@@std@@V12@@@QEAAXAEBV1@@Z 00000001800022e0 f i Exports.obj
 0001:00001600       ?Append@?$OrderedMap@V?$basic_string@_WU?$char_traits@_W@std@@V?$allocator@_W@2@@std@@V12@@@QEAAXV?$basic_string@_WU?$char_traits@_W@std@@V?$allocator@_W@2@@std@@0@Z 0000000180002600 f i Exports.obj
 0001:000017c0       ?Clear@?$OrderedMap@V?$basic_string@_WU?$char_traits@_W@std@@V?$allocator@_W@2@@std@@V12@@@QEAAXXZ 00000001800027c0 f i Exports.obj
 0001:00001830       ?GetKeys@?$OrderedMap@V?$basic_string@_WU?$char_traits@_W@std@@V?$allocator@_W@2@@std@@V12@@@QEAA?AV?$vector@V?$basic_string@_WU?$char_traits@_W@std@@V?$allocator@_W@2@@std@@V?$allocator@V?$basic_string@_WU?$char_traits@_W@std@@V?$allocator@_W@2@@std@@@2@@std@@XZ 0000000180002830 f i Exports.obj
 0001:00001830       ?GetKeys@?$OrderedMap@V?$basic_string@_WU?$char_traits@_W@std@@V?$allocator@_W@2@@std@@PEAVIniSectionData@@@@QEAA?AV?$vector@V?$basic_string@_WU?$char_traits@_W@std@@V?$allocator@_W@2@@std@@V?$allocator@V?$basic_string@_WU?$char_traits@_W@std@@V?$allocator@_W@2@@std@@@2@@std@@XZ 0000000180002830 f i IniFile.obj
 0001:000018d0       ?GetValue@?$OrderedMap@V?$basic_string@_WU?$char_traits@_W@std@@V?$allocator@_W@2@@std@@V12@@@QEAA_NV?$basic_string@_WU?$char_traits@_W@std@@V?$allocator@_W@2@@std@@AEAV23@@Z 00000001800028d0 f i Exports.obj
 0001:00001a00       ?MapKeysToJObjectArray@UserJVMArgsExports@@CAPEAV_jobjectArray@@PEAUJNIEnv_@@V?$OrderedMap@V?$basic_string@_WU?$char_traits@_W@std@@V?$allocator@_W@2@@std@@V12@@@@Z 0000000180002a00 f i Exports.obj
 0001:00001b70       ?_Buyheadnode@?$_Tree_comp_alloc@V?$_Tmap_traits@V?$basic_string@_WU?$char_traits@_W@std@@V?$allocator@_W@2@@std@@PEAU?$pair@V?$basic_string@_WU?$char_traits@_W@std@@V?$allocator@_W@2@@std@@PEAVIniSectionData@@@@U?$less@V?$basic_string@_WU?$char_traits@_W@std@@V?$allocator@_W@2@@std@@@2@V?$allocator@U?$pair@$$CBV?$basic_string@_WU?$char_traits@_W@std@@V?$allocator@_W@2@@std@@PEAU?$pair@V?$basic_string@_WU?$char_traits@_W@std@@V?$allocator@_W@2@@std@@PEAVIniSectionData@@@@@std@@@2@$0A@@std@@@std@@QEAAPEAU?$_Tree_node@U?$pair@$$CBV?$basic_string@_WU?$char_traits@_W@std@@V?$allocator@_W@2@@std@@PEAU?$pair@V?$basic_string@_WU?$char_traits@_W@std@@V?$allocator@_W@2@@std@@PEAVIniSectionData@@@@@std@@PEAX@2@XZ 0000000180002b70 f i IniFile.obj
 0001:00001b70       ?_Buyheadnode@?$_Tree_comp_alloc@V?$_Tmap_traits@V?$basic_string@_WU?$char_traits@_W@std@@V?$allocator@_W@2@@std@@PEAU?$pair@V?$basic_string@_WU?$char_traits@_W@std@@V?$allocator@_W@2@@std@@V12@@@U?$less@V?$basic_string@_WU?$char_traits@_W@std@@V?$allocator@_W@2@@std@@@2@V?$allocator@U?$pair@$$CBV?$basic_string@_WU?$char_traits@_W@std@@V?$allocator@_W@2@@std@@PEAU?$pair@V?$basic_string@_WU?$char_traits@_W@std@@V?$allocator@_W@2@@std@@V12@@@@std@@@2@$0A@@std@@@std@@QEAAPEAU?$_Tree_node@U?$pair@$$CBV?$basic_string@_WU?$char_traits@_W@std@@V?$allocator@_W@2@@std@@PEAU?$pair@V?$basic_string@_WU?$char_traits@_W@std@@V?$allocator@_W@2@@std@@V12@@@@std@@PEAX@2@XZ 0000000180002b70 f i Exports.obj
 0001:00001bb0       ?_Buynode0@?$_Tree_comp_alloc@V?$_Tmap_traits@V?$basic_string@_WU?$char_traits@_W@std@@V?$allocator@_W@2@@std@@PEAU?$pair@V?$basic_string@_WU?$char_traits@_W@std@@V?$allocator@_W@2@@std@@V12@@@U?$less@V?$basic_string@_WU?$char_traits@_W@std@@V?$allocator@_W@2@@std@@@2@V?$allocator@U?$pair@$$CBV?$basic_string@_WU?$char_traits@_W@std@@V?$allocator@_W@2@@std@@PEAU?$pair@V?$basic_string@_WU?$char_traits@_W@std@@V?$allocator@_W@2@@std@@V12@@@@std@@@2@$0A@@std@@@std@@QEAAPEAU?$_Tree_node@U?$pair@$$CBV?$basic_string@_WU?$char_traits@_W@std@@V?$allocator@_W@2@@std@@PEAU?$pair@V?$basic_string@_WU?$char_traits@_W@std@@V?$allocator@_W@2@@std@@V12@@@@std@@PEAX@2@XZ 0000000180002bb0 f i Exports.obj
 0001:00001bb0       ?_Buynode0@?$_Tree_comp_alloc@V?$_Tmap_traits@V?$basic_string@_WU?$char_traits@_W@std@@V?$allocator@_W@2@@std@@PEAU?$pair@V?$basic_string@_WU?$char_traits@_W@std@@V?$allocator@_W@2@@std@@PEAVIniSectionData@@@@U?$less@V?$basic_string@_WU?$char_traits@_W@std@@V?$allocator@_W@2@@std@@@2@V?$allocator@U?$pair@$$CBV?$basic_string@_WU?$char_traits@_W@std@@V?$allocator@_W@2@@std@@PEAU?$pair@V?$basic_string@_WU?$char_traits@_W@std@@V?$allocator@_W@2@@std@@PEAVIniSectionData@@@@@std@@@2@$0A@@std@@@std@@QEAAPEAU?$_Tree_node@U?$pair@$$CBV?$basic_string@_WU?$char_traits@_W@std@@V?$allocator@_W@2@@std@@PEAU?$pair@V?$basic_string@_WU?$char_traits@_W@std@@V?$allocator@_W@2@@std@@PEAVIniSectionData@@@@@std@@PEAX@2@XZ 0000000180002bb0 f i IniFile.obj
 0001:00001bf0       ?_Destroy@?$vector@V?$basic_string@_WU?$char_traits@_W@std@@V?$allocator@_W@2@@std@@V?$allocator@V?$basic_string@_WU?$char_traits@_W@std@@V?$allocator@_W@2@@std@@@2@@std@@AEAAXPEAV?$basic_string@_WU?$char_traits@_W@std@@V?$allocator@_W@2@@2@0@Z 0000000180002bf0 f i Exports.obj
 0001:00001c30       ?_Destroy_if_node@?$_Tree@V?$_Tmap_traits@V?$basic_string@_WU?$char_traits@_W@std@@V?$allocator@_W@2@@std@@PEAU?$pair@V?$basic_string@_WU?$char_traits@_W@std@@V?$allocator@_W@2@@std@@PEAVIniSectionData@@@@U?$less@V?$basic_string@_WU?$char_traits@_W@std@@V?$allocator@_W@2@@std@@@2@V?$allocator@U?$pair@$$CBV?$basic_string@_WU?$char_traits@_W@std@@V?$allocator@_W@2@@std@@PEAU?$pair@V?$basic_string@_WU?$char_traits@_W@std@@V?$allocator@_W@2@@std@@PEAVIniSectionData@@@@@std@@@2@$0A@@std@@@std@@IEAAXPEAU?$_Tree_node@U?$pair@$$CBV?$basic_string@_WU?$char_traits@_W@std@@V?$allocator@_W@2@@std@@PEAU?$pair@V?$basic_string@_WU?$char_traits@_W@std@@V?$allocator@_W@2@@std@@PEAVIniSectionData@@@@@std@@PEAX@2@@Z 0000000180002c30 f i IniFile.obj
 0001:00001c30       ?_Destroy_if_node@?$_Tree@V?$_Tmap_traits@V?$basic_string@_WU?$char_traits@_W@std@@V?$allocator@_W@2@@std@@PEAU?$pair@V?$basic_string@_WU?$char_traits@_W@std@@V?$allocator@_W@2@@std@@V12@@@U?$less@V?$basic_string@_WU?$char_traits@_W@std@@V?$allocator@_W@2@@std@@@2@V?$allocator@U?$pair@$$CBV?$basic_string@_WU?$char_traits@_W@std@@V?$allocator@_W@2@@std@@PEAU?$pair@V?$basic_string@_WU?$char_traits@_W@std@@V?$allocator@_W@2@@std@@V12@@@@std@@@2@$0A@@std@@@std@@IEAAXPEAU?$_Tree_node@U?$pair@$$CBV?$basic_string@_WU?$char_traits@_W@std@@V?$allocator@_W@2@@std@@PEAU?$pair@V?$basic_string@_WU?$char_traits@_W@std@@V?$allocator@_W@2@@std@@V12@@@@std@@PEAX@2@@Z 0000000180002c30 f i Exports.obj
 0001:00001c60       ?_Erase@?$_Tree@V?$_Tmap_traits@V?$basic_string@_WU?$char_traits@_W@std@@V?$allocator@_W@2@@std@@PEAU?$pair@V?$basic_string@_WU?$char_traits@_W@std@@V?$allocator@_W@2@@std@@V12@@@U?$less@V?$basic_string@_WU?$char_traits@_W@std@@V?$allocator@_W@2@@std@@@2@V?$allocator@U?$pair@$$CBV?$basic_string@_WU?$char_traits@_W@std@@V?$allocator@_W@2@@std@@PEAU?$pair@V?$basic_string@_WU?$char_traits@_W@std@@V?$allocator@_W@2@@std@@V12@@@@std@@@2@$0A@@std@@@std@@IEAAXPEAU?$_Tree_node@U?$pair@$$CBV?$basic_string@_WU?$char_traits@_W@std@@V?$allocator@_W@2@@std@@PEAU?$pair@V?$basic_string@_WU?$char_traits@_W@std@@V?$allocator@_W@2@@std@@V12@@@@std@@PEAX@2@@Z 0000000180002c60 f i Exports.obj
 0001:00001c60       ?_Erase@?$_Tree@V?$_Tmap_traits@V?$basic_string@_WU?$char_traits@_W@std@@V?$allocator@_W@2@@std@@PEAU?$pair@V?$basic_string@_WU?$char_traits@_W@std@@V?$allocator@_W@2@@std@@PEAVIniSectionData@@@@U?$less@V?$basic_string@_WU?$char_traits@_W@std@@V?$allocator@_W@2@@std@@@2@V?$allocator@U?$pair@$$CBV?$basic_string@_WU?$char_traits@_W@std@@V?$allocator@_W@2@@std@@PEAU?$pair@V?$basic_string@_WU?$char_traits@_W@std@@V?$allocator@_W@2@@std@@PEAVIniSectionData@@@@@std@@@2@$0A@@std@@@std@@IEAAXPEAU?$_Tree_node@U?$pair@$$CBV?$basic_string@_WU?$char_traits@_W@std@@V?$allocator@_W@2@@std@@PEAU?$pair@V?$basic_string@_WU?$char_traits@_W@std@@V?$allocator@_W@2@@std@@PEAVIniSectionData@@@@@std@@PEAX@2@@Z 0000000180002c60 f i IniFile.obj
 0001:00001cc0       ?_Freenode0@?$_Tree_comp_alloc@V?$_Tmap_traits@V?$basic_string@_WU?$char_traits@_W@std@@V?$allocator@_W@2@@std@@PEAU?$pair@V?$basic_string@_WU?$char_traits@_W@std@@V?$allocator@_W@2@@std@@PEAVIniSectionData@@@@U?$less@V?$basic_string@_WU?$char_traits@_W@std@@V?$allocator@_W@2@@std@@@2@V?$allocator@U?$pair@$$CBV?$basic_string@_WU?$char_traits@_W@std@@V?$allocator@_W@2@@std@@PEAU?$pair@V?$basic_string@_WU?$char_traits@_W@std@@V?$allocator@_W@2@@std@@PEAVIniSectionData@@@@@std@@@2@$0A@@std@@@std@@QEAAXPEAU?$_Tree_node@U?$pair@$$CBV?$basic_string@_WU?$char_traits@_W@std@@V?$allocator@_W@2@@std@@PEAU?$pair@V?$basic_string@_WU?$char_traits@_W@std@@V?$allocator@_W@2@@std@@PEAVIniSectionData@@@@@std@@PEAX@2@@Z 0000000180002cc0 f i IniFile.obj
 0001:00001cc0       ?_Freenode0@?$_Tree_comp_alloc@V?$_Tmap_traits@V?$basic_string@_WU?$char_traits@_W@std@@V?$allocator@_W@2@@std@@PEAU?$pair@V?$basic_string@_WU?$char_traits@_W@std@@V?$allocator@_W@2@@std@@V12@@@U?$less@V?$basic_string@_WU?$char_traits@_W@std@@V?$allocator@_W@2@@std@@@2@V?$allocator@U?$pair@$$CBV?$basic_string@_WU?$char_traits@_W@std@@V?$allocator@_W@2@@std@@PEAU?$pair@V?$basic_string@_WU?$char_traits@_W@std@@V?$allocator@_W@2@@std@@V12@@@@std@@@2@$0A@@std@@@std@@QEAAXPEAU?$_Tree_node@U?$pair@$$CBV?$basic_string@_WU?$char_traits@_W@std@@V?$allocator@_W@2@@std@@PEAU?$pair@V?$basic_string@_WU?$char_traits@_W@std@@V?$allocator@_W@2@@std@@V12@@@@std@@PEAX@2@@Z 0000000180002cc0 f i Exports.obj
 0001:00001cd0       ?_Rrotate@?$_Tree_val@U?$_Tree_simple_types@U?$pair@$$CBV?$basic_string@_WU?$char_traits@_W@std@@V?$allocator@_W@2@@std@@PEAU?$pair@V?$basic_string@_WU?$char_traits@_W@std@@V?$allocator@_W@2@@std@@PEAVIniSectionData@@@@@std@@@std@@@std@@QEAAXPEAU?$_Tree_node@U?$pair@$$CBV?$basic_string@_WU?$char_traits@_W@std@@V?$allocator@_W@2@@std@@PEAU?$pair@V?$basic_string@_WU?$char_traits@_W@std@@V?$allocator@_W@2@@std@@PEAVIniSectionData@@@@@std@@PEAX@2@@Z 0000000180002cd0 f i IniFile.obj
 0001:00001cd0       ?_Rrotate@?$_Tree_val@U?$_Tree_simple_types@U?$pair@$$CBV?$basic_string@_WU?$char_traits@_W@std@@V?$allocator@_W@2@@std@@V12@@std@@@std@@@std@@QEAAXPEAU?$_Tree_node@U?$pair@$$CBV?$basic_string@_WU?$char_traits@_W@std@@V?$allocator@_W@2@@std@@V12@@std@@PEAX@2@@Z 0000000180002cd0 f i GenericPlatform.obj
 0001:00001cd0       ?_Rrotate@?$_Tree_val@U?$_Tree_simple_types@U?$pair@$$CBV?$basic_string@_WU?$char_traits@_W@std@@V?$allocator@_W@2@@std@@PEAU?$pair@V?$basic_string@_WU?$char_traits@_W@std@@V?$allocator@_W@2@@std@@V12@@@@std@@@std@@@std@@QEAAXPEAU?$_Tree_node@U?$pair@$$CBV?$basic_string@_WU?$char_traits@_W@std@@V?$allocator@_W@2@@std@@PEAU?$pair@V?$basic_string@_WU?$char_traits@_W@std@@V?$allocator@_W@2@@std@@V12@@@@std@@PEAX@2@@Z 0000000180002cd0 f i Exports.obj
 0001:00001d30       ?_Tidy_deallocate@?$basic_string@_WU?$char_traits@_W@std@@V?$allocator@_W@2@@std@@QEAAXXZ 0000000180002d30 f i Exports.obj
 0001:00001da0       ?_Xlen@?$basic_string@_WU?$char_traits@_W@std@@V?$allocator@_W@2@@std@@SAXXZ 0000000180002da0 f i Exports.obj
 0001:00001da0       ?_Xlen@?$basic_string@DU?$char_traits@D@std@@V?$allocator@D@2@@std@@SAXXZ 0000000180002da0 f i FilePath.obj
 0001:00001dc0       ?_Xlength@?$vector@W4FileAttribute@@V?$allocator@W4FileAttribute@@@std@@@std@@CAXXZ 0000000180002dc0 f i FilePath.obj
 0001:00001dc0       ?_Xlength@?$vector@PEAU?$pair@V?$basic_string@_WU?$char_traits@_W@std@@V?$allocator@_W@2@@std@@V12@@@V?$allocator@PEAU?$pair@V?$basic_string@_WU?$char_traits@_W@std@@V?$allocator@_W@2@@std@@V12@@@@std@@@std@@CAXXZ 0000000180002dc0 f i Exports.obj
 0001:00001dc0       ?_Xlength@?$vector@U_Loop_vals_t@std@@V?$allocator@U_Loop_vals_t@std@@@2@@std@@CAXXZ 0000000180002dc0 f i WindowsPlatform.obj
 0001:00001dc0       ?_Xlength@?$vector@V?$basic_string@_WU?$char_traits@_W@std@@V?$allocator@_W@2@@std@@V?$allocator@V?$basic_string@_WU?$char_traits@_W@std@@V?$allocator@_W@2@@std@@@2@@std@@CAXXZ 0000000180002dc0 f i Exports.obj
 0001:00001dc0       ?_Xlength@?$vector@PEAU?$pair@V?$basic_string@_WU?$char_traits@_W@std@@V?$allocator@_W@2@@std@@PEAVIniSectionData@@@@V?$allocator@PEAU?$pair@V?$basic_string@_WU?$char_traits@_W@std@@V?$allocator@_W@2@@std@@PEAVIniSectionData@@@@@std@@@std@@CAXXZ 0000000180002dc0 f i IniFile.obj
 0001:00001dc0       ?_Xlength@?$vector@_WV?$allocator@_W@std@@@std@@CAXXZ 0000000180002dc0 f i WindowsPlatform.obj
 0001:00001dc0       ?_Xlength@?$vector@V?$sub_match@V?$_String_const_iterator@V?$_String_val@U?$_Simple_types@_W@std@@@std@@@std@@@std@@V?$allocator@V?$sub_match@V?$_String_const_iterator@V?$_String_val@U?$_Simple_types@_W@std@@@std@@@std@@@std@@@2@@std@@CAXXZ 0000000180002dc0 f i WindowsPlatform.obj
 0001:00001dc0       ?_Xlength@?$vector@U_Grp_t@?$_Tgt_state_t@V?$_String_const_iterator@V?$_String_val@U?$_Simple_types@_W@std@@@std@@@std@@@std@@V?$allocator@U_Grp_t@?$_Tgt_state_t@V?$_String_const_iterator@V?$_String_val@U?$_Simple_types@_W@std@@@std@@@std@@@std@@@3@@std@@CAXXZ 0000000180002dc0 f i WindowsPlatform.obj
 0001:00001dc0       ?_Xlength@?$vector@PEAVLibrary@@V?$allocator@PEAVLibrary@@@std@@@std@@CAXXZ 0000000180002dc0 f i Platform.obj
 0001:00001dc0       ?_Xlength@?$vector@IV?$allocator@I@std@@@std@@CAXXZ 0000000180002dc0 f i WindowsPlatform.obj
 0001:00001de0       ?_getUserJvmOptionDefaultKeys@UserJVMArgsExports@@SAPEAV_jobjectArray@@PEAUJNIEnv_@@@Z 0000000180002de0 f i Exports.obj
 0001:00001e40       ?_getUserJvmOptionDefaultValue@UserJVMArgsExports@@SAPEAV_jstring@@PEAUJNIEnv_@@PEAV2@@Z 0000000180002e40 f i Exports.obj
 0001:00002030       ?_getUserJvmOptionKeys@UserJVMArgsExports@@SAPEAV_jobjectArray@@PEAUJNIEnv_@@@Z 0000000180003030 f i Exports.obj
 0001:00002090       ?_getUserJvmOptionValue@UserJVMArgsExports@@SAPEAV_jstring@@PEAUJNIEnv_@@PEAV2@@Z 0000000180003090 f i Exports.obj
 0001:00002280       ?_setUserJvmKeysAndValues@UserJVMArgsExports@@SAXPEAUJNIEnv_@@PEAV_jobjectArray@@1@Z 0000000180003280 f i Exports.obj
 0001:00002660       ?allocate@?$allocator@V?$basic_string@_WU?$char_traits@_W@std@@V?$allocator@_W@2@@std@@@std@@QEAAPEAV?$basic_string@_WU?$char_traits@_W@std@@V?$allocator@_W@2@@2@_K@Z 0000000180003660 f i Exports.obj
 0001:000026e0       ?allocate@?$allocator@_W@std@@QEAAPEA_W_K@Z 00000001800036e0 f i Exports.obj
 0001:00002760       ?assign@?$basic_string@_WU?$char_traits@_W@std@@V?$allocator@_W@2@@std@@QEAAAEAV12@QEB_W_K@Z 0000000180003760 f i Exports.obj
 0001:00002890       ?clear@?$_Tree@V?$_Tmap_traits@V?$basic_string@_WU?$char_traits@_W@std@@V?$allocator@_W@2@@std@@PEAU?$pair@V?$basic_string@_WU?$char_traits@_W@std@@V?$allocator@_W@2@@std@@V12@@@U?$less@V?$basic_string@_WU?$char_traits@_W@std@@V?$allocator@_W@2@@std@@@2@V?$allocator@U?$pair@$$CBV?$basic_string@_WU?$char_traits@_W@std@@V?$allocator@_W@2@@std@@PEAU?$pair@V?$basic_string@_WU?$char_traits@_W@std@@V?$allocator@_W@2@@std@@V12@@@@std@@@2@$0A@@std@@@std@@QEAAXXZ 0000000180003890 f i Exports.obj
 0001:00002890       ?clear@?$_Tree@V?$_Tmap_traits@V?$basic_string@_WU?$char_traits@_W@std@@V?$allocator@_W@2@@std@@PEAU?$pair@V?$basic_string@_WU?$char_traits@_W@std@@V?$allocator@_W@2@@std@@PEAVIniSectionData@@@@U?$less@V?$basic_string@_WU?$char_traits@_W@std@@V?$allocator@_W@2@@std@@@2@V?$allocator@U?$pair@$$CBV?$basic_string@_WU?$char_traits@_W@std@@V?$allocator@_W@2@@std@@PEAU?$pair@V?$basic_string@_WU?$char_traits@_W@std@@V?$allocator@_W@2@@std@@PEAVIniSectionData@@@@@std@@@2@$0A@@std@@@std@@QEAAXXZ 0000000180003890 f i IniFile.obj
 0001:00002930       ?compare@?$_WChar_traits@_W@std@@SAHQEB_W0_K@Z 0000000180003930 f i Exports.obj
 0001:00002970       ?deallocate@?$allocator@PEAU?$pair@V?$basic_string@_WU?$char_traits@_W@std@@V?$allocator@_W@2@@std@@V12@@@@std@@QEAAXQEAPEAU?$pair@V?$basic_string@_WU?$char_traits@_W@std@@V?$allocator@_W@2@@std@@V12@@@_K@Z 0000000180003970 f i Exports.obj
 0001:00002970       ?deallocate@?$allocator@PEAU?$pair@V?$basic_string@_WU?$char_traits@_W@std@@V?$allocator@_W@2@@std@@PEAVIniSectionData@@@@@std@@QEAAXQEAPEAU?$pair@V?$basic_string@_WU?$char_traits@_W@std@@V?$allocator@_W@2@@std@@PEAVIniSectionData@@@@_K@Z 0000000180003970 f i IniFile.obj
 0001:00002970       ?deallocate@?$allocator@PEAVLibrary@@@std@@QEAAXQEAPEAVLibrary@@_K@Z 0000000180003970 f i Platform.obj
 0001:000029c0       ?deallocate@?$allocator@U?$_Tree_node@U?$pair@$$CBV?$basic_string@_WU?$char_traits@_W@std@@V?$allocator@_W@2@@std@@PEAU?$pair@V?$basic_string@_WU?$char_traits@_W@std@@V?$allocator@_W@2@@std@@PEAVIniSectionData@@@@@std@@PEAX@std@@@std@@QEAAXQEAU?$_Tree_node@U?$pair@$$CBV?$basic_string@_WU?$char_traits@_W@std@@V?$allocator@_W@2@@std@@PEAU?$pair@V?$basic_string@_WU?$char_traits@_W@std@@V?$allocator@_W@2@@std@@PEAVIniSectionData@@@@@std@@PEAX@2@_K@Z 00000001800039c0 f i IniFile.obj
 0001:000029c0       ?deallocate@?$allocator@U?$_Tree_node@U?$pair@$$CBV?$basic_string@_WU?$char_traits@_W@std@@V?$allocator@_W@2@@std@@PEAU?$pair@V?$basic_string@_WU?$char_traits@_W@std@@V?$allocator@_W@2@@std@@V12@@@@std@@PEAX@std@@@std@@QEAAXQEAU?$_Tree_node@U?$pair@$$CBV?$basic_string@_WU?$char_traits@_W@std@@V?$allocator@_W@2@@std@@PEAU?$pair@V?$basic_string@_WU?$char_traits@_W@std@@V?$allocator@_W@2@@std@@V12@@@@std@@PEAX@2@_K@Z 00000001800039c0 f i Exports.obj
 0001:00002a10       ?deallocate@?$allocator@V?$basic_string@_WU?$char_traits@_W@std@@V?$allocator@_W@2@@std@@@std@@QEAAXQEAV?$basic_string@_WU?$char_traits@_W@std@@V?$allocator@_W@2@@2@_K@Z 0000000180003a10 f i Exports.obj
 0001:00002a60       ?deallocate@?$allocator@_W@std@@QEAAXQEA_W_K@Z 0000000180003a60 f i Exports.obj
 0001:00002aa0       Java_jdk_packager_services_userjvmoptions_LauncherUserJvmOptions__1getUserJvmOptionDefaultKeys 0000000180003aa0 f   Exports.obj
 0001:00002ab0       Java_jdk_packager_services_userjvmoptions_LauncherUserJvmOptions__1getUserJvmOptionDefaultValue 0000000180003ab0 f   Exports.obj
 0001:00002ac0       Java_jdk_packager_services_userjvmoptions_LauncherUserJvmOptions__1getUserJvmOptionKeys 0000000180003ac0 f   Exports.obj
 0001:00002ad0       Java_jdk_packager_services_userjvmoptions_LauncherUserJvmOptions__1getUserJvmOptionValue 0000000180003ad0 f   Exports.obj
 0001:00002ae0       Java_jdk_packager_services_userjvmoptions_LauncherUserJvmOptions__1setUserJvmKeysAndValues 0000000180003ae0 f   Exports.obj
 0001:00002af0       ??$_Buynode@AEBV?$basic_string@_WU?$char_traits@_W@std@@V?$allocator@_W@2@@std@@@?$_List_buy@V?$basic_string@_WU?$char_traits@_W@std@@V?$allocator@_W@2@@std@@V?$allocator@V?$basic_string@_WU?$char_traits@_W@std@@V?$allocator@_W@2@@std@@@2@@std@@QEAAPEAU?$_List_node@V?$basic_string@_WU?$char_traits@_W@std@@V?$allocator@_W@2@@std@@PEAX@1@PEAU21@0AEBV?$basic_string@_WU?$char_traits@_W@std@@V?$allocator@_W@2@@1@@Z 0000000180003af0 f i FilePath.obj
 0001:00002af0       ??$_Buynode@AEAV?$basic_string@_WU?$char_traits@_W@std@@V?$allocator@_W@2@@std@@@?$_List_buy@V?$basic_string@_WU?$char_traits@_W@std@@V?$allocator@_W@2@@std@@V?$allocator@V?$basic_string@_WU?$char_traits@_W@std@@V?$allocator@_W@2@@std@@@2@@std@@QEAAPEAU?$_List_node@V?$basic_string@_WU?$char_traits@_W@std@@V?$allocator@_W@2@@std@@PEAX@1@PEAU21@0AEAV?$basic_string@_WU?$char_traits@_W@std@@V?$allocator@_W@2@@1@@Z 0000000180003af0 f i IniFile.obj
 0001:00002b40       ??$_Emplace_reallocate@W4FileAttribute@@@?$vector@W4FileAttribute@@V?$allocator@W4FileAttribute@@@std@@@std@@QEAAPEAW4FileAttribute@@QEAW42@$$QEAW42@@Z 0000000180003b40 f i FilePath.obj
 0001:00002c50       ??$_Freenode0@V?$allocator@U?$_List_node@V?$basic_string@_WU?$char_traits@_W@std@@V?$allocator@_W@2@@std@@PEAX@std@@@std@@@?$_List_node@V?$basic_string@_WU?$char_traits@_W@std@@V?$allocator@_W@2@@std@@PEAX@std@@SAXAEAV?$allocator@U?$_List_node@V?$basic_string@_WU?$char_traits@_W@std@@V?$allocator@_W@2@@std@@PEAX@std@@@1@PEAU01@@Z 0000000180003c50 f i FilePath.obj
 0001:00002c60       ??1?$DynamicBuffer@_W@@QEAA@XZ 0000000180003c60 f i FilePath.obj
 0001:00002c70       ??1?$_List_buy@V?$basic_string@_WU?$char_traits@_W@std@@V?$allocator@_W@2@@std@@V?$allocator@V?$basic_string@_WU?$char_traits@_W@std@@V?$allocator@_W@2@@std@@@2@@std@@QEAA@XZ 0000000180003c70 f i FilePath.obj
 0001:00002c80       ?_Tidy_deallocate@?$basic_string@DU?$char_traits@D@std@@V?$allocator@D@2@@std@@QEAAXXZ 0000000180003c80 f i FilePath.obj
 0001:00002c80       ??1?$basic_string@DU?$char_traits@D@std@@V?$allocator@D@2@@std@@QEAA@XZ 0000000180003c80 f i FilePath.obj
 0001:00002ce0       ??1?$list@V?$basic_string@_WU?$char_traits@_W@std@@V?$allocator@_W@2@@std@@V?$allocator@V?$basic_string@_WU?$char_traits@_W@std@@V?$allocator@_W@2@@std@@@2@@std@@QEAA@XZ 0000000180003ce0 f i FilePath.obj
 0001:00002d50       ??1?$vector@W4FileAttribute@@V?$allocator@W4FileAttribute@@@std@@@std@@QEAA@XZ 0000000180003d50 f i FilePath.obj
 0001:00002d50       ??1?$vector@_NV?$allocator@_N@std@@@std@@QEAA@XZ 0000000180003d50 f i WindowsPlatform.obj
 0001:00002d50       ?_Tidy@?$vector@IV?$allocator@I@std@@@std@@AEAAXXZ 0000000180003d50 f i WindowsPlatform.obj
 0001:00002d50       ??1?$_Vb_val@V?$allocator@_N@std@@@std@@QEAA@XZ 0000000180003d50 f i WindowsPlatform.obj
 0001:00002db0       ??4?$basic_string@_WU?$char_traits@_W@std@@V?$allocator@_W@2@@std@@QEAAAEAV01@$$QEAV01@@Z 0000000180003db0 f i FilePath.obj
 0001:00002e00       ??Y?$basic_string@_WU?$char_traits@_W@std@@V?$allocator@_W@2@@std@@QEAAAEAV01@_W@Z 0000000180003e00 f i FilePath.obj
 0001:00002f60       ?ChangeFileExt@FilePath@@SA?AV?$basic_string@_WU?$char_traits@_W@std@@V?$allocator@_W@2@@std@@V23@0@Z 0000000180003f60 f   FilePath.obj
 0001:000031c0       ?ChangePermissions@FilePath@@SAXV?$basic_string@_WU?$char_traits@_W@std@@V?$allocator@_W@2@@std@@_N@Z 00000001800041c0 f   FilePath.obj
 0001:000031e0       ?CreateDirectoryW@FilePath@@SA_NV?$basic_string@_WU?$char_traits@_W@std@@V?$allocator@_W@2@@std@@_N@Z 00000001800041e0 f   FilePath.obj
 0001:000036c0       ?DeleteFileW@FilePath@@SA_NV?$basic_string@_WU?$char_traits@_W@std@@V?$allocator@_W@2@@std@@@Z 00000001800046c0 f   FilePath.obj
 0001:00003a00       ?DirectoryExists@FilePath@@SA_NV?$basic_string@_WU?$char_traits@_W@std@@V?$allocator@_W@2@@std@@@Z 0000000180004a00 f   FilePath.obj
 0001:00003a90       ?ExtractFileName@FilePath@@SA?AV?$basic_string@_WU?$char_traits@_W@std@@V?$allocator@_W@2@@std@@V23@@Z 0000000180004a90 f   FilePath.obj
 0001:00003c30       ?ExtractFilePath@FilePath@@SA?AV?$basic_string@_WU?$char_traits@_W@std@@V?$allocator@_W@2@@std@@V23@@Z 0000000180004c30 f   FilePath.obj
 0001:00003da0       ?FileExists@FilePath@@SA_NV?$basic_string@_WU?$char_traits@_W@std@@V?$allocator@_W@2@@std@@@Z 0000000180004da0 f   FilePath.obj
 0001:00003e20       ?FixPathForPlatform@FilePath@@SA?AV?$basic_string@_WU?$char_traits@_W@std@@V?$allocator@_W@2@@std@@V23@@Z 0000000180004e20 f   FilePath.obj
 0001:00003ed0       ?FixPathSeparatorForPlatform@FilePath@@SA?AV?$basic_string@_WU?$char_traits@_W@std@@V?$allocator@_W@2@@std@@V23@@Z 0000000180004ed0 f   FilePath.obj
 0001:00003f80       ?IncludeTrailingSeparater@FilePath@@SA?AV?$basic_string@_WU?$char_traits@_W@std@@V?$allocator@_W@2@@std@@PEB_W@Z 0000000180004f80 f   FilePath.obj
 0001:000040e0       ?IncludeTrailingSeparater@FilePath@@SA?AV?$basic_string@_WU?$char_traits@_W@std@@V?$allocator@_W@2@@std@@V23@@Z 00000001800050e0 f   FilePath.obj
 0001:00004290       ?PathSeparator@FilePath@@SA?AV?$basic_string@_WU?$char_traits@_W@std@@V?$allocator@_W@2@@std@@XZ 0000000180005290 f   FilePath.obj
 0001:000042c0       ?ReadAttributes@FileAttributes@@AEAA_NXZ 00000001800052c0 f   FilePath.obj
 0001:000045b0       ?WriteAttributes@FileAttributes@@AEAA_NXZ 00000001800055b0 f   FilePath.obj
 0001:000047a0       ?_Buynode0@?$_List_alloc@U?$_List_base_types@V?$basic_string@_WU?$char_traits@_W@std@@V?$allocator@_W@2@@std@@V?$allocator@V?$basic_string@_WU?$char_traits@_W@std@@V?$allocator@_W@2@@std@@@2@@std@@@std@@QEAAPEAU?$_List_node@V?$basic_string@_WU?$char_traits@_W@std@@V?$allocator@_W@2@@std@@PEAX@2@PEAU32@0@Z 00000001800057a0 f i FilePath.obj
 0001:000047f0       ?_Change_array@?$vector@W4FileAttribute@@V?$allocator@W4FileAttribute@@@std@@@std@@AEAAXQEAW4FileAttribute@@_K1@Z 00000001800057f0 f i FilePath.obj
 0001:00004880       ?_Tidy@?$list@V?$basic_string@_WU?$char_traits@_W@std@@V?$allocator@_W@2@@std@@V?$allocator@V?$basic_string@_WU?$char_traits@_W@std@@V?$allocator@_W@2@@std@@@2@@std@@QEAAXXZ 0000000180005880 f i FilePath.obj
 0001:00004880       ?clear@?$list@V?$basic_string@_WU?$char_traits@_W@std@@V?$allocator@_W@2@@std@@V?$allocator@V?$basic_string@_WU?$char_traits@_W@std@@V?$allocator@_W@2@@std@@@2@@std@@QEAAXXZ 0000000180005880 f i FilePath.obj
 0001:000048f0       ?_Xran@?$_String_val@U?$_Simple_types@_W@std@@@std@@SAXXZ 00000001800058f0 f i FilePath.obj
 0001:00004910       ?allocate@?$allocator@D@std@@QEAAPEAD_K@Z 0000000180005910 f i FilePath.obj
 0001:00004970       ?allocate@?$allocator@W4FileAttribute@@@std@@QEAAPEAW4FileAttribute@@_K@Z 0000000180005970 f i FilePath.obj
 0001:00004970       ?allocate@?$allocator@I@std@@QEAAPEAI_K@Z 0000000180005970 f i WindowsPlatform.obj
 0001:000049f0       ?append@?$basic_string@_WU?$char_traits@_W@std@@V?$allocator@_W@2@@std@@QEAAAEAV12@QEB_W_K@Z 00000001800059f0 f i FilePath.obj
 0001:00004b70       ?assign@?$basic_string@DU?$char_traits@D@std@@V?$allocator@D@2@@std@@QEAAAEAV12@QEBD_K@Z 0000000180005b70 f i FilePath.obj
 0001:00004cc0       ?data@?$basic_string@_WU?$char_traits@_W@std@@V?$allocator@_W@2@@std@@QEBAPEB_WXZ 0000000180005cc0 f i FilePath.obj
 0001:00004cd0       ?deallocate@?$allocator@D@std@@QEAAXQEAD_K@Z 0000000180005cd0 f i FilePath.obj
 0001:00004d10       ?deallocate@?$allocator@U?$_List_node@V?$basic_string@_WU?$char_traits@_W@std@@V?$allocator@_W@2@@std@@PEAX@std@@@std@@QEAAXQEAU?$_List_node@V?$basic_string@_WU?$char_traits@_W@std@@V?$allocator@_W@2@@std@@PEAX@2@_K@Z 0000000180005d10 f i FilePath.obj
 0001:00004d60       ?deallocate@?$allocator@W4FileAttribute@@@std@@QEAAXQEAW4FileAttribute@@_K@Z 0000000180005d60 f i FilePath.obj
 0001:00004d60       ?deallocate@?$allocator@I@std@@QEAAXQEAI_K@Z 0000000180005d60 f i WindowsPlatform.obj
 0001:00004db0       ?push_back@?$basic_string@_WU?$char_traits@_W@std@@V?$allocator@_W@2@@std@@QEAAX_W@Z 0000000180005db0 f i FilePath.obj
 0001:00004f10       ?substr@?$basic_string@_WU?$char_traits@_W@std@@V?$allocator@_W@2@@std@@QEBA?AV12@_K0@Z 0000000180005f10 f i FilePath.obj
 0001:00004f70       ??$?H_WU?$char_traits@_W@std@@V?$allocator@_W@1@@std@@YA?AV?$basic_string@_WU?$char_traits@_W@std@@V?$allocator@_W@2@@0@AEBV10@QEB_W@Z 0000000180005f70 f i GenericPlatform.obj
 0001:00005020       ??$_Buynode@U?$pair@$$CBV?$basic_string@_WU?$char_traits@_W@std@@V?$allocator@_W@2@@std@@V12@@std@@@?$_Tree_comp_alloc@V?$_Tmap_traits@V?$basic_string@_WU?$char_traits@_W@std@@V?$allocator@_W@2@@std@@V12@U?$less@V?$basic_string@_WU?$char_traits@_W@std@@V?$allocator@_W@2@@std@@@2@V?$allocator@U?$pair@$$CBV?$basic_string@_WU?$char_traits@_W@std@@V?$allocator@_W@2@@std@@V12@@std@@@2@$0A@@std@@@std@@QEAAPEAU?$_Tree_node@U?$pair@$$CBV?$basic_string@_WU?$char_traits@_W@std@@V?$allocator@_W@2@@std@@V12@@std@@PEAX@1@$$QEAU?$pair@$$CBV?$basic_string@_WU?$char_traits@_W@std@@V?$allocator@_W@2@@std@@V12@@1@@Z 0000000180006020 f i GenericPlatform.obj
 0001:000050a0       ??$_Buynode@V?$basic_string@_WU?$char_traits@_W@std@@V?$allocator@_W@2@@std@@@?$_List_buy@V?$basic_string@_WU?$char_traits@_W@std@@V?$allocator@_W@2@@std@@V?$allocator@V?$basic_string@_WU?$char_traits@_W@std@@V?$allocator@_W@2@@std@@@2@@std@@QEAAPEAU?$_List_node@V?$basic_string@_WU?$char_traits@_W@std@@V?$allocator@_W@2@@std@@PEAX@1@PEAU21@0$$QEAV?$basic_string@_WU?$char_traits@_W@std@@V?$allocator@_W@2@@1@@Z 00000001800060a0 f i GenericPlatform.obj
 0001:000050f0       ??$_Insert_at@U?$pair@$$CBV?$basic_string@_WU?$char_traits@_W@std@@V?$allocator@_W@2@@std@@V12@@std@@U_Not_a_node_tag@2@@?$_Tree@V?$_Tmap_traits@V?$basic_string@_WU?$char_traits@_W@std@@V?$allocator@_W@2@@std@@V12@U?$less@V?$basic_string@_WU?$char_traits@_W@std@@V?$allocator@_W@2@@std@@@2@V?$allocator@U?$pair@$$CBV?$basic_string@_WU?$char_traits@_W@std@@V?$allocator@_W@2@@std@@V12@@std@@@2@$0A@@std@@@std@@IEAA?AV?$_Tree_iterator@V?$_Tree_val@U?$_Tree_simple_types@U?$pair@$$CBV?$basic_string@_WU?$char_traits@_W@std@@V?$allocator@_W@2@@std@@V12@@std@@@std@@@std@@@1@_NPEAU?$_Tree_node@U?$pair@$$CBV?$basic_string@_WU?$char_traits@_W@std@@V?$allocator@_W@2@@std@@V12@@std@@PEAX@1@$$QEAU?$pair@$$CBV?$basic_string@_WU?$char_traits@_W@std@@V?$allocator@_W@2@@std@@V12@@1@U_Not_a_node_tag@1@@Z 00000001800060f0 f i GenericPlatform.obj
 0001:00005380       ??$_Insert_nohint@U?$pair@$$CBV?$basic_string@_WU?$char_traits@_W@std@@V?$allocator@_W@2@@std@@V12@@std@@U_Not_a_node_tag@2@@?$_Tree@V?$_Tmap_traits@V?$basic_string@_WU?$char_traits@_W@std@@V?$allocator@_W@2@@std@@V12@U?$less@V?$basic_string@_WU?$char_traits@_W@std@@V?$allocator@_W@2@@std@@@2@V?$allocator@U?$pair@$$CBV?$basic_string@_WU?$char_traits@_W@std@@V?$allocator@_W@2@@std@@V12@@std@@@2@$0A@@std@@@std@@IEAA?AU?$pair@V?$_Tree_iterator@V?$_Tree_val@U?$_Tree_simple_types@U?$pair@$$CBV?$basic_string@_WU?$char_traits@_W@std@@V?$allocator@_W@2@@std@@V12@@std@@@std@@@std@@@std@@_N@1@_N$$QEAU?$pair@$$CBV?$basic_string@_WU?$char_traits@_W@std@@V?$allocator@_W@2@@std@@V12@@1@U_Not_a_node_tag@1@@Z 0000000180006380 f i GenericPlatform.obj
 0001:00005660       ??$_Insert_string@_WU?$char_traits@_W@std@@_K@std@@YAAEAV?$basic_ostream@_WU?$char_traits@_W@std@@@0@AEAV10@QEB_W_K@Z 0000000180006660 f i GenericPlatform.obj
 0001:00005850       ??$_Reallocate_grow_by@V<lambda_319d5e083f45f90dcdce5dce53cbb275>@@D@?$basic_string@DU?$char_traits@D@std@@V?$allocator@D@2@@std@@QEAAAEAV01@_KV<lambda_319d5e083f45f90dcdce5dce53cbb275>@@D@Z 0000000180006850 f i GenericPlatform.obj
 0001:000059b0       ??$_Reallocate_grow_by@V<lambda_967c2ed818824c5314a20ec3af46b793>@@_KPEB_W_K@?$basic_string@_WU?$char_traits@_W@std@@V?$allocator@_W@2@@std@@QEAAAEAV01@_KV<lambda_967c2ed818824c5314a20ec3af46b793>@@_KPEB_W2@Z 00000001800069b0 f i GenericPlatform.obj
 0001:00005b30       ??$endl@_WU?$char_traits@_W@std@@@std@@YAAEAV?$basic_ostream@_WU?$char_traits@_W@std@@@0@AEAV10@@Z 0000000180006b30 f i GenericPlatform.obj
 0001:00005b70       ??$getline@_WU?$char_traits@_W@std@@V?$allocator@_W@2@@std@@YAAEAV?$basic_istream@_WU?$char_traits@_W@std@@@0@$$QEAV10@AEAV?$basic_string@_WU?$char_traits@_W@std@@V?$allocator@_W@2@@0@_W@Z 0000000180006b70 f i GenericPlatform.obj
 0001:00005d00       ??$use_facet@V?$codecvt@_WDU_Mbstatet@@@std@@@std@@YAAEBV?$codecvt@_WDU_Mbstatet@@@0@AEBVlocale@0@@Z 0000000180006d00 f i GenericPlatform.obj
 0001:00005df0       ??0?$basic_string@_WU?$char_traits@_W@std@@V?$allocator@_W@2@@std@@QEAA@QEB_W@Z 0000000180006df0 f i GenericPlatform.obj
 0001:00005e30       ??0GenericPlatform@@QEAA@XZ 0000000180006e30 f   GenericPlatform.obj
 0001:00005e60       ??0bad_cast@std@@QEAA@AEBV01@@Z 0000000180006e60 f i GenericPlatform.obj
 0001:00005ea0       ??0bad_cast@std@@QEAA@XZ   0000000180006ea0 f i GenericPlatform.obj
 0001:00005ed0       ??0exception@std@@QEAA@AEBV01@@Z 0000000180006ed0 f i GenericPlatform.obj
 0001:00005f10       ??1?$basic_filebuf@_WU?$char_traits@_W@std@@@std@@UEAA@XZ 0000000180006f10 f i GenericPlatform.obj
 0001:00005fd0       ??1?$map@V?$basic_string@_WU?$char_traits@_W@std@@V?$allocator@_W@2@@std@@V12@U?$less@V?$basic_string@_WU?$char_traits@_W@std@@V?$allocator@_W@2@@std@@@2@V?$allocator@U?$pair@$$CBV?$basic_string@_WU?$char_traits@_W@std@@V?$allocator@_W@2@@std@@V12@@std@@@2@@std@@QEAA@XZ 0000000180006fd0 f i GenericPlatform.obj
 0001:00006030       ??1JavaOptionItem@@QEAA@XZ 0000000180007030 f i JavaVirtualMachine.obj
 0001:00006030       ??1?$pair@$$CBV?$basic_string@_WU?$char_traits@_W@std@@V?$allocator@_W@2@@std@@V12@@std@@QEAA@XZ 0000000180007030 f i GenericPlatform.obj
 0001:00006050       ??1?$AutoFreePtr@VISectionalPropertyContainer@@@@QEAA@XZ 0000000180007050 f i Package.obj
 0001:00006050       ??1?$AutoFreePtr@VProcess@@@@QEAA@XZ 0000000180007050 f i main.obj
 0001:00006050       ??1?$unique_ptr@V_Facet_base@std@@U?$default_delete@V_Facet_base@std@@@2@@std@@QEAA@XZ 0000000180007050 f i GenericPlatform.obj
 0001:00006050       ??1?$AutoFreePtr@VJavaUserPreferences@@@@QEAA@XZ 0000000180007050 f i Package.obj
 0001:00006070       ??1GenericPlatform@@UEAA@XZ 0000000180007070 f   GenericPlatform.obj
 0001:000060a0       ??1_Sentry_base@?$basic_ostream@_WU?$char_traits@_W@std@@@std@@QEAA@XZ 00000001800070a0 f i GenericPlatform.obj
 0001:000060a0       ??1_Sentry_base@?$basic_istream@_WU?$char_traits@_W@std@@@std@@QEAA@XZ 00000001800070a0 f i GenericPlatform.obj
 0001:000060d0       ??1exception@std@@UEAA@XZ  00000001800070d0 f i GenericPlatform.obj
 0001:000060d0       ??1bad_alloc@std@@UEAA@XZ  00000001800070d0 f i MSVCRT:throw_bad_alloc.obj
 0001:000060d0       ??1invalid_argument@std@@UEAA@XZ 00000001800070d0 f i Package.obj
 0001:000060d0       ??1bad_array_new_length@std@@UEAA@XZ 00000001800070d0 f i MSVCRT:throw_bad_alloc.obj
 0001:000060d0       ??1bad_cast@std@@UEAA@XZ   00000001800070d0 f i GenericPlatform.obj
 0001:000060f0       ??1locale@std@@QEAA@XZ     00000001800070f0 f i GenericPlatform.obj
 0001:00006130       ??1sentry@?$basic_istream@_WU?$char_traits@_W@std@@@std@@QEAA@XZ 0000000180007130 f i GenericPlatform.obj
 0001:00006160       ??1sentry@?$basic_ostream@_WU?$char_traits@_W@std@@@std@@QEAA@XZ 0000000180007160 f i GenericPlatform.obj
 0001:000061b0       ??_D?$basic_ifstream@_WU?$char_traits@_W@std@@@std@@QEAAXXZ 00000001800071b0 f i GenericPlatform.obj
 0001:00006220       ??_D?$basic_ofstream@_WU?$char_traits@_W@std@@@std@@QEAAXXZ 0000000180007220 f i GenericPlatform.obj
 0001:00006288       ??_E?$basic_ifstream@_WU?$char_traits@_W@std@@@std@@$4PPPPPPPM@A@EAAPEAXI@Z 0000000180007288 f i GenericPlatform.obj
 0001:00006294       ??_E?$basic_ofstream@_WU?$char_traits@_W@std@@@std@@$4PPPPPPPM@A@EAAPEAXI@Z 0000000180007294 f i GenericPlatform.obj
 0001:000062a0       ??_EGenericPlatform@@$4PPPPPPPM@A@EAAPEAXI@Z 00000001800072a0 f i GenericPlatform.obj
 0001:000062b0       ??_G?$basic_filebuf@_WU?$char_traits@_W@std@@@std@@UEAAPEAXI@Z 00000001800072b0 f i GenericPlatform.obj
 0001:000062b0       ??_E?$basic_filebuf@_WU?$char_traits@_W@std@@@std@@UEAAPEAXI@Z 00000001800072b0 f i GenericPlatform.obj
 0001:000062f0       ??_E?$basic_ifstream@_WU?$char_traits@_W@std@@@std@@UEAAPEAXI@Z 00000001800072f0 f i GenericPlatform.obj
 0001:000062f0       ??_G?$basic_ifstream@_WU?$char_traits@_W@std@@@std@@UEAAPEAXI@Z 00000001800072f0 f i GenericPlatform.obj
 0001:00006330       ??_G?$basic_ofstream@_WU?$char_traits@_W@std@@@std@@UEAAPEAXI@Z 0000000180007330 f i GenericPlatform.obj
 0001:00006330       ??_E?$basic_ofstream@_WU?$char_traits@_W@std@@@std@@UEAAPEAXI@Z 0000000180007330 f i GenericPlatform.obj
 0001:00006370       ??_G?$codecvt_utf8@_W$0BAPPPP@$0A@@std@@UEAAPEAXI@Z 0000000180007370 f i GenericPlatform.obj
 0001:00006370       ??_E?$codecvt_utf8@_W$0BAPPPP@$0A@@std@@UEAAPEAXI@Z 0000000180007370 f i GenericPlatform.obj
 0001:000063b0       ??_EGenericPlatform@@UEAAPEAXI@Z 00000001800073b0 f i GenericPlatform.obj
 0001:000063b0       ??_GGenericPlatform@@UEAAPEAXI@Z 00000001800073b0 f i GenericPlatform.obj
 0001:00006400       ??_Eexception@std@@UEAAPEAXI@Z 0000000180007400 f i GenericPlatform.obj
 0001:00006400       ??_Ebad_alloc@std@@UEAAPEAXI@Z 0000000180007400 f i MSVCRT:throw_bad_alloc.obj
 0001:00006400       ??_Einvalid_argument@std@@UEAAPEAXI@Z 0000000180007400 f i Package.obj
 0001:00006400       ??_Gbad_alloc@std@@UEAAPEAXI@Z 0000000180007400 f i MSVCRT:throw_bad_alloc.obj
 0001:00006400       ??_Glogic_error@std@@UEAAPEAXI@Z 0000000180007400 f i Package.obj
 0001:00006400       ??_Ebad_array_new_length@std@@UEAAPEAXI@Z 0000000180007400 f i MSVCRT:throw_bad_alloc.obj
 0001:00006400       ??_Elogic_error@std@@UEAAPEAXI@Z 0000000180007400 f i Package.obj
 0001:00006400       ??_Ebad_cast@std@@UEAAPEAXI@Z 0000000180007400 f i GenericPlatform.obj
 0001:00006400       ??_Ginvalid_argument@std@@UEAAPEAXI@Z 0000000180007400 f i Package.obj
 0001:00006400       ??_Gbad_array_new_length@std@@UEAAPEAXI@Z 0000000180007400 f i MSVCRT:throw_bad_alloc.obj
 0001:00006400       ??_Gbad_cast@std@@UEAAPEAXI@Z 0000000180007400 f i GenericPlatform.obj
 0001:00006400       ??_Gexception@std@@UEAAPEAXI@Z 0000000180007400 f i GenericPlatform.obj
 0001:00006444       ?GetAppName@GenericPlatform@@$4PPPPPPPM@A@EAA?AV?$basic_string@_WU?$char_traits@_W@std@@V?$allocator@_W@2@@std@@XZ 0000000180007444 f i GenericPlatform.obj
 0001:00006450       ?GetAppName@GenericPlatform@@UEAA?AV?$basic_string@_WU?$char_traits@_W@std@@V?$allocator@_W@2@@std@@XZ 0000000180007450 f   GenericPlatform.obj
 0001:0000663c       ?GetConfigFileName@GenericPlatform@@$4PPPPPPPM@A@EAA?AV?$basic_string@_WU?$char_traits@_W@std@@V?$allocator@_W@2@@std@@XZ 000000018000763c f i GenericPlatform.obj
 0001:00006650       ?GetConfigFileName@GenericPlatform@@UEAA?AV?$basic_string@_WU?$char_traits@_W@std@@V?$allocator@_W@2@@std@@XZ 0000000180007650 f   GenericPlatform.obj
 0001:00006c38       ?GetKeys@GenericPlatform@@$4PPPPPPPM@A@EAA?AV?$map@V?$basic_string@_WU?$char_traits@_W@std@@V?$allocator@_W@2@@std@@V12@U?$less@V?$basic_string@_WU?$char_traits@_W@std@@V?$allocator@_W@2@@std@@@2@V?$allocator@U?$pair@$$CBV?$basic_string@_WU?$char_traits@_W@std@@V?$allocator@_W@2@@std@@V12@@std@@@2@@std@@XZ 0000000180007c38 f i GenericPlatform.obj
 0001:00006c50       ?GetKeys@GenericPlatform@@UEAA?AV?$map@V?$basic_string@_WU?$char_traits@_W@std@@V?$allocator@_W@2@@std@@V12@U?$less@V?$basic_string@_WU?$char_traits@_W@std@@V?$allocator@_W@2@@std@@@2@V?$allocator@U?$pair@$$CBV?$basic_string@_WU?$char_traits@_W@std@@V?$allocator@_W@2@@std@@V12@@std@@@2@@std@@XZ 0000000180007c50 f   GenericPlatform.obj
 0001:000074e4       ?GetPackageAppDirectory@GenericPlatform@@$4PPPPPPPM@A@EAA?AV?$basic_string@_WU?$char_traits@_W@std@@V?$allocator@_W@2@@std@@XZ 00000001800084e4 f i GenericPlatform.obj
 0001:000074f0       ?GetPackageAppDirectory@GenericPlatform@@UEAA?AV?$basic_string@_WU?$char_traits@_W@std@@V?$allocator@_W@2@@std@@XZ 00000001800084f0 f   GenericPlatform.obj
 0001:000075e0       ?GetPackageLauncherDirectory@GenericPlatform@@$4PPPPPPPM@A@EAA?AV?$basic_string@_WU?$char_traits@_W@std@@V?$allocator@_W@2@@std@@XZ 00000001800085e0 f i GenericPlatform.obj
 0001:000075f0       ?GetPackageLauncherDirectory@GenericPlatform@@UEAA?AV?$basic_string@_WU?$char_traits@_W@std@@V?$allocator@_W@2@@std@@XZ 00000001800085f0 f   GenericPlatform.obj
 0001:0000761c       ?LoadFromFile@GenericPlatform@@$4PPPPPPPM@A@EAA?AV?$list@V?$basic_string@_WU?$char_traits@_W@std@@V?$allocator@_W@2@@std@@V?$allocator@V?$basic_string@_WU?$char_traits@_W@std@@V?$allocator@_W@2@@std@@@2@@std@@V?$basic_string@_WU?$char_traits@_W@std@@V?$allocator@_W@2@@3@@Z 000000018000861c f i GenericPlatform.obj
 0001:00007630       ?LoadFromFile@GenericPlatform@@UEAA?AV?$list@V?$basic_string@_WU?$char_traits@_W@std@@V?$allocator@_W@2@@std@@V?$allocator@V?$basic_string@_WU?$char_traits@_W@std@@V?$allocator@_W@2@@std@@@2@@std@@V?$basic_string@_WU?$char_traits@_W@std@@V?$allocator@_W@2@@3@@Z 0000000180008630 f   GenericPlatform.obj
 0001:00007b28       ?SaveToFile@GenericPlatform@@$4PPPPPPPM@A@EAAXV?$basic_string@_WU?$char_traits@_W@std@@V?$allocator@_W@2@@std@@V?$list@V?$basic_string@_WU?$char_traits@_W@std@@V?$allocator@_W@2@@std@@V?$allocator@V?$basic_string@_WU?$char_traits@_W@std@@V?$allocator@_W@2@@std@@@2@@3@_N@Z 0000000180008b28 f i GenericPlatform.obj
 0001:00007b40       ?SaveToFile@GenericPlatform@@UEAAXV?$basic_string@_WU?$char_traits@_W@std@@V?$allocator@_W@2@@std@@V?$list@V?$basic_string@_WU?$char_traits@_W@std@@V?$allocator@_W@2@@std@@V?$allocator@V?$basic_string@_WU?$char_traits@_W@std@@V?$allocator@_W@2@@std@@@2@@3@_N@Z 0000000180008b40 f   GenericPlatform.obj
 0001:00008230       ?_Buyheadnode@?$_Tree_comp_alloc@V?$_Tmap_traits@V?$basic_string@_WU?$char_traits@_W@std@@V?$allocator@_W@2@@std@@V12@U?$less@V?$basic_string@_WU?$char_traits@_W@std@@V?$allocator@_W@2@@std@@@2@V?$allocator@U?$pair@$$CBV?$basic_string@_WU?$char_traits@_W@std@@V?$allocator@_W@2@@std@@V12@@std@@@2@$0A@@std@@@std@@QEAAPEAU?$_Tree_node@U?$pair@$$CBV?$basic_string@_WU?$char_traits@_W@std@@V?$allocator@_W@2@@std@@V12@@std@@PEAX@2@XZ 0000000180009230 f i GenericPlatform.obj
 0001:00008270       ?_Buynode0@?$_Tree_comp_alloc@V?$_Tmap_traits@V?$basic_string@_WU?$char_traits@_W@std@@V?$allocator@_W@2@@std@@V12@U?$less@V?$basic_string@_WU?$char_traits@_W@std@@V?$allocator@_W@2@@std@@@2@V?$allocator@U?$pair@$$CBV?$basic_string@_WU?$char_traits@_W@std@@V?$allocator@_W@2@@std@@V12@@std@@@2@$0A@@std@@@std@@QEAAPEAU?$_Tree_node@U?$pair@$$CBV?$basic_string@_WU?$char_traits@_W@std@@V?$allocator@_W@2@@std@@V12@@std@@PEAX@2@XZ 0000000180009270 f i GenericPlatform.obj
 0001:000082b0       ?_Endwrite@?$basic_filebuf@_WU?$char_traits@_W@std@@@std@@IEAA_NXZ 00000001800092b0 f i GenericPlatform.obj
 0001:00008380       ?_Erase@?$_Tree@V?$_Tmap_traits@V?$basic_string@_WU?$char_traits@_W@std@@V?$allocator@_W@2@@std@@V12@U?$less@V?$basic_string@_WU?$char_traits@_W@std@@V?$allocator@_W@2@@std@@@2@V?$allocator@U?$pair@$$CBV?$basic_string@_WU?$char_traits@_W@std@@V?$allocator@_W@2@@std@@V12@@std@@@2@$0A@@std@@@std@@IEAAXPEAU?$_Tree_node@U?$pair@$$CBV?$basic_string@_WU?$char_traits@_W@std@@V?$allocator@_W@2@@std@@V12@@std@@PEAX@2@@Z 0000000180009380 f i GenericPlatform.obj
 0001:000083f0       ?_Freenode0@?$_Tree_comp_alloc@V?$_Tmap_traits@V?$basic_string@_WU?$char_traits@_W@std@@V?$allocator@_W@2@@std@@V12@U?$less@V?$basic_string@_WU?$char_traits@_W@std@@V?$allocator@_W@2@@std@@@2@V?$allocator@U?$pair@$$CBV?$basic_string@_WU?$char_traits@_W@std@@V?$allocator@_W@2@@std@@V12@@std@@@2@$0A@@std@@@std@@QEAAXPEAU?$_Tree_node@U?$pair@$$CBV?$basic_string@_WU?$char_traits@_W@std@@V?$allocator@_W@2@@std@@V12@@std@@PEAX@2@@Z 00000001800093f0 f i GenericPlatform.obj
 0001:00008400       ?_Lock@?$basic_filebuf@_WU?$char_traits@_W@std@@@std@@UEAAXXZ 0000000180009400 f i GenericPlatform.obj
 0001:00008420       ?_Reset_back@?$basic_filebuf@_WU?$char_traits@_W@std@@@std@@AEAAXXZ 0000000180009420 f i GenericPlatform.obj
 0001:00008460       ?_Unlock@?$basic_filebuf@_WU?$char_traits@_W@std@@@std@@UEAAXXZ 0000000180009460 f i GenericPlatform.obj
 0001:00008480       ?deallocate@?$allocator@U?$_Tree_node@U?$pair@$$CBV?$basic_string@_WU?$char_traits@_W@std@@V?$allocator@_W@2@@std@@V12@@std@@PEAX@std@@@std@@QEAAXQEAU?$_Tree_node@U?$pair@$$CBV?$basic_string@_WU?$char_traits@_W@std@@V?$allocator@_W@2@@std@@V12@@std@@PEAX@2@_K@Z 0000000180009480 f i GenericPlatform.obj
 0001:000084d0       ?do_always_noconv@?$codecvt_utf8@_W$0BAPPPP@$0A@@std@@MEBA_NXZ 00000001800094d0 f i GenericPlatform.obj
 0001:000084e0       ?ConvertFileSystemStringToString@WindowsPlatform@@UEAAPEA_WPEA_WAEA_N@Z 00000001800094e0 f i WindowsPlatform.obj
 0001:000084e0       _is_c_termination_complete 00000001800094e0 f i MSVCRT:ucrt_stubs.obj
 0001:000084e0       ?ConvertStringToFileSystemString@WindowsPlatform@@UEAAPEA_WPEA_WAEA_N@Z 00000001800094e0 f i WindowsPlatform.obj
 0001:000084e0       ?do_encoding@?$codecvt_utf8@_W$0BAPPPP@$0A@@std@@MEBAHXZ 00000001800094e0 f i GenericPlatform.obj
 0001:000084e0       __scrt_stub_for_is_c_termination_complete 00000001800094e0 f i MSVCRT:ucrt_stubs.obj
 0001:000084f0       ?do_in@?$codecvt_utf8@_W$0BAPPPP@$0A@@std@@MEBAHAEAU_Mbstatet@@PEBD1AEAPEBDPEA_W3AEAPEA_W@Z 00000001800094f0 f i GenericPlatform.obj
 0001:00008650       ?do_length@?$codecvt_utf8@_W$0BAPPPP@$0A@@std@@MEBAHAEAU_Mbstatet@@PEBD1_K@Z 0000000180009650 f i GenericPlatform.obj
 0001:00008720       ?do_max_length@?$codecvt_utf8@_W$0BAPPPP@$0A@@std@@MEBAHXZ 0000000180009720 f i GenericPlatform.obj
 0001:00008730       ?do_out@?$codecvt_utf8@_W$0BAPPPP@$0A@@std@@MEBAHAEAU_Mbstatet@@PEB_W1AEAPEB_WPEAD3AEAPEAD@Z 0000000180009730 f i GenericPlatform.obj
 0001:00008860       ?do_unshift@?$codecvt_utf8@_W$0BAPPPP@$0A@@std@@MEBAHAEAU_Mbstatet@@PEAD1AEAPEAD@Z 0000000180009860 f i GenericPlatform.obj
 0001:00008870       ?imbue@?$basic_filebuf@_WU?$char_traits@_W@std@@@std@@MEAAXAEBVlocale@2@@Z 0000000180009870 f i GenericPlatform.obj
 0001:000088c0       ?insert@?$basic_string@_WU?$char_traits@_W@std@@V?$allocator@_W@2@@std@@QEAAAEAV12@_KAEBV12@@Z 00000001800098c0 f i GenericPlatform.obj
 0001:000089e0       ?insert@?$basic_string@_WU?$char_traits@_W@std@@V?$allocator@_W@2@@std@@QEAAAEAV12@_KQEB_W0@Z 00000001800099e0 f i GenericPlatform.obj
 0001:00008af0       ?open@?$basic_filebuf@_WU?$char_traits@_W@std@@@std@@QEAAPEAV12@PEB_WHH@Z 0000000180009af0 f i GenericPlatform.obj
 0001:00008be0       ?overflow@?$basic_filebuf@_WU?$char_traits@_W@std@@@std@@MEAAGG@Z 0000000180009be0 f i GenericPlatform.obj
 0001:00008d80       ?pbackfail@?$basic_filebuf@_WU?$char_traits@_W@std@@@std@@MEAAGG@Z 0000000180009d80 f i GenericPlatform.obj
 0001:00008e90       ?reserve@?$basic_string@_WU?$char_traits@_W@std@@V?$allocator@_W@2@@std@@QEAAX_K@Z 0000000180009e90 f i GenericPlatform.obj
 0001:00009020       ?seekoff@?$basic_filebuf@_WU?$char_traits@_W@std@@@std@@MEAA?AV?$fpos@U_Mbstatet@@@2@_JHH@Z 000000018000a020 f i GenericPlatform.obj
 0001:000090f0       ?seekpos@?$basic_filebuf@_WU?$char_traits@_W@std@@@std@@MEAA?AV?$fpos@U_Mbstatet@@@2@V32@H@Z 000000018000a0f0 f i GenericPlatform.obj
 0001:000091d0       ?setbuf@?$basic_filebuf@_WU?$char_traits@_W@std@@@std@@MEAAPEAV?$basic_streambuf@_WU?$char_traits@_W@std@@@2@PEA_W_J@Z 000000018000a1d0 f i GenericPlatform.obj
 0001:00009260       ?sync@?$basic_filebuf@_WU?$char_traits@_W@std@@@std@@MEAAHXZ 000000018000a260 f i GenericPlatform.obj
 0001:000092c0       ?uflow@?$basic_filebuf@_WU?$char_traits@_W@std@@@std@@MEAAGXZ 000000018000a2c0 f i GenericPlatform.obj
 0001:000095b0       ?underflow@?$basic_filebuf@_WU?$char_traits@_W@std@@@std@@MEAAGXZ 000000018000a5b0 f i GenericPlatform.obj
 0001:00009620       ?what@exception@std@@UEBAPEBDXZ 000000018000a620 f i GenericPlatform.obj
 0001:00009640       ?xsgetn@?$basic_filebuf@_WU?$char_traits@_W@std@@@std@@MEAA_JPEA_W_J@Z 000000018000a640 f i GenericPlatform.obj
 0001:00009650       ?xsputn@?$basic_filebuf@_WU?$char_traits@_W@std@@@std@@MEAA_JPEB_W_J@Z 000000018000a650 f i GenericPlatform.obj
 0001:00009660       ??$?H_WU?$char_traits@_W@std@@V?$allocator@_W@1@@std@@YA?AV?$basic_string@_WU?$char_traits@_W@std@@V?$allocator@_W@2@@0@$$QEAV10@0@Z 000000018000a660 f i Helpers.obj
 0001:000096f0       ??$_Buynode@AEBUpiecewise_construct_t@std@@V?$tuple@$$QEAV?$basic_string@_WU?$char_traits@_W@std@@V?$allocator@_W@2@@std@@@2@V?$tuple@$$V@2@@?$_Tree_comp_alloc@V?$_Tmap_traits@V?$basic_string@_WU?$char_traits@_W@std@@V?$allocator@_W@2@@std@@V12@U?$less@V?$basic_string@_WU?$char_traits@_W@std@@V?$allocator@_W@2@@std@@@2@V?$allocator@U?$pair@$$CBV?$basic_string@_WU?$char_traits@_W@std@@V?$allocator@_W@2@@std@@V12@@std@@@2@$0A@@std@@@std@@QEAAPEAU?$_Tree_node@U?$pair@$$CBV?$basic_string@_WU?$char_traits@_W@std@@V?$allocator@_W@2@@std@@V12@@std@@PEAX@1@AEBUpiecewise_construct_t@1@$$QEAV?$tuple@$$QEAV?$basic_string@_WU?$char_traits@_W@std@@V?$allocator@_W@2@@std@@@1@$$QEAV?$tuple@$$V@1@@Z 000000018000a6f0 f i Helpers.obj
 0001:00009760       ??$_Insert_at@AEAU?$pair@$$CBV?$basic_string@_WU?$char_traits@_W@std@@V?$allocator@_W@2@@std@@V12@@std@@PEAU?$_Tree_node@U?$pair@$$CBV?$basic_string@_WU?$char_traits@_W@std@@V?$allocator@_W@2@@std@@V12@@std@@PEAX@2@@?$_Tree@V?$_Tmap_traits@V?$basic_string@_WU?$char_traits@_W@std@@V?$allocator@_W@2@@std@@V12@U?$less@V?$basic_string@_WU?$char_traits@_W@std@@V?$allocator@_W@2@@std@@@2@V?$allocator@U?$pair@$$CBV?$basic_string@_WU?$char_traits@_W@std@@V?$allocator@_W@2@@std@@V12@@std@@@2@$0A@@std@@@std@@IEAA?AV?$_Tree_iterator@V?$_Tree_val@U?$_Tree_simple_types@U?$pair@$$CBV?$basic_string@_WU?$char_traits@_W@std@@V?$allocator@_W@2@@std@@V12@@std@@@std@@@std@@@1@_NPEAU?$_Tree_node@U?$pair@$$CBV?$basic_string@_WU?$char_traits@_W@std@@V?$allocator@_W@2@@std@@V12@@std@@PEAX@1@AEAU?$pair@$$CBV?$basic_string@_WU?$char_traits@_W@std@@V?$allocator@_W@2@@std@@V12@@1@1@Z 000000018000a760 f i Helpers.obj
 0001:000099e0       ??$_Insert_hint@AEAU?$pair@$$CBV?$basic_string@_WU?$char_traits@_W@std@@V?$allocator@_W@2@@std@@V12@@std@@PEAU?$_Tree_node@U?$pair@$$CBV?$basic_string@_WU?$char_traits@_W@std@@V?$allocator@_W@2@@std@@V12@@std@@PEAX@2@@?$_Tree@V?$_Tmap_traits@V?$basic_string@_WU?$char_traits@_W@std@@V?$allocator@_W@2@@std@@V12@U?$less@V?$basic_string@_WU?$char_traits@_W@std@@V?$allocator@_W@2@@std@@@2@V?$allocator@U?$pair@$$CBV?$basic_string@_WU?$char_traits@_W@std@@V?$allocator@_W@2@@std@@V12@@std@@@2@$0A@@std@@@std@@IEAA?AV?$_Tree_iterator@V?$_Tree_val@U?$_Tree_simple_types@U?$pair@$$CBV?$basic_string@_WU?$char_traits@_W@std@@V?$allocator@_W@2@@std@@V12@@std@@@std@@@std@@@1@V?$_Tree_const_iterator@V?$_Tree_val@U?$_Tree_simple_types@U?$pair@$$CBV?$basic_string@_WU?$char_traits@_W@std@@V?$allocator@_W@2@@std@@V12@@std@@@std@@@std@@@1@AEAU?$pair@$$CBV?$basic_string@_WU?$char_traits@_W@std@@V?$allocator@_W@2@@std@@V12@@1@PEAU?$_Tree_node@U?$pair@$$CBV?$basic_string@_WU?$char_traits@_W@std@@V?$allocator@_W@2@@std@@V12@@std@@PEAX@1@@Z 000000018000a9e0 f i Helpers.obj
 0001:00009c20       ??$_Insert_nohint@AEAU?$pair@$$CBV?$basic_string@_WU?$char_traits@_W@std@@V?$allocator@_W@2@@std@@V12@@std@@PEAU?$_Tree_node@U?$pair@$$CBV?$basic_string@_WU?$char_traits@_W@std@@V?$allocator@_W@2@@std@@V12@@std@@PEAX@2@@?$_Tree@V?$_Tmap_traits@V?$basic_string@_WU?$char_traits@_W@std@@V?$allocator@_W@2@@std@@V12@U?$less@V?$basic_string@_WU?$char_traits@_W@std@@V?$allocator@_W@2@@std@@@2@V?$allocator@U?$pair@$$CBV?$basic_string@_WU?$char_traits@_W@std@@V?$allocator@_W@2@@std@@V12@@std@@@2@$0A@@std@@@std@@IEAA?AU?$pair@V?$_Tree_iterator@V?$_Tree_val@U?$_Tree_simple_types@U?$pair@$$CBV?$basic_string@_WU?$char_traits@_W@std@@V?$allocator@_W@2@@std@@V12@@std@@@std@@@std@@@std@@_N@1@_NAEAU?$pair@$$CBV?$basic_string@_WU?$char_traits@_W@std@@V?$allocator@_W@2@@std@@V12@@1@PEAU?$_Tree_node@U?$pair@$$CBV?$basic_string@_WU?$char_traits@_W@std@@V?$allocator@_W@2@@std@@V12@@std@@PEAX@1@@Z 000000018000ac20 f i Helpers.obj
 0001:00009f20       ??$_Reallocate_grow_by@V<lambda_07b002202a580d07f308bf60d51244b2>@@_K_KPEB_W_K@?$basic_string@_WU?$char_traits@_W@std@@V?$allocator@_W@2@@std@@QEAAAEAV01@_KV<lambda_07b002202a580d07f308bf60d51244b2>@@_K2PEB_W2@Z 000000018000af20 f i Helpers.obj
 0001:0000a0b0       ??A?$map@V?$basic_string@_WU?$char_traits@_W@std@@V?$allocator@_W@2@@std@@V12@U?$less@V?$basic_string@_WU?$char_traits@_W@std@@V?$allocator@_W@2@@std@@@2@V?$allocator@U?$pair@$$CBV?$basic_string@_WU?$char_traits@_W@std@@V?$allocator@_W@2@@std@@V12@@std@@@2@@std@@QEAAAEAV?$basic_string@_WU?$char_traits@_W@std@@V?$allocator@_W@2@@1@$$QEAV21@@Z 000000018000b0b0 f i Helpers.obj
 0001:0000a170       ?AppendToIni@@YAXAEAVPropertyFile@@PEAVIniFile@@V?$basic_string@_WU?$char_traits@_W@std@@V?$allocator@_W@2@@std@@@Z 000000018000b170 f   Helpers.obj
 0001:0000a4d0       ?ConvertIdToFilePath@Helpers@@SA?AV?$basic_string@_WU?$char_traits@_W@std@@V?$allocator@_W@2@@std@@V23@@Z 000000018000b4d0 f   Helpers.obj
 0001:0000a620       ?ConvertIdToJavaPath@Helpers@@SA?AV?$basic_string@_WU?$char_traits@_W@std@@V?$allocator@_W@2@@std@@V23@@Z 000000018000b620 f   Helpers.obj
 0001:0000a820       ?GetArgsFromConfig@Helpers@@SA?AV?$list@V?$basic_string@_WU?$char_traits@_W@std@@V?$allocator@_W@2@@std@@V?$allocator@V?$basic_string@_WU?$char_traits@_W@std@@V?$allocator@_W@2@@std@@@2@@std@@PEAVIPropertyContainer@@@Z 000000018000b820 f   Helpers.obj
 0001:0000aca0       ?GetJVMArgsFromConfig@Helpers@@SA?AV?$OrderedMap@V?$basic_string@_WU?$char_traits@_W@std@@V?$allocator@_W@2@@std@@V12@@@PEAVIPropertyContainer@@@Z 000000018000bca0 f   Helpers.obj
 0001:0000b490       ?GetJVMUserArgsFromConfig@Helpers@@SA?AV?$OrderedMap@V?$basic_string@_WU?$char_traits@_W@std@@V?$allocator@_W@2@@std@@V12@@@PEAVIPropertyContainer@@@Z 000000018000c490 f   Helpers.obj
 0001:0000bbd0       ?LoadOldConfigFile@Helpers@@SAXV?$basic_string@_WU?$char_traits@_W@std@@V?$allocator@_W@2@@std@@PEAVIniFile@@@Z 000000018000cbd0 f   Helpers.obj
 0001:0000cbd0       ?MapToNameValueList@Helpers@@SA?AV?$list@V?$basic_string@_WU?$char_traits@_W@std@@V?$allocator@_W@2@@std@@V?$allocator@V?$basic_string@_WU?$char_traits@_W@std@@V?$allocator@_W@2@@std@@@2@@std@@V?$OrderedMap@V?$basic_string@_WU?$char_traits@_W@std@@V?$allocator@_W@2@@std@@V12@@@@Z 000000018000dbd0 f   Helpers.obj
 0001:0000d080       ?NameValueToString@Helpers@@SA?AV?$basic_string@_WU?$char_traits@_W@std@@V?$allocator@_W@2@@std@@V23@0@Z 000000018000e080 f   Helpers.obj
 0001:0000d2e0       ?ReplaceString@Helpers@@SA?AV?$basic_string@_WU?$char_traits@_W@std@@V?$allocator@_W@2@@std@@V23@AEBV23@1@Z 000000018000e2e0 f   Helpers.obj
 0001:0000d450       ?SplitOptionIntoNameValue@Helpers@@SA_NV?$basic_string@_WU?$char_traits@_W@std@@V?$allocator@_W@2@@std@@AEAV23@1@Z 000000018000e450 f   Helpers.obj
 0001:0000d780       ?_Destroy_if_node@?$_Tree@V?$_Tmap_traits@V?$basic_string@_WU?$char_traits@_W@std@@V?$allocator@_W@2@@std@@V12@U?$less@V?$basic_string@_WU?$char_traits@_W@std@@V?$allocator@_W@2@@std@@@2@V?$allocator@U?$pair@$$CBV?$basic_string@_WU?$char_traits@_W@std@@V?$allocator@_W@2@@std@@V12@@std@@@2@$0A@@std@@@std@@IEAAXPEAU?$_Tree_node@U?$pair@$$CBV?$basic_string@_WU?$char_traits@_W@std@@V?$allocator@_W@2@@std@@V12@@std@@PEAX@2@@Z 000000018000e780 f i Helpers.obj
 0001:0000d7c0       ?replace@?$basic_string@_WU?$char_traits@_W@std@@V?$allocator@_W@2@@std@@QEAAAEAV12@_K_KQEB_W0@Z 000000018000e7c0 f i Helpers.obj
 0001:0000d990       ??$_Insert_range@V?$_List_const_iterator@V?$_List_val@U?$_List_simple_types@V?$basic_string@_WU?$char_traits@_W@std@@V?$allocator@_W@2@@std@@@std@@@std@@@std@@@?$list@V?$basic_string@_WU?$char_traits@_W@std@@V?$allocator@_W@2@@std@@V?$allocator@V?$basic_string@_WU?$char_traits@_W@std@@V?$allocator@_W@2@@std@@@2@@std@@QEAAXV?$_List_unchecked_const_iterator@V?$_List_val@U?$_List_simple_types@V?$basic_string@_WU?$char_traits@_W@std@@V?$allocator@_W@2@@std@@@std@@@std@@U_Iterator_base0@2@@1@V?$_List_const_iterator@V?$_List_val@U?$_List_simple_types@V?$basic_string@_WU?$char_traits@_W@std@@V?$allocator@_W@2@@std@@@std@@@std@@@1@1Uforward_iterator_tag@1@@Z 000000018000e990 f i IniFile.obj
 0001:0000d990       ??$_Insert_range@V?$_List_iterator@V?$_List_val@U?$_List_simple_types@V?$basic_string@_WU?$char_traits@_W@std@@V?$allocator@_W@2@@std@@@std@@@std@@@std@@@?$list@V?$basic_string@_WU?$char_traits@_W@std@@V?$allocator@_W@2@@std@@V?$allocator@V?$basic_string@_WU?$char_traits@_W@std@@V?$allocator@_W@2@@std@@@2@@std@@QEAAXV?$_List_unchecked_const_iterator@V?$_List_val@U?$_List_simple_types@V?$basic_string@_WU?$char_traits@_W@std@@V?$allocator@_W@2@@std@@@std@@@std@@U_Iterator_base0@2@@1@V?$_List_iterator@V?$_List_val@U?$_List_simple_types@V?$basic_string@_WU?$char_traits@_W@std@@V?$allocator@_W@2@@std@@@std@@@std@@@1@1Uforward_iterator_tag@1@@Z 000000018000e990 f i IniFile.obj
 0001:0000da40       ??0?$list@V?$basic_string@_WU?$char_traits@_W@std@@V?$allocator@_W@2@@std@@V?$allocator@V?$basic_string@_WU?$char_traits@_W@std@@V?$allocator@_W@2@@std@@@2@@std@@QEAA@AEBV01@@Z 000000018000ea40 f i IniFile.obj
 0001:0000daa0       ??0IniFile@@QEAA@XZ        000000018000eaa0 f   IniFile.obj
 0001:0000db10       ??1?$OrderedMap@V?$basic_string@_WU?$char_traits@_W@std@@V?$allocator@_W@2@@std@@PEAVIniSectionData@@@@QEAA@XZ 000000018000eb10 f i IniFile.obj
 0001:0000dbe0       ??1IPropertyContainer@@UEAA@XZ 000000018000ebe0 f i IniFile.obj
 0001:0000dbf0       ??1ISectionalPropertyContainer@@UEAA@XZ 000000018000ebf0 f i IniFile.obj
 0001:0000dc00       ??1IniFile@@UEAA@XZ        000000018000ec00 f   IniFile.obj
 0001:0000dc60       ??_GIPropertyContainer@@UEAAPEAXI@Z 000000018000ec60 f i IniFile.obj
 0001:0000dc60       ??_EIPropertyContainer@@UEAAPEAXI@Z 000000018000ec60 f i IniFile.obj
 0001:0000dc90       ??_GISectionalPropertyContainer@@UEAAPEAXI@Z 000000018000ec90 f i IniFile.obj
 0001:0000dc90       ??_EISectionalPropertyContainer@@UEAAPEAXI@Z 000000018000ec90 f i IniFile.obj
 0001:0000dcc0       ??_EIniFile@@UEAAPEAXI@Z   000000018000ecc0 f i IniFile.obj
 0001:0000dcc0       ??_GIniFile@@UEAAPEAXI@Z   000000018000ecc0 f i IniFile.obj
 0001:0000dd50       ??_EIniSectionData@@UEAAPEAXI@Z 000000018000ed50 f i IniFile.obj
 0001:0000dd50       ??_GIniSectionData@@UEAAPEAXI@Z 000000018000ed50 f i IniFile.obj
 0001:0000dda0       ?Append@?$OrderedMap@V?$basic_string@_WU?$char_traits@_W@std@@V?$allocator@_W@2@@std@@PEAVIniSectionData@@@@QEAAXV?$basic_string@_WU?$char_traits@_W@std@@V?$allocator@_W@2@@std@@PEAVIniSectionData@@@Z 000000018000eda0 f i IniFile.obj
 0001:0000def0       ?Append@IniFile@@QEAAXV?$basic_string@_WU?$char_traits@_W@std@@V?$allocator@_W@2@@std@@0V23@@Z 000000018000eef0 f   IniFile.obj
 0001:0000e0a0       ?AppendSection@IniFile@@QEAAXV?$basic_string@_WU?$char_traits@_W@std@@V?$allocator@_W@2@@std@@V?$OrderedMap@V?$basic_string@_WU?$char_traits@_W@std@@V?$allocator@_W@2@@std@@V12@@@@Z 000000018000f0a0 f   IniFile.obj
 0001:0000e240       ?ContainsKey@?$OrderedMap@V?$basic_string@_WU?$char_traits@_W@std@@V?$allocator@_W@2@@std@@PEAVIniSectionData@@@@QEAA_NV?$basic_string@_WU?$char_traits@_W@std@@V?$allocator@_W@2@@std@@@Z 000000018000f240 f i IniFile.obj
 0001:0000e2e0       ?ContainsSection@IniFile@@UEAA_NV?$basic_string@_WU?$char_traits@_W@std@@V?$allocator@_W@2@@std@@@Z 000000018000f2e0 f   IniFile.obj
 0001:0000e350       ?GetCount@IniSectionData@@UEAA_KXZ 000000018000f350 f   IniFile.obj
 0001:0000e360       ?GetLines@IniSectionData@@QEAA?AV?$list@V?$basic_string@_WU?$char_traits@_W@std@@V?$allocator@_W@2@@std@@V?$allocator@V?$basic_string@_WU?$char_traits@_W@std@@V?$allocator@_W@2@@std@@@2@@std@@XZ 000000018000f360 f   IniFile.obj
 0001:0000ed30       ?GetSection@IniFile@@UEAA_NV?$basic_string@_WU?$char_traits@_W@std@@V?$allocator@_W@2@@std@@AEAV?$OrderedMap@V?$basic_string@_WU?$char_traits@_W@std@@V?$allocator@_W@2@@std@@V12@@@@Z 000000018000fd30 f   IniFile.obj
 0001:0000eef0       ?GetValue@?$OrderedMap@V?$basic_string@_WU?$char_traits@_W@std@@V?$allocator@_W@2@@std@@PEAVIniSectionData@@@@QEAA_NV?$basic_string@_WU?$char_traits@_W@std@@V?$allocator@_W@2@@std@@AEAPEAVIniSectionData@@@Z 000000018000fef0 f i IniFile.obj
 0001:0000f000       ?GetValue@IniFile@@UEAA_NV?$basic_string@_WU?$char_traits@_W@std@@V?$allocator@_W@2@@std@@0AEAV23@@Z 0000000180010000 f   IniFile.obj
 0001:0000f0c0       ?GetValue@IniSectionData@@UEAA_NV?$basic_string@_WU?$char_traits@_W@std@@V?$allocator@_W@2@@std@@AEAV23@@Z 00000001800100c0 f   IniFile.obj
 0001:0000f130       ?LoadFromFile@IniFile@@QEAA_NV?$basic_string@_WU?$char_traits@_W@std@@V?$allocator@_W@2@@std@@@Z 0000000180010130 f   IniFile.obj
 0001:0000f8c0       ?SaveToFile@IniFile@@QEAA_NV?$basic_string@_WU?$char_traits@_W@std@@V?$allocator@_W@2@@std@@_N@Z 00000001800108c0 f   IniFile.obj
 0001:00010040       ?SetValue@IniFile@@QEAA_NV?$basic_string@_WU?$char_traits@_W@std@@V?$allocator@_W@2@@std@@0V23@@Z 0000000180011040 f   IniFile.obj
 0001:00010190       ?SetValue@IniSectionData@@QEAA_NV?$basic_string@_WU?$char_traits@_W@std@@V?$allocator@_W@2@@std@@V23@@Z 0000000180011190 f   IniFile.obj
 0001:00010340       ?_Unchecked_erase@?$list@V?$basic_string@_WU?$char_traits@_W@std@@V?$allocator@_W@2@@std@@V?$allocator@V?$basic_string@_WU?$char_traits@_W@std@@V?$allocator@_W@2@@std@@@2@@std@@QEAAXV?$_List_unchecked_const_iterator@V?$_List_val@U?$_List_simple_types@V?$basic_string@_WU?$char_traits@_W@std@@V?$allocator@_W@2@@std@@@std@@@std@@U_Iterator_base0@2@@2@@Z 0000000180011340 f i IniFile.obj
 0001:00010390       ??0Exception@@QEAA@AEBV0@@Z 0000000180011390 f i Java.obj
 0001:00010400       ??0Exception@@QEAA@V?$basic_string@_WU?$char_traits@_W@std@@V?$allocator@_W@2@@std@@@Z 0000000180011400 f i Java.obj
 0001:000104c0       ??0JavaClass@@QEAA@PEAUJNIEnv_@@V?$basic_string@_WU?$char_traits@_W@std@@V?$allocator@_W@2@@std@@@Z 00000001800114c0 f   Java.obj
 0001:00010670       ??0JavaException@@QEAA@AEBV0@@Z 0000000180011670 f i Java.obj
 0001:000106f0       ??0JavaException@@QEAA@PEAUJNIEnv_@@V?$basic_string@_WU?$char_traits@_W@std@@V?$allocator@_W@2@@std@@@Z 00000001800116f0 f   Java.obj
 0001:00010810       ??0JavaException@@QEAA@XZ  0000000180011810 f   Java.obj
 0001:00010840       ??0JavaStringArray@@QEAA@PEAUJNIEnv_@@PEAV_jobjectArray@@@Z 0000000180011840 f   Java.obj
 0001:00010850       ??0JavaStringArray@@QEAA@PEAUJNIEnv_@@V?$list@V?$basic_string@_WU?$char_traits@_W@std@@V?$allocator@_W@2@@std@@V?$allocator@V?$basic_string@_WU?$char_traits@_W@std@@V?$allocator@_W@2@@std@@@2@@std@@@Z 0000000180011850 f   Java.obj
 0001:00010aa0       ??0JavaStringArray@@QEAA@PEAUJNIEnv_@@_K@Z 0000000180011aa0 f   Java.obj
 0001:00010ac0       ??1Exception@@UEAA@XZ      0000000180011ac0 f i Java.obj
 0001:00010ac0       ??1JavaException@@UEAA@XZ  0000000180011ac0 f i Java.obj
 0001:00010ac0       ??1FileNotFoundException@@UEAA@XZ 0000000180011ac0 f i main.obj
 0001:00010b00       ??1JavaClass@@QEAA@XZ      0000000180011b00 f   Java.obj
 0001:00010bb0       ??_GException@@UEAAPEAXI@Z 0000000180011bb0 f i Java.obj
 0001:00010bb0       ??_GFileNotFoundException@@UEAAPEAXI@Z 0000000180011bb0 f i main.obj
 0001:00010bb0       ??_EException@@UEAAPEAXI@Z 0000000180011bb0 f i Java.obj
 0001:00010bb0       ??_EFileNotFoundException@@UEAAPEAXI@Z 0000000180011bb0 f i main.obj
 0001:00010c10       ??_EJavaException@@UEAAPEAXI@Z 0000000180011c10 f i Java.obj
 0001:00010c10       ??_GJavaException@@UEAAPEAXI@Z 0000000180011c10 f i Java.obj
 0001:00010c70       ?CallVoidMethod@JavaStaticMethod@@QEAAXHZZ 0000000180011c70 f   Java.obj
 0001:00010d40       ?Count@JavaStringArray@@QEAAIXZ 0000000180011d40 f   Java.obj
 0001:00010de0       ?GetData@JavaStringArray@@QEAAPEAV_jobjectArray@@XZ 0000000180011de0 f   Java.obj
 0001:00010df0       ?GetStaticMethod@JavaClass@@QEAA?AVJavaStaticMethod@@V?$basic_string@_WU?$char_traits@_W@std@@V?$allocator@_W@2@@std@@0@Z 0000000180011df0 f   Java.obj
 0001:00010fc0       ?GetValue@JavaStringArray@@QEAAPEAV_jstring@@J@Z 0000000180011fc0 f   Java.obj
 0001:00011060       ?Initialize@JavaStringArray@@AEAAX_K@Z 0000000180012060 f   Java.obj
 0001:000113b0       ?SetValue@JavaStringArray@@QEAAXJPEAV_jstring@@@Z 00000001800123b0 f   Java.obj
 0001:00011440       ??0JavaUserPreferences@@QEAA@XZ 0000000180012440 f   JavaUserPreferences.obj
 0001:000114c0       ??1JavaUserPreferences@@UEAA@XZ 00000001800124c0 f   JavaUserPreferences.obj
 0001:000114f0       ??_EJavaUserPreferences@@UEAAPEAXI@Z 00000001800124f0 f i JavaUserPreferences.obj
 0001:000114f0       ??_GJavaUserPreferences@@UEAAPEAXI@Z 00000001800124f0 f i JavaUserPreferences.obj
 0001:00011540       ?CreateInstance@JavaUserPreferences@@SAPEAV1@XZ 0000000180012540 f   JavaUserPreferences.obj
 0001:00011580       ?GetData@JavaUserPreferences@@QEAA?AV?$OrderedMap@V?$basic_string@_WU?$char_traits@_W@std@@V?$allocator@_W@2@@std@@V12@@@XZ 0000000180012580 f   JavaUserPreferences.obj
 0001:000115f0       ??$_Buynode@AEBUJavaOptionItem@@@?$_List_buy@UJavaOptionItem@@V?$allocator@UJavaOptionItem@@@std@@@std@@QEAAPEAU?$_List_node@UJavaOptionItem@@PEAX@1@PEAU21@0AEBUJavaOptionItem@@@Z 00000001800125f0 f i JavaVirtualMachine.obj
 0001:00011660       ??1?$list@UJavaOptionItem@@V?$allocator@UJavaOptionItem@@@std@@@std@@QEAA@XZ 0000000180012660 f i JavaVirtualMachine.obj
 0001:000116f0       ??1JavaLibrary@@QEAA@XZ    00000001800126f0 f i JavaVirtualMachine.obj
 0001:00011700       ??1JavaOptions@@QEAA@XZ    0000000180012700 f i JavaVirtualMachine.obj
 0001:000117d0       ?AppendValue@JavaOptions@@QEAAXV?$basic_string@_WU?$char_traits@_W@std@@V?$allocator@_W@2@@std@@V23@@Z 00000001800127d0 f i JavaVirtualMachine.obj
 0001:00011980       ?AppendValues@JavaOptions@@QEAAXV?$OrderedMap@V?$basic_string@_WU?$char_traits@_W@std@@V?$allocator@_W@2@@std@@V12@@@@Z 0000000180012980 f i JavaVirtualMachine.obj
 0001:00012020       ?RemoveTrailingEquals@@YA?AV?$OrderedMap@V?$basic_string@_WU?$char_traits@_W@std@@V?$allocator@_W@2@@std@@V12@@@V1@@Z 0000000180013020 f   JavaVirtualMachine.obj
 0001:000127d0       ?RunVM@@YA_NXZ             00000001800137d0 f   JavaVirtualMachine.obj
 0001:000128a0       ?StartJVM@JavaVirtualMachine@@QEAA_NXZ 00000001800138a0 f   JavaVirtualMachine.obj
 0001:00013c10       ?ToJavaOptions@JavaOptions@@QEAAPEAUJavaVMOption@@XZ 0000000180014c10 f i JavaVirtualMachine.obj
 0001:00014120       ?_Buynode0@?$_List_alloc@U?$_List_base_types@UJavaOptionItem@@V?$allocator@UJavaOptionItem@@@std@@@std@@@std@@QEAAPEAU?$_List_node@UJavaOptionItem@@PEAX@2@PEAU32@0@Z 0000000180015120 f i JavaVirtualMachine.obj
 0001:00014170       ?deallocate@?$allocator@U?$_List_node@UJavaOptionItem@@PEAX@std@@@std@@QEAAXQEAU?$_List_node@UJavaOptionItem@@PEAX@2@_K@Z 0000000180015170 f i JavaVirtualMachine.obj
 0001:000141b0       ?AddMacro@Macros@@QEAAXV?$basic_string@_WU?$char_traits@_W@std@@V?$allocator@_W@2@@std@@0@Z 00000001800151b0 f   Macros.obj
 0001:00014270       ?ExpandMacros@Macros@@QEAA?AV?$basic_string@_WU?$char_traits@_W@std@@V?$allocator@_W@2@@std@@V23@@Z 0000000180015270 f   Macros.obj
 0001:00014790       ?GetInstance@Macros@@SAAEAV1@XZ 0000000180015790 f   Macros.obj
 0001:00014820       ?Initialize@Macros@@SAXXZ  0000000180015820 f   Macros.obj
 0001:00014d40       ??$_Emplace_reallocate@V?$basic_string@_WU?$char_traits@_W@std@@V?$allocator@_W@2@@std@@@?$vector@V?$basic_string@_WU?$char_traits@_W@std@@V?$allocator@_W@2@@std@@V?$allocator@V?$basic_string@_WU?$char_traits@_W@std@@V?$allocator@_W@2@@std@@@2@@std@@QEAAPEAV?$basic_string@_WU?$char_traits@_W@std@@V?$allocator@_W@2@@1@QEAV21@$$QEAV21@@Z 0000000180015d40 f i main.obj
 0001:00014fd0       ??0?$vector@V?$basic_string@_WU?$char_traits@_W@std@@V?$allocator@_W@2@@std@@V?$allocator@V?$basic_string@_WU?$char_traits@_W@std@@V?$allocator@_W@2@@std@@@2@@std@@QEAA@AEBV01@@Z 0000000180015fd0 f i main.obj
 0001:000150a0       ??0FileNotFoundException@@QEAA@AEBV0@@Z 00000001800160a0 f i main.obj
 0001:00015110       ??0FileNotFoundException@@QEAA@V?$basic_string@_WU?$char_traits@_W@std@@V?$allocator@_W@2@@std@@@Z 0000000180016110 f i main.obj
 0001:00015190       DllMain                    0000000180016190 f   main.obj
 0001:00015190       _get_startup_argv_mode     0000000180016190 f   MSVCRT:argv_mode.obj
 0001:000151a0       start_launcher             00000001800161a0 f   main.obj
 0001:00015cc0       ??0Messages@@AEAA@XZ       0000000180016cc0 f   Messages.obj
 0001:00016010       ?GetInstance@Messages@@SAAEAV1@XZ 0000000180017010 f   Messages.obj
 0001:000160a0       ?GetMessageW@Messages@@QEAA?AV?$basic_string@_WU?$char_traits@_W@std@@V?$allocator@_W@2@@std@@V23@@Z 00000001800170a0 f   Messages.obj
 0001:000161e0       ??$_Reusenode@AEBV?$basic_string@_WU?$char_traits@_W@std@@V?$allocator@_W@2@@std@@@?$list@V?$basic_string@_WU?$char_traits@_W@std@@V?$allocator@_W@2@@std@@V?$allocator@V?$basic_string@_WU?$char_traits@_W@std@@V?$allocator@_W@2@@std@@@2@@std@@QEAAXV?$_List_iterator@V?$_List_val@U?$_List_simple_types@V?$basic_string@_WU?$char_traits@_W@std@@V?$allocator@_W@2@@std@@@std@@@std@@@1@AEBV?$basic_string@_WU?$char_traits@_W@std@@V?$allocator@_W@2@@1@@Z 00000001800171e0 f i Package.obj
 0001:00016230       ??$assign@V?$_List_const_iterator@V?$_List_val@U?$_List_simple_types@V?$basic_string@_WU?$char_traits@_W@std@@V?$allocator@_W@2@@std@@@std@@@std@@@std@@X@?$list@V?$basic_string@_WU?$char_traits@_W@std@@V?$allocator@_W@2@@std@@V?$allocator@V?$basic_string@_WU?$char_traits@_W@std@@V?$allocator@_W@2@@std@@@2@@std@@QEAAXV?$_List_const_iterator@V?$_List_val@U?$_List_simple_types@V?$basic_string@_WU?$char_traits@_W@std@@V?$allocator@_W@2@@std@@@std@@@std@@@1@0@Z 0000000180017230 f i Package.obj
 0001:00016350       ??0PackageBootFields@@QEAA@XZ 0000000180017350 f i Package.obj
 0001:00016510       ??0invalid_argument@std@@QEAA@AEBV01@@Z 0000000180017510 f i Package.obj
 0001:00016550       ??0invalid_argument@std@@QEAA@PEBD@Z 0000000180017550 f i Package.obj
 0001:000165a0       ??0logic_error@std@@QEAA@AEBV01@@Z 00000001800175a0 f i Package.obj
 0001:000165e0       ??4?$OrderedMap@V?$basic_string@_WU?$char_traits@_W@std@@V?$allocator@_W@2@@std@@V12@@@QEAAAEAV0@AEBV0@@Z 00000001800175e0 f i Package.obj
 0001:00016610       ?Clear@Package@@QEAAXXZ    0000000180017610 f   Package.obj
 0001:00016650       ?CreateOrderedMapFromKeyList@@YA?AV?$OrderedMap@V?$basic_string@_WU?$char_traits@_W@std@@V?$allocator@_W@2@@std@@V12@@@AEAV1@AEAV?$vector@V?$basic_string@_WU?$char_traits@_W@std@@V?$allocator@_W@2@@std@@V?$allocator@V?$basic_string@_WU?$char_traits@_W@std@@V?$allocator@_W@2@@std@@@2@@std@@@Z 0000000180017650 f   Package.obj
 0001:00016ba0       ?FreeBootFields@Package@@QEAAXXZ 0000000180017ba0 f   Package.obj
 0001:00016cb0       ?GetAppCDSCacheDirectory@Package@@QEAA?AV?$basic_string@_WU?$char_traits@_W@std@@V?$allocator@_W@2@@std@@XZ 0000000180017cb0 f   Package.obj
 0001:000170b0       ?GetAppCDSCacheFileName@Package@@QEAA?AV?$basic_string@_WU?$char_traits@_W@std@@V?$allocator@_W@2@@std@@XZ 00000001800180b0 f   Package.obj
 0001:000172d0       ?GetAppDataDirectory@Package@@QEAA?AV?$basic_string@_WU?$char_traits@_W@std@@V?$allocator@_W@2@@std@@XZ 00000001800182d0 f   Package.obj
 0001:00017300       ?GetAppID@Package@@QEAA?AV?$basic_string@_WU?$char_traits@_W@std@@V?$allocator@_W@2@@std@@XZ 0000000180018300 f   Package.obj
 0001:00017330       ?GetArgs@Package@@QEAA?AV?$list@V?$basic_string@_WU?$char_traits@_W@std@@V?$allocator@_W@2@@std@@V?$allocator@V?$basic_string@_WU?$char_traits@_W@std@@V?$allocator@_W@2@@std@@@2@@std@@XZ 0000000180018330 f   Package.obj
 0001:00017360       ?GetClassPath@Package@@QEAA?AV?$basic_string@_WU?$char_traits@_W@std@@V?$allocator@_W@2@@std@@XZ 0000000180018360 f   Package.obj
 0001:00017390       ?GetDefaultJVMUserArgs@Package@@QEAA?AV?$OrderedMap@V?$basic_string@_WU?$char_traits@_W@std@@V?$allocator@_W@2@@std@@V12@@@XZ 0000000180018390 f   Package.obj
 0001:00017400       ?GetInstance@Package@@SAAEAV1@XZ 0000000180018400 f   Package.obj
 0001:00017530       ?GetJVMArgs@Package@@QEAA?AV?$OrderedMap@V?$basic_string@_WU?$char_traits@_W@std@@V?$allocator@_W@2@@std@@V12@@@XZ 0000000180018530 f   Package.obj
 0001:000175a0       ?GetJVMLibraryFileName@Package@@QEAA?AV?$basic_string@_WU?$char_traits@_W@std@@V?$allocator@_W@2@@std@@XZ 00000001800185a0 f   Package.obj
 0001:00017870       ?GetJVMRuntimeDirectory@Package@@QEAA?AV?$basic_string@_WU?$char_traits@_W@std@@V?$allocator@_W@2@@std@@XZ 0000000180018870 f   Package.obj
 0001:000178a0       ?GetJVMUserArgs@Package@@QEAA?AV?$OrderedMap@V?$basic_string@_WU?$char_traits@_W@std@@V?$allocator@_W@2@@std@@V12@@@XZ 00000001800188a0 f   Package.obj
 0001:00017910       ?GetJVMUserArgsConfigFileName@Package@@QEAA?AV?$basic_string@_WU?$char_traits@_W@std@@V?$allocator@_W@2@@std@@XZ 0000000180018910 f   Package.obj
 0001:00017cc0       ?GetKeysThatAreNotDuplicates@@YA?AV?$vector@V?$basic_string@_WU?$char_traits@_W@std@@V?$allocator@_W@2@@std@@V?$allocator@V?$basic_string@_WU?$char_traits@_W@std@@V?$allocator@_W@2@@std@@@2@@std@@AEAV?$OrderedMap@V?$basic_string@_WU?$char_traits@_W@std@@V?$allocator@_W@2@@std@@V12@@@0@Z 0000000180018cc0 f   Package.obj
 0001:00018300       ?GetKeysThatAreNotOverridesOfDefaultValues@@YA?AV?$vector@V?$basic_string@_WU?$char_traits@_W@std@@V?$allocator@_W@2@@std@@V?$allocator@V?$basic_string@_WU?$char_traits@_W@std@@V?$allocator@_W@2@@std@@@2@@std@@AEAV?$OrderedMap@V?$basic_string@_WU?$char_traits@_W@std@@V?$allocator@_W@2@@std@@V12@@@0@Z 0000000180019300 f   Package.obj
 0001:00018970       ?GetMainClassName@Package@@QEAA?AV?$basic_string@_WU?$char_traits@_W@std@@V?$allocator@_W@2@@std@@XZ 0000000180019970 f   Package.obj
 0001:000189a0       ?GetMemorySize@Package@@QEAA_KXZ 00000001800199a0 f   Package.obj
 0001:000189b0       ?GetMemoryState@Package@@QEAA?AW4MemoryState@PackageBootFields@@XZ 00000001800199b0 f   Package.obj
 0001:000189c0       ?GetPackageAppDirectory@Package@@QEAA?AV?$basic_string@_WU?$char_traits@_W@std@@V?$allocator@_W@2@@std@@XZ 00000001800199c0 f   Package.obj
 0001:000189f0       ?GetPackageLauncherDirectory@Package@@QEAA?AV?$basic_string@_WU?$char_traits@_W@std@@V?$allocator@_W@2@@std@@XZ 00000001800199f0 f   Package.obj
 0001:00018a20       ?GetPackageRootDirectory@Package@@QEAA?AV?$basic_string@_WU?$char_traits@_W@std@@V?$allocator@_W@2@@std@@XZ 0000000180019a20 f   Package.obj
 0001:00018a50       ?GetSplashScreenFileName@Package@@QEAA?AV?$basic_string@_WU?$char_traits@_W@std@@V?$allocator@_W@2@@std@@XZ 0000000180019a50 f   Package.obj
 0001:00018a80       ?HasSplashScreen@Package@@QEAA_NXZ 0000000180019a80 f   Package.obj
 0001:00018ab0       ?Initialize@Package@@QEAAXXZ 0000000180019ab0 f   Package.obj
 0001:0001a1a0       ?MergeJVMDefaultsWithOverrides@Package@@AEAAXXZ 000000018001b1a0 f   Package.obj
 0001:0001a840       ?PromoteAppCDSState@Package@@AEAAXPEAVISectionalPropertyContainer@@@Z 000000018001b840 f   Package.obj
 0001:0001ac90       ?ReadJVMArgs@Package@@AEAAXPEAVISectionalPropertyContainer@@@Z 000000018001bc90 f   Package.obj
 0001:0001b2d0       ?SaveJVMUserArgOverrides@Package@@AEAAXV?$OrderedMap@V?$basic_string@_WU?$char_traits@_W@std@@V?$allocator@_W@2@@std@@V12@@@@Z 000000018001c2d0 f   Package.obj
 0001:0001b580       ?SetCommandLineArguments@Package@@QEAAXHQEAPEA_W@Z 000000018001c580 f   Package.obj
 0001:0001b790       ?SetJVMUserArgOverrides@Package@@QEAAXV?$OrderedMap@V?$basic_string@_WU?$char_traits@_W@std@@V?$allocator@_W@2@@std@@V12@@@@Z 000000018001c790 f   Package.obj
 0001:0001bad0       ?StringToPercentageOfNumber@@YA_KV?$basic_string@_WU?$char_traits@_W@std@@V?$allocator@_W@2@@std@@_K@Z 000000018001cad0 f   Package.obj
 0001:0001bba0       ?_Unlinknode@?$list@V?$basic_string@_WU?$char_traits@_W@std@@V?$allocator@_W@2@@std@@V?$allocator@V?$basic_string@_WU?$char_traits@_W@std@@V?$allocator@_W@2@@std@@@2@@std@@QEAAPEAU?$_List_node@V?$basic_string@_WU?$char_traits@_W@std@@V?$allocator@_W@2@@std@@PEAX@2@V?$_List_const_iterator@V?$_List_val@U?$_List_simple_types@V?$basic_string@_WU?$char_traits@_W@std@@V?$allocator@_W@2@@std@@@std@@@std@@@2@@Z 000000018001cba0 f i Package.obj
 0001:0001bbc0       ??0?$basic_string@DU?$char_traits@D@std@@V?$allocator@D@2@@std@@QEAA@AEBV01@@Z 000000018001cbc0 f i Platform.obj
 0001:0001bca0       ??0Library@@QEAA@XZ        000000018001cca0 f   Platform.obj
 0001:0001bcc0       ??1Library@@QEAA@XZ        000000018001ccc0 f   Platform.obj
 0001:0001bce0       ??1Platform@@UEAA@XZ       000000018001cce0 f i Platform.obj
 0001:0001bcf0       ??_GPlatform@@UEAAPEAXI@Z  000000018001ccf0 f i Platform.obj
 0001:0001bcf0       ??_EPlatform@@UEAAPEAXI@Z  000000018001ccf0 f i Platform.obj
 0001:0001bd20       ?AddDependency@Library@@QEAAXAEBV?$basic_string@_WU?$char_traits@_W@std@@V?$allocator@_W@2@@std@@@Z 000000018001cd20 f   Platform.obj
 0001:0001bd80       ?GetInstance@Platform@@SAAEAV1@XZ 000000018001cd80 f   Platform.obj
 0001:0001be10       ?GetProcAddress@Library@@IEAAPEAXV?$basic_string@DU?$char_traits@D@std@@V?$allocator@D@2@@std@@@Z 000000018001ce10 f   Platform.obj
 0001:0001bee0       ?InitializeDependencies@Library@@AEAAXXZ 000000018001cee0 f   Platform.obj
 0001:0001bf60       ?Load@Library@@QEAA_NAEBV?$basic_string@_WU?$char_traits@_W@std@@V?$allocator@_W@2@@std@@@Z 000000018001cf60 f   Platform.obj
 0001:0001c180       ?Unload@Library@@QEAA_NXZ  000000018001d180 f   Platform.obj
 0001:0001c290       ??0PlatformString@@QEAA@AEBV?$basic_string@DU?$char_traits@D@std@@V?$allocator@D@2@@std@@@Z 000000018001d290 f   PlatformString.obj
 0001:0001c310       ??0PlatformString@@QEAA@AEBV?$basic_string@_WU?$char_traits@_W@std@@V?$allocator@_W@2@@std@@@Z 000000018001d310 f   PlatformString.obj
 0001:0001c3b0       ??0PlatformString@@QEAA@PEAUJNIEnv_@@PEAV_jstring@@@Z 000000018001d3b0 f   PlatformString.obj
 0001:0001c530       ??0PlatformString@@QEAA@PEBD@Z 000000018001d530 f   PlatformString.obj
 0001:0001c5c0       ??0PlatformString@@QEAA@PEB_W@Z 000000018001d5c0 f   PlatformString.obj
 0001:0001c660       ??0PlatformString@@QEAA@_K@Z 000000018001d660 f   PlatformString.obj
 0001:0001c910       ??1?$basic_stringbuf@DU?$char_traits@D@std@@V?$allocator@D@2@@std@@UEAA@XZ 000000018001d910 f i PlatformString.obj
 0001:0001c9d0       ??1PlatformString@@QEAA@XZ 000000018001d9d0 f   PlatformString.obj
 0001:0001ca00       ?toString@PlatformString@@QEAA?AV?$basic_string@_WU?$char_traits@_W@std@@V?$allocator@_W@2@@std@@XZ 000000018001da00 f   PlatformString.obj
 0001:0001ca00       ??BPlatformString@@QEAA?AV?$basic_string@_WU?$char_traits@_W@std@@V?$allocator@_W@2@@std@@XZ 000000018001da00 f   PlatformString.obj
 0001:0001ca20       ??BPlatformString@@QEAAPEADXZ 000000018001da20 f   PlatformString.obj
 0001:0001ca20       ?c_str@PlatformString@@QEAAPEADXZ 000000018001da20 f   PlatformString.obj
 0001:0001ca30       ??_D?$basic_stringstream@DU?$char_traits@D@std@@V?$allocator@D@2@@std@@QEAAXXZ 000000018001da30 f i PlatformString.obj
 0001:0001ca90       ??_E?$basic_stringstream@DU?$char_traits@D@std@@V?$allocator@D@2@@std@@$4PPPPPPPM@A@EAAPEAXI@Z 000000018001da90 f i PlatformString.obj
 0001:0001caa0       ??_E?$basic_stringbuf@DU?$char_traits@D@std@@V?$allocator@D@2@@std@@UEAAPEAXI@Z 000000018001daa0 f i PlatformString.obj
 0001:0001caa0       ??_G?$basic_stringbuf@DU?$char_traits@D@std@@V?$allocator@D@2@@std@@UEAAPEAXI@Z 000000018001daa0 f i PlatformString.obj
 0001:0001cae0       ??_E?$basic_stringstream@DU?$char_traits@D@std@@V?$allocator@D@2@@std@@UEAAPEAXI@Z 000000018001dae0 f i PlatformString.obj
 0001:0001cae0       ??_G?$basic_stringstream@DU?$char_traits@D@std@@V?$allocator@D@2@@std@@UEAAPEAXI@Z 000000018001dae0 f i PlatformString.obj
 0001:0001cb80       ?Format@PlatformString@@SA?AV?$basic_string@_WU?$char_traits@_W@std@@V?$allocator@_W@2@@std@@V23@ZZ 000000018001db80 f   PlatformString.obj
 0001:0001ccc0       ?duplicate@PlatformString@@SAPEADPEBD@Z 000000018001dcc0 f   PlatformString.obj
 0001:0001cd30       ?overflow@?$basic_stringbuf@DU?$char_traits@D@std@@V?$allocator@D@2@@std@@MEAAHH@Z 000000018001dd30 f i PlatformString.obj
 0001:0001cee0       ?pbackfail@?$basic_stringbuf@DU?$char_traits@D@std@@V?$allocator@D@2@@std@@MEAAHH@Z 000000018001dee0 f i PlatformString.obj
 0001:0001cf40       ?seekoff@?$basic_stringbuf@DU?$char_traits@D@std@@V?$allocator@D@2@@std@@MEAA?AV?$fpos@U_Mbstatet@@@2@_JHH@Z 000000018001df40 f i PlatformString.obj
 0001:0001d090       ?seekpos@?$basic_stringbuf@DU?$char_traits@D@std@@V?$allocator@D@2@@std@@MEAA?AV?$fpos@U_Mbstatet@@@2@V32@H@Z 000000018001e090 f i PlatformString.obj
 0001:0001d180       ?toJString@PlatformString@@QEAAPEAV_jstring@@PEAUJNIEnv_@@@Z 000000018001e180 f   PlatformString.obj
 0001:0001d210       ?toUnicodeString@PlatformString@@QEAA?AV?$basic_string@_WU?$char_traits@_W@std@@V?$allocator@_W@2@@std@@XZ 000000018001e210 f   PlatformString.obj
 0001:0001d290       ?toWideString@PlatformString@@QEAAPEA_WXZ 000000018001e290 f   PlatformString.obj
 0001:0001d350       ?underflow@?$basic_stringbuf@DU?$char_traits@D@std@@V?$allocator@D@2@@std@@MEAAHXZ 000000018001e350 f i PlatformString.obj
 0001:0001d3c0       ??0PropertyFile@@QEAA@XZ   000000018001e3c0 f   PropertyFile.obj
 0001:0001d430       ??1PropertyFile@@UEAA@XZ   000000018001e430 f   PropertyFile.obj
 0001:0001d470       ??_GPropertyFile@@UEAAPEAXI@Z 000000018001e470 f i PropertyFile.obj
 0001:0001d470       ??_EPropertyFile@@UEAAPEAXI@Z 000000018001e470 f i PropertyFile.obj
 0001:0001d4d0       ?GetCount@PropertyFile@@UEAA_KXZ 000000018001e4d0 f   PropertyFile.obj
 0001:0001d4e0       ?GetValue@PropertyFile@@UEAA_NV?$basic_string@_WU?$char_traits@_W@std@@V?$allocator@_W@2@@std@@AEAV23@@Z 000000018001e4e0 f   PropertyFile.obj
 0001:0001d550       ?LoadFromFile@PropertyFile@@QEAA_NV?$basic_string@_WU?$char_traits@_W@std@@V?$allocator@_W@2@@std@@@Z 000000018001e550 f   PropertyFile.obj
 0001:0001db20       ?SetReadOnly@PropertyFile@@QEAAX_N@Z 000000018001eb20 f   PropertyFile.obj
 0001:0001db30       ?SetValue@PropertyFile@@QEAA_NV?$basic_string@_WU?$char_traits@_W@std@@V?$allocator@_W@2@@std@@V23@@Z 000000018001eb30 f   PropertyFile.obj
 0001:0001dcf0       ??$_Compare@V?$_String_const_iterator@V?$_String_val@U?$_Simple_types@_W@std@@@std@@@std@@PEB_WV?$regex_traits@_W@2@@std@@YA?AV?$_String_const_iterator@V?$_String_val@U?$_Simple_types@_W@std@@@std@@@0@V10@0PEB_W1AEBV?$regex_traits@_W@0@W4syntax_option_type@regex_constants@0@@Z 000000018001ecf0 f i WindowsPlatform.obj
 0001:0001de60       ??$_Compare@V?$_String_const_iterator@V?$_String_val@U?$_Simple_types@_W@std@@@std@@@std@@V12@V?$regex_traits@_W@2@@std@@YA?AV?$_String_const_iterator@V?$_String_val@U?$_Simple_types@_W@std@@@std@@@0@V10@000AEBV?$regex_traits@_W@0@W4syntax_option_type@regex_constants@0@@Z 000000018001ee60 f i WindowsPlatform.obj
 0001:0001dff0       ??$_Lookup_coll@V?$_String_const_iterator@V?$_String_val@U?$_Simple_types@_W@std@@@std@@@std@@_W@std@@YA?AV?$_String_const_iterator@V?$_String_val@U?$_Simple_types@_W@std@@@std@@@0@V10@0PEBU?$_Sequence@_W@0@@Z 000000018001eff0 f i WindowsPlatform.obj
 0001:0001e0a0       ??$_Lookup_equiv@_WV?$regex_traits@_W@std@@@std@@YA_NGPEBU?$_Sequence@_W@0@AEBV?$regex_traits@_W@0@@Z 000000018001f0a0 f i WindowsPlatform.obj
 0001:0001e580       ??$_Match@V?$allocator@V?$sub_match@V?$_String_const_iterator@V?$_String_val@U?$_Simple_types@_W@std@@@std@@@std@@@std@@@std@@@?$_Matcher@V?$_String_const_iterator@V?$_String_val@U?$_Simple_types@_W@std@@@std@@@std@@_WV?$regex_traits@_W@2@V12@@std@@QEAA_NPEAV?$match_results@V?$_String_const_iterator@V?$_String_val@U?$_Simple_types@_W@std@@@std@@@std@@V?$allocator@V?$sub_match@V?$_String_const_iterator@V?$_String_val@U?$_Simple_types@_W@std@@@std@@@std@@@std@@@2@@1@_N@Z 000000018001f580 f i WindowsPlatform.obj
 0001:0001e770       ??$_Range_construct_or_tidy@PEA_W@?$vector@_WV?$allocator@_W@std@@@std@@AEAAXPEA_W0Uforward_iterator_tag@1@@Z 000000018001f770 f i WindowsPlatform.obj
 0001:0001e770       ??$_Range_construct_or_tidy@PEB_W@?$vector@_WV?$allocator@_W@std@@@std@@AEAAXPEB_W0Uforward_iterator_tag@1@@Z 000000018001f770 f i WindowsPlatform.obj
 0001:0001e820       ??$_Regex_search1@V?$_String_const_iterator@V?$_String_val@U?$_Simple_types@_W@std@@@std@@@std@@V?$allocator@V?$sub_match@V?$_String_const_iterator@V?$_String_val@U?$_Simple_types@_W@std@@@std@@@std@@@std@@@2@_WV?$regex_traits@_W@2@V12@@std@@YA_NV?$_String_const_iterator@V?$_String_val@U?$_Simple_types@_W@std@@@std@@@0@0PEAV?$match_results@V?$_String_const_iterator@V?$_String_val@U?$_Simple_types@_W@std@@@std@@@std@@V?$allocator@V?$sub_match@V?$_String_const_iterator@V?$_String_val@U?$_Simple_types@_W@std@@@std@@@std@@@std@@@2@@0@AEBV?$basic_regex@_WV?$regex_traits@_W@std@@@0@W4match_flag_type@regex_constants@0@0@Z 000000018001f820 f i WindowsPlatform.obj
 0001:0001ea60       ??$_Resize@V<lambda_1e23b6a92ca70a0ab38016e3322b0015>@@@?$vector@V?$sub_match@V?$_String_const_iterator@V?$_String_val@U?$_Simple_types@_W@std@@@std@@@std@@@std@@V?$allocator@V?$sub_match@V?$_String_const_iterator@V?$_String_val@U?$_Simple_types@_W@std@@@std@@@std@@@std@@@2@@std@@AEAAX_KV<lambda_1e23b6a92ca70a0ab38016e3322b0015>@@@Z 000000018001fa60 f i WindowsPlatform.obj
 0001:0001ece0       ??$_Resize@V<lambda_2aa502090c117147aa783e21f2063a98>@@@?$vector@U_Loop_vals_t@std@@V?$allocator@U_Loop_vals_t@std@@@2@@std@@AEAAX_KV<lambda_2aa502090c117147aa783e21f2063a98>@@@Z 000000018001fce0 f i WindowsPlatform.obj
 0001:0001eeb0       ??$_Resize@V<lambda_98c5e27e47c2b2f36c078c0d04062b98>@@@?$vector@U_Grp_t@?$_Tgt_state_t@V?$_String_const_iterator@V?$_String_val@U?$_Simple_types@_W@std@@@std@@@std@@@std@@V?$allocator@U_Grp_t@?$_Tgt_state_t@V?$_String_const_iterator@V?$_String_val@U?$_Simple_types@_W@std@@@std@@@std@@@std@@@3@@std@@AEAAX_KV<lambda_98c5e27e47c2b2f36c078c0d04062b98>@@@Z 000000018001feb0 f i WindowsPlatform.obj
 0001:0001f050       ??$_Resize@V<lambda_f5f77627601f5a8a55cdb6434a10ac65>@@@?$vector@IV?$allocator@I@std@@@std@@AEAAX_KV<lambda_f5f77627601f5a8a55cdb6434a10ac65>@@@Z 0000000180020050 f i WindowsPlatform.obj
 0001:0001f1f0       ??$lookup_classname@PEB_W@?$_Regex_traits@_W@std@@QEBAFPEB_W0_N@Z 00000001800201f0 f i WindowsPlatform.obj
 0001:0001f340       ??$transform_primary@PEB_W@?$_Regex_traits@_W@std@@QEBA?AV?$basic_string@_WU?$char_traits@_W@std@@V?$allocator@_W@2@@1@PEB_W0@Z 0000000180020340 f i WindowsPlatform.obj
 0001:0001f4d0       ??$transform_primary@V?$_String_iterator@V?$_String_val@U?$_Simple_types@_W@std@@@std@@@std@@@?$_Regex_traits@_W@std@@QEBA?AV?$basic_string@_WU?$char_traits@_W@std@@V?$allocator@_W@2@@1@V?$_String_iterator@V?$_String_val@U?$_Simple_types@_W@std@@@std@@@1@0@Z 00000001800204d0 f i WindowsPlatform.obj
 0001:0001f660       ??$use_facet@V?$collate@_W@std@@@std@@YAAEBV?$collate@_W@0@AEBVlocale@0@@Z 0000000180020660 f i WindowsPlatform.obj
 0001:0001f850       ??$use_facet@V?$ctype@_W@std@@@std@@YAAEBV?$ctype@_W@0@AEBVlocale@0@@Z 0000000180020850 f i WindowsPlatform.obj
 0001:0001f940       ??0?$vector@IV?$allocator@I@std@@@std@@QEAA@AEBV01@@Z 0000000180020940 f i WindowsPlatform.obj
 0001:0001f9f0       ??0?$vector@IV?$allocator@I@std@@@std@@QEAA@_KAEBIAEBV?$allocator@I@1@@Z 00000001800209f0 f i WindowsPlatform.obj
 0001:0001fa90       ??0?$vector@U_Grp_t@?$_Tgt_state_t@V?$_String_const_iterator@V?$_String_val@U?$_Simple_types@_W@std@@@std@@@std@@@std@@V?$allocator@U_Grp_t@?$_Tgt_state_t@V?$_String_const_iterator@V?$_String_val@U?$_Simple_types@_W@std@@@std@@@std@@@std@@@3@@std@@QEAA@AEBV01@@Z 0000000180020a90 f i WindowsPlatform.obj
 0001:0001fb40       ??0WindowsJavaUserPreferences@@QEAA@XZ 0000000180020b40 f   WindowsPlatform.obj
 0001:0001fb70       ??0WindowsPlatform@@QEAA@XZ 0000000180020b70 f   WindowsPlatform.obj
 0001:0001fbf0       ??1?$_Bt_state_t@V?$_String_const_iterator@V?$_String_val@U?$_Simple_types@_W@std@@@std@@@std@@@std@@QEAA@XZ 0000000180020bf0 f i WindowsPlatform.obj
 0001:0001fc50       ??1?$_Matcher@V?$_String_const_iterator@V?$_String_val@U?$_Simple_types@_W@std@@@std@@@std@@_WV?$regex_traits@_W@2@V12@@std@@QEAA@XZ 0000000180020c50 f i WindowsPlatform.obj
 0001:0001fcd0       ??1?$_Parser@PEB_W_WV?$regex_traits@_W@std@@@std@@QEAA@XZ 0000000180020cd0 f i WindowsPlatform.obj
 0001:0001fd30       ??1?$_Tgt_state_t@V?$_String_const_iterator@V?$_String_val@U?$_Simple_types@_W@std@@@std@@@std@@@std@@QEAA@XZ 0000000180020d30 f i WindowsPlatform.obj
 0001:0001fde0       ??1?$basic_regex@_WV?$regex_traits@_W@std@@@std@@QEAA@XZ 0000000180020de0 f i WindowsPlatform.obj
 0001:0001fe30       ??1?$match_results@V?$_String_const_iterator@V?$_String_val@U?$_Simple_types@_W@std@@@std@@@std@@V?$allocator@V?$sub_match@V?$_String_const_iterator@V?$_String_val@U?$_Simple_types@_W@std@@@std@@@std@@@std@@@2@@std@@QEAA@XZ 0000000180020e30 f i WindowsPlatform.obj
 0001:0001fe40       ??1?$regex_traits@_W@std@@QEAA@XZ 0000000180020e40 f i WindowsPlatform.obj
 0001:0001fe80       ?_Tidy@?$vector@U_Grp_t@?$_Tgt_state_t@V?$_String_const_iterator@V?$_String_val@U?$_Simple_types@_W@std@@@std@@@std@@@std@@V?$allocator@U_Grp_t@?$_Tgt_state_t@V?$_String_const_iterator@V?$_String_val@U?$_Simple_types@_W@std@@@std@@@std@@@std@@@3@@std@@AEAAXXZ 0000000180020e80 f i WindowsPlatform.obj
 0001:0001fe80       ??1?$vector@U_Loop_vals_t@std@@V?$allocator@U_Loop_vals_t@std@@@2@@std@@QEAA@XZ 0000000180020e80 f i WindowsPlatform.obj
 0001:0001fee0       ??1?$vector@V?$sub_match@V?$_String_const_iterator@V?$_String_val@U?$_Simple_types@_W@std@@@std@@@std@@@std@@V?$allocator@V?$sub_match@V?$_String_const_iterator@V?$_String_val@U?$_Simple_types@_W@std@@@std@@@std@@@std@@@2@@std@@QEAA@XZ 0000000180020ee0 f i WindowsPlatform.obj
 0001:0001ff60       ??1?$vector@_WV?$allocator@_W@std@@@std@@QEAA@XZ 0000000180020f60 f i WindowsPlatform.obj
 0001:0001ff60       ?_Tidy@?$vector@_WV?$allocator@_W@std@@@std@@AEAAXXZ 0000000180020f60 f i WindowsPlatform.obj
 0001:0001ffc0       ??1FileData@@QEAA@XZ       0000000180020fc0 f   WindowsPlatform.obj
 0001:0001ffd0       ??1FileHandle@@QEAA@XZ     0000000180020fd0 f   WindowsPlatform.obj
 0001:0001fff0       ??1FileMappingHandle@@QEAA@XZ 0000000180020ff0 f   WindowsPlatform.obj
 0001:00020000       ??1Registry@@QEAA@XZ       0000000180021000 f i WindowsPlatform.obj
 0001:00020020       ??1WindowsPlatform@@UEAA@XZ 0000000180021020 f   WindowsPlatform.obj
 0001:00020050       ??4?$_Tgt_state_t@V?$_String_const_iterator@V?$_String_val@U?$_Simple_types@_W@std@@@std@@@std@@@std@@QEAAAEAV01@AEBV01@@Z 0000000180021050 f i WindowsPlatform.obj
 0001:000200c0       ??4?$vector@IV?$allocator@I@std@@@std@@QEAAAEAV01@AEBV01@@Z 00000001800210c0 f i WindowsPlatform.obj
 0001:00020220       ??4?$vector@U_Grp_t@?$_Tgt_state_t@V?$_String_const_iterator@V?$_String_val@U?$_Simple_types@_W@std@@@std@@@std@@@std@@V?$allocator@U_Grp_t@?$_Tgt_state_t@V?$_String_const_iterator@V?$_String_val@U?$_Simple_types@_W@std@@@std@@@std@@@std@@@3@@std@@QEAAAEAV01@AEBV01@@Z 0000000180021220 f i WindowsPlatform.obj
 0001:00020390       ??4?$vector@V?$basic_string@_WU?$char_traits@_W@std@@V?$allocator@_W@2@@std@@V?$allocator@V?$basic_string@_WU?$char_traits@_W@std@@V?$allocator@_W@2@@std@@@2@@std@@QEAAAEAV01@$$QEAV01@@Z 0000000180021390 f i WindowsPlatform.obj
 0001:000203e0       ??H?$_Vb_iterator@U?$_Wrap_alloc@V?$allocator@I@std@@@std@@@std@@QEBA?AV01@_J@Z 00000001800213e0 f i WindowsPlatform.obj
 0001:00020454       ??_EWindowsPlatform@@$4PPPPPPPM@A@EAAPEAXI@Z 0000000180021454 f i WindowsPlatform.obj
 0001:00020460       ??_E?$_Node_class@_WV?$regex_traits@_W@std@@@std@@UEAAPEAXI@Z 0000000180021460 f i WindowsPlatform.obj
 0001:00020460       ??_G?$_Node_class@_WV?$regex_traits@_W@std@@@std@@UEAAPEAXI@Z 0000000180021460 f i WindowsPlatform.obj
 0001:00020570       ??_E?$_Node_str@_W@std@@UEAAPEAXI@Z 0000000180021570 f i WindowsPlatform.obj
 0001:00020570       ??_G?$_Node_str@_W@std@@UEAAPEAXI@Z 0000000180021570 f i WindowsPlatform.obj
 0001:000205c0       ??_G?$collate@_W@std@@MEAAPEAXI@Z 00000001800215c0 f i WindowsPlatform.obj
 0001:000205c0       ??_E?$collate@_W@std@@MEAAPEAXI@Z 00000001800215c0 f i WindowsPlatform.obj
 0001:00020610       ??_EProcess@@UEAAPEAXI@Z   0000000180021610 f i WindowsPlatform.obj
 0001:00020610       ??_GProcess@@UEAAPEAXI@Z   0000000180021610 f i WindowsPlatform.obj
 0001:00020640       ??_EWindowsJavaUserPreferences@@UEAAPEAXI@Z 0000000180021640 f i WindowsPlatform.obj
 0001:00020640       ??_GWindowsJavaUserPreferences@@UEAAPEAXI@Z 0000000180021640 f i WindowsPlatform.obj
 0001:00020680       ??_EWindowsPlatform@@UEAAPEAXI@Z 0000000180021680 f i WindowsPlatform.obj
 0001:00020680       ??_GWindowsPlatform@@UEAAPEAXI@Z 0000000180021680 f i WindowsPlatform.obj
 0001:00020700       ??_EWindowsProcess@@UEAAPEAXI@Z 0000000180021700 f i WindowsPlatform.obj
 0001:00020700       ??_GWindowsProcess@@UEAAPEAXI@Z 0000000180021700 f i WindowsPlatform.obj
 0001:00020770       ??_G_Node_assert@std@@UEAAPEAXI@Z 0000000180021770 f i WindowsPlatform.obj
 0001:00020770       ??_E_Node_assert@std@@UEAAPEAXI@Z 0000000180021770 f i WindowsPlatform.obj
 0001:00020800       ??_E_Node_end_rep@std@@UEAAPEAXI@Z 0000000180021800 f i WindowsPlatform.obj
 0001:00020800       ??_G_Node_end_rep@std@@UEAAPEAXI@Z 0000000180021800 f i WindowsPlatform.obj
 0001:00020800       ??_G_Node_back@std@@UEAAPEAXI@Z 0000000180021800 f i WindowsPlatform.obj
 0001:00020800       ??_G_Node_capture@std@@UEAAPEAXI@Z 0000000180021800 f i WindowsPlatform.obj
 0001:00020800       ??_E_Node_capture@std@@UEAAPEAXI@Z 0000000180021800 f i WindowsPlatform.obj
 0001:00020800       ??_E_Node_back@std@@UEAAPEAXI@Z 0000000180021800 f i WindowsPlatform.obj
 0001:00020800       ??_E_Node_end_group@std@@UEAAPEAXI@Z 0000000180021800 f i WindowsPlatform.obj
 0001:00020800       ??_G_Node_end_group@std@@UEAAPEAXI@Z 0000000180021800 f i WindowsPlatform.obj
 0001:00020830       ??_E_Node_endif@std@@UEAAPEAXI@Z 0000000180021830 f i WindowsPlatform.obj
 0001:00020830       ??_G_Node_endif@std@@UEAAPEAXI@Z 0000000180021830 f i WindowsPlatform.obj
 0001:00020830       ??_E_Node_base@std@@UEAAPEAXI@Z 0000000180021830 f i WindowsPlatform.obj
 0001:00020830       ??_G_Node_base@std@@UEAAPEAXI@Z 0000000180021830 f i WindowsPlatform.obj
 0001:00020860       ??_G_Node_if@std@@UEAAPEAXI@Z 0000000180021860 f i WindowsPlatform.obj
 0001:00020860       ??_E_Node_if@std@@UEAAPEAXI@Z 0000000180021860 f i WindowsPlatform.obj
 0001:00020920       ??_G_Node_rep@std@@UEAAPEAXI@Z 0000000180021920 f i WindowsPlatform.obj
 0001:00020920       ??_E_Node_rep@std@@UEAAPEAXI@Z 0000000180021920 f i WindowsPlatform.obj
 0001:00020950       ??_G_Root_node@std@@UEAAPEAXI@Z 0000000180021950 f i WindowsPlatform.obj
 0001:00020950       ??_E_Root_node@std@@UEAAPEAXI@Z 0000000180021950 f i WindowsPlatform.obj
 0001:0002097c       ?ConvertStringToFileSystemString@WindowsPlatform@@$4PPPPPPPM@A@EAAPEA_WPEA_WAEA_N@Z 000000018002197c f i WindowsPlatform.obj
 0001:0002097c       ?ConvertFileSystemStringToString@WindowsPlatform@@$4PPPPPPPM@A@EAAPEA_WPEA_WAEA_N@Z 000000018002197c f i WindowsPlatform.obj
 0001:00020990       ?ConvertJavaEcodedStringToString@@YA?AV?$basic_string@_WU?$char_traits@_W@std@@V?$allocator@_W@2@@std@@V12@@Z 0000000180021990 f   WindowsPlatform.obj
 0001:00020a8c       ?CreateProcessW@WindowsPlatform@@$4PPPPPPPM@A@EAAPEAVProcess@@XZ 0000000180021a8c f i WindowsPlatform.obj
 0001:00020aa0       ?CreateProcessW@WindowsPlatform@@UEAAPEAVProcess@@XZ 0000000180021aa0 f   WindowsPlatform.obj
 0001:00020ad0       ?Execute@WindowsProcess@@UEAA_NV?$basic_string@_WU?$char_traits@_W@std@@V?$allocator@_W@2@@std@@V?$vector@V?$basic_string@_WU?$char_traits@_W@std@@V?$allocator@_W@2@@std@@V?$allocator@V?$basic_string@_WU?$char_traits@_W@std@@V?$allocator@_W@2@@std@@@2@@3@_N@Z 0000000180021ad0 f   WindowsPlatform.obj
 0001:00020e90       ?FilterList@@YA?AV?$vector@V?$basic_string@_WU?$char_traits@_W@std@@V?$allocator@_W@2@@std@@V?$allocator@V?$basic_string@_WU?$char_traits@_W@std@@V?$allocator@_W@2@@std@@@2@@std@@AEAV12@V?$basic_regex@_WV?$regex_traits@_W@std@@@2@@Z 0000000180021e90 f   WindowsPlatform.obj
 0001:000210d0       ?FilterOutRuntimeDependenciesForPlatform@WindowsPlatform@@$4PPPPPPPM@A@EAA?AV?$vector@V?$basic_string@_WU?$char_traits@_W@std@@V?$allocator@_W@2@@std@@V?$allocator@V?$basic_string@_WU?$char_traits@_W@std@@V?$allocator@_W@2@@std@@@2@@std@@V23@@Z 00000001800220d0 f i WindowsPlatform.obj
 0001:000210e0       ?FilterOutRuntimeDependenciesForPlatform@WindowsPlatform@@UEAA?AV?$vector@V?$basic_string@_WU?$char_traits@_W@std@@V?$allocator@_W@2@@std@@V?$allocator@V?$basic_string@_WU?$char_traits@_W@std@@V?$allocator@_W@2@@std@@@2@@std@@V23@@Z 00000001800220e0 f   WindowsPlatform.obj
 0001:00021bac       ?FreeLibrary@WindowsPlatform@@$4PPPPPPPM@A@EAAXPEAX@Z 0000000180022bac f i WindowsPlatform.obj
 0001:00021bc0       ?FreeLibrary@WindowsPlatform@@UEAAXPEAX@Z 0000000180022bc0 f   WindowsPlatform.obj
 0001:00021bcc       ?GetAppDataDirectory@WindowsPlatform@@$4PPPPPPPM@A@EAA?AV?$basic_string@_WU?$char_traits@_W@std@@V?$allocator@_W@2@@std@@XZ 0000000180022bcc f i WindowsPlatform.obj
 0001:00021be0       ?GetAppDataDirectory@WindowsPlatform@@UEAA?AV?$basic_string@_WU?$char_traits@_W@std@@V?$allocator@_W@2@@std@@XZ 0000000180022be0 f   WindowsPlatform.obj
 0001:00021c8c       ?GetAppName@GenericPlatform@@$4PPPPPPPM@7EAA?AV?$basic_string@_WU?$char_traits@_W@std@@V?$allocator@_W@2@@std@@XZ 0000000180022c8c f i WindowsPlatform.obj
 0001:00021c9c       ?GetBundledJVMLibraryFileName@WindowsPlatform@@$4PPPPPPPM@A@EAA?AV?$basic_string@_WU?$char_traits@_W@std@@V?$allocator@_W@2@@std@@V23@@Z 0000000180022c9c f i WindowsPlatform.obj
 0001:00021cb0       ?GetBundledJVMLibraryFileName@WindowsPlatform@@UEAA?AV?$basic_string@_WU?$char_traits@_W@std@@V?$allocator@_W@2@@std@@V23@@Z 0000000180022cb0 f   WindowsPlatform.obj
 0001:00022290       ?GetConfigFile@WindowsPlatform@@$4PPPPPPPM@A@EAAPEAVISectionalPropertyContainer@@V?$basic_string@_WU?$char_traits@_W@std@@V?$allocator@_W@2@@std@@@Z 0000000180023290 f i WindowsPlatform.obj
 0001:000222a0       ?GetConfigFile@WindowsPlatform@@UEAAPEAVISectionalPropertyContainer@@V?$basic_string@_WU?$char_traits@_W@std@@V?$allocator@_W@2@@std@@@Z 00000001800232a0 f   WindowsPlatform.obj
 0001:00022348       ?GetConfigFileName@GenericPlatform@@$4PPPPPPPM@7EAA?AV?$basic_string@_WU?$char_traits@_W@std@@V?$allocator@_W@2@@std@@XZ 0000000180023348 f i WindowsPlatform.obj
 0001:00022360       ?GetHandle@WindowsJob@@QEAAPEAXXZ 0000000180023360 f   WindowsPlatform.obj
 0001:00022440       ?GetImports@WindowsLibrary@@QEAA?AV?$vector@V?$basic_string@_WU?$char_traits@_W@std@@V?$allocator@_W@2@@std@@V?$allocator@V?$basic_string@_WU?$char_traits@_W@std@@V?$allocator@_W@2@@std@@@2@@std@@XZ 0000000180023440 f   WindowsPlatform.obj
 0001:000226d0       ?GetImportsSection@WindowsLibrary@@CA?AV?$vector@V?$basic_string@_WU?$char_traits@_W@std@@V?$allocator@_W@2@@std@@V?$allocator@V?$basic_string@_WU?$char_traits@_W@std@@V?$allocator@_W@2@@std@@@2@@std@@KPEAU_IMAGE_NT_HEADERS64@@@Z 00000001800236d0 f   WindowsPlatform.obj
 0001:000229a8       ?GetKeys@GenericPlatform@@$4PPPPPPPM@7EAA?AV?$map@V?$basic_string@_WU?$char_traits@_W@std@@V?$allocator@_W@2@@std@@V12@U?$less@V?$basic_string@_WU?$char_traits@_W@std@@V?$allocator@_W@2@@std@@@2@V?$allocator@U?$pair@$$CBV?$basic_string@_WU?$char_traits@_W@std@@V?$allocator@_W@2@@std@@V12@@std@@@2@@std@@XZ 00000001800239a8 f i WindowsPlatform.obj
 0001:000229c0       ?GetKeys@Registry@@QEAA?AV?$list@V?$basic_string@_WU?$char_traits@_W@std@@V?$allocator@_W@2@@std@@V?$allocator@V?$basic_string@_WU?$char_traits@_W@std@@V?$allocator@_W@2@@std@@@2@@std@@XZ 00000001800239c0 f i WindowsPlatform.obj
 0001:00022c88       ?GetLibraryImports@WindowsPlatform@@$4PPPPPPPM@A@EAA?AV?$vector@V?$basic_string@_WU?$char_traits@_W@std@@V?$allocator@_W@2@@std@@V?$allocator@V?$basic_string@_WU?$char_traits@_W@std@@V?$allocator@_W@2@@std@@@2@@std@@V?$basic_string@_WU?$char_traits@_W@std@@V?$allocator@_W@2@@3@@Z 0000000180023c88 f i WindowsPlatform.obj
 0001:00022ca0       ?GetLibraryImports@WindowsPlatform@@UEAA?AV?$vector@V?$basic_string@_WU?$char_traits@_W@std@@V?$allocator@_W@2@@std@@V?$allocator@V?$basic_string@_WU?$char_traits@_W@std@@V?$allocator@_W@2@@std@@@2@@std@@V?$basic_string@_WU?$char_traits@_W@std@@V?$allocator@_W@2@@3@@Z 0000000180023ca0 f   WindowsPlatform.obj
 0001:00022e40       ?GetMemorySize@WindowsPlatform@@$4PPPPPPPM@A@EAA_KXZ 0000000180023e40 f i WindowsPlatform.obj
 0001:00022e50       ?GetMemorySize@WindowsPlatform@@UEAA_KXZ 0000000180023e50 f   WindowsPlatform.obj
 0001:00022e70       ?GetModuleFileNameW@WindowsPlatform@@$4PPPPPPPM@A@EAA?AV?$basic_string@_WU?$char_traits@_W@std@@V?$allocator@_W@2@@std@@XZ 0000000180023e70 f i WindowsPlatform.obj
 0001:00022e80       ?GetModuleFileNameW@WindowsPlatform@@UEAA?AV?$basic_string@_WU?$char_traits@_W@std@@V?$allocator@_W@2@@std@@XZ 0000000180023e80 f   WindowsPlatform.obj
 0001:00022fb0       ?GetPackageAppDirectory@GenericPlatform@@$4PPPPPPPM@7EAA?AV?$basic_string@_WU?$char_traits@_W@std@@V?$allocator@_W@2@@std@@XZ 0000000180023fb0 f i WindowsPlatform.obj
 0001:00022fc0       ?GetPackageLauncherDirectory@GenericPlatform@@$4PPPPPPPM@7EAA?AV?$basic_string@_WU?$char_traits@_W@std@@V?$allocator@_W@2@@std@@XZ 0000000180023fc0 f i WindowsPlatform.obj
 0001:00022fd0       ?GetPackageRootDirectory@WindowsPlatform@@$4PPPPPPPM@A@EAA?AV?$basic_string@_WU?$char_traits@_W@std@@V?$allocator@_W@2@@std@@XZ 0000000180023fd0 f i WindowsPlatform.obj
 0001:00022fe0       ?GetPackageRootDirectory@WindowsPlatform@@UEAA?AV?$basic_string@_WU?$char_traits@_W@std@@V?$allocator@_W@2@@std@@XZ 0000000180023fe0 f   WindowsPlatform.obj
 0001:0002312c       ?GetProcAddress@WindowsPlatform@@$4PPPPPPPM@A@EAAPEAXPEAXV?$basic_string@DU?$char_traits@D@std@@V?$allocator@D@2@@std@@@Z 000000018002412c f i WindowsPlatform.obj
 0001:00023140       ?GetProcAddress@WindowsPlatform@@UEAAPEAXPEAXV?$basic_string@DU?$char_traits@D@std@@V?$allocator@D@2@@std@@@Z 0000000180024140 f   WindowsPlatform.obj
 0001:000231d0       ?GetProcessID@WindowsProcess@@UEAAKXZ 00000001800241d0 f   WindowsPlatform.obj
 0001:000231d4       ?GetSystemJRE@WindowsPlatform@@$4PPPPPPPM@A@EAA?AV?$basic_string@_WU?$char_traits@_W@std@@V?$allocator@_W@2@@std@@XZ 00000001800241d4 f i WindowsPlatform.obj
 0001:000231e0       ?GetSystemJRE@WindowsPlatform@@UEAA?AV?$basic_string@_WU?$char_traits@_W@std@@V?$allocator@_W@2@@std@@XZ 00000001800241e0 f   WindowsPlatform.obj
 0001:000236c0       ?GetSystemJVMLibraryFileName@WindowsPlatform@@$4PPPPPPPM@A@EAA?AV?$basic_string@_WU?$char_traits@_W@std@@V?$allocator@_W@2@@std@@XZ 00000001800246c0 f i WindowsPlatform.obj
 0001:000236d0       ?GetSystemJVMLibraryFileName@WindowsPlatform@@UEAA?AV?$basic_string@_WU?$char_traits@_W@std@@V?$allocator@_W@2@@std@@XZ 00000001800246d0 f   WindowsPlatform.obj
 0001:000238c4       ?IsMainThread@WindowsPlatform@@$4PPPPPPPM@A@EAA_NXZ 00000001800248c4 f i WindowsPlatform.obj
 0001:000238d0       ?IsMainThread@WindowsPlatform@@UEAA_NXZ 00000001800248d0 f   WindowsPlatform.obj
 0001:000238f0       ?IsRunning@WindowsProcess@@UEAA_NXZ 00000001800248f0 f   WindowsPlatform.obj
 0001:000239b0       ?Load@WindowsJavaUserPreferences@@UEAA_NV?$basic_string@_WU?$char_traits@_W@std@@V?$allocator@_W@2@@std@@@Z 00000001800249b0 f   WindowsPlatform.obj
 0001:00024530       ?LoadFromFile@GenericPlatform@@$4PPPPPPPM@7EAA?AV?$list@V?$basic_string@_WU?$char_traits@_W@std@@V?$allocator@_W@2@@std@@V?$allocator@V?$basic_string@_WU?$char_traits@_W@std@@V?$allocator@_W@2@@std@@@2@@std@@V?$basic_string@_WU?$char_traits@_W@std@@V?$allocator@_W@2@@3@@Z 0000000180025530 f i WindowsPlatform.obj
 0001:00024540       ?LoadLibraryW@WindowsPlatform@@$4PPPPPPPM@A@EAAPEAXV?$basic_string@_WU?$char_traits@_W@std@@V?$allocator@_W@2@@std@@@Z 0000000180025540 f i WindowsPlatform.obj
 0001:00024550       ?LoadLibraryW@WindowsPlatform@@UEAAPEAXV?$basic_string@_WU?$char_traits@_W@std@@V?$allocator@_W@2@@std@@@Z 0000000180025550 f   WindowsPlatform.obj
 0001:00024590       ?ReadString@Registry@@QEAA?AV?$basic_string@_WU?$char_traits@_W@std@@V?$allocator@_W@2@@std@@V23@@Z 0000000180025590 f i WindowsPlatform.obj
 0001:000246f0       ?SaveToFile@GenericPlatform@@$4PPPPPPPM@7EAAXV?$basic_string@_WU?$char_traits@_W@std@@V?$allocator@_W@2@@std@@V?$list@V?$basic_string@_WU?$char_traits@_W@std@@V?$allocator@_W@2@@std@@V?$allocator@V?$basic_string@_WU?$char_traits@_W@std@@V?$allocator@_W@2@@std@@@2@@3@_N@Z 00000001800256f0 f i WindowsPlatform.obj
 0001:00024700       ?SetCurrentDirectoryW@WindowsPlatform@@$4PPPPPPPM@A@EAAXV?$basic_string@_WU?$char_traits@_W@std@@V?$allocator@_W@2@@std@@@Z 0000000180025700 f i WindowsPlatform.obj
 0001:00024710       ?SetCurrentDirectoryW@WindowsPlatform@@UEAAXV?$basic_string@_WU?$char_traits@_W@std@@V?$allocator@_W@2@@std@@@Z 0000000180025710 f   WindowsPlatform.obj
 0001:00024740       ?ShowMessage@WindowsPlatform@@$4PPPPPPPM@A@EAAXV?$basic_string@_WU?$char_traits@_W@std@@V?$allocator@_W@2@@std@@0@Z 0000000180025740 f i WindowsPlatform.obj
 0001:0002474c       ?ShowMessage@WindowsPlatform@@$4PPPPPPPM@A@EAAXV?$basic_string@_WU?$char_traits@_W@std@@V?$allocator@_W@2@@std@@@Z 000000018002574c f i WindowsPlatform.obj
 0001:00024760       ?ShowMessage@WindowsPlatform@@UEAAXV?$basic_string@_WU?$char_traits@_W@std@@V?$allocator@_W@2@@std@@0@Z 0000000180025760 f   WindowsPlatform.obj
 0001:000247e0       ?ShowMessage@WindowsPlatform@@UEAAXV?$basic_string@_WU?$char_traits@_W@std@@V?$allocator@_W@2@@std@@@Z 00000001800257e0 f   WindowsPlatform.obj
 0001:000249dc       ?ShowResponseMessage@WindowsPlatform@@$4PPPPPPPM@A@EAA?AW4MessageResponse@@V?$basic_string@_WU?$char_traits@_W@std@@V?$allocator@_W@2@@std@@0@Z 00000001800259dc f i WindowsPlatform.obj
 0001:000249f0       ?ShowResponseMessage@WindowsPlatform@@UEAA?AW4MessageResponse@@V?$basic_string@_WU?$char_traits@_W@std@@V?$allocator@_W@2@@std@@0@Z 00000001800259f0 f   WindowsPlatform.obj
 0001:00024a70       ?Terminate@WindowsProcess@@UEAA_NXZ 0000000180025a70 f   WindowsPlatform.obj
 0001:00024aa0       ?Wait@WindowsProcess@@UEAA_NXZ 0000000180025aa0 f   WindowsPlatform.obj
 0001:00024ac0       ?_Add_char@?$_Builder@PEB_W_WV?$regex_traits@_W@std@@@std@@QEAAX_W@Z 0000000180025ac0 f i WindowsPlatform.obj
 0001:00024be0       ?_Add_char_to_array@?$_Builder@PEB_W_WV?$regex_traits@_W@std@@@std@@AEAAX_W@Z 0000000180025be0 f i WindowsPlatform.obj
 0001:00024c90       ?_Add_char_to_class@?$_Builder@PEB_W_WV?$regex_traits@_W@std@@@std@@QEAAX_W@Z 0000000180025c90 f i WindowsPlatform.obj
 0001:00024d40       ?_Add_class@?$_Builder@PEB_W_WV?$regex_traits@_W@std@@@std@@QEAAXXZ 0000000180025d40 f i WindowsPlatform.obj
 0001:00024de0       ?_Add_equiv@?$_Builder@PEB_W_WV?$regex_traits@_W@std@@@std@@QEAAXPEB_W0_J@Z 0000000180025de0 f i WindowsPlatform.obj
 0001:000250f0       ?_Add_named_class@?$_Builder@PEB_W_WV?$regex_traits@_W@std@@@std@@QEAAXF_N@Z 00000001800260f0 f i WindowsPlatform.obj
 0001:000251e0       ?_Add_range@?$_Builder@PEB_W_WV?$regex_traits@_W@std@@@std@@QEAAX_W0@Z 00000001800261e0 f i WindowsPlatform.obj
 0001:00025430       ?_Add_rep@?$_Builder@PEB_W_WV?$regex_traits@_W@std@@@std@@QEAAXHH_N@Z 0000000180026430 f i WindowsPlatform.obj
 0001:00025770       ?_Alternative@?$_Parser@PEB_W_WV?$regex_traits@_W@std@@@std@@AEAA_NXZ 0000000180026770 f i WindowsPlatform.obj
 0001:00025be0       ?_AtomEscape@?$_Parser@PEB_W_WV?$regex_traits@_W@std@@@std@@AEAAXXZ 0000000180026be0 f i WindowsPlatform.obj
 0001:00025d60       ?_Beg_expr@?$_Builder@PEB_W_WV?$regex_traits@_W@std@@@std@@QEBA_NXZ 0000000180026d60 f i WindowsPlatform.obj
 0001:00025da0       ?_Begin_assert_group@?$_Builder@PEB_W_WV?$regex_traits@_W@std@@@std@@QEAAPEAV_Node_base@2@_N@Z 0000000180026da0 f i WindowsPlatform.obj
 0001:00025e90       ?_Begin_capture_group@?$_Builder@PEB_W_WV?$regex_traits@_W@std@@@std@@QEAAPEAV_Node_base@2@I@Z 0000000180026e90 f i WindowsPlatform.obj
 0001:00025f20       ?_Better_match@?$_Matcher@V?$_String_const_iterator@V?$_String_val@U?$_Simple_types@_W@std@@@std@@@std@@_WV?$regex_traits@_W@2@V12@@std@@AEAA_NXZ 0000000180026f20 f i WindowsPlatform.obj
 0001:00025fe0       ?_Calculate_loop_simplicity@std@@YAXPEAV_Node_base@1@0PEAV_Node_rep@1@@Z 0000000180026fe0 f i WindowsPlatform.obj
 0001:000260d0       ?_Char_to_elts@?$_Builder@PEB_W_WV?$regex_traits@_W@std@@@std@@AEAAXPEB_W0_JPEAPEAU?$_Sequence@_W@2@@Z 00000001800270d0 f i WindowsPlatform.obj
 0001:000261d0       ?_CharacterClassEscape@?$_Parser@PEB_W_WV?$regex_traits@_W@std@@@std@@AEAA_N_N@Z 00000001800271d0 f i WindowsPlatform.obj
 0001:00026280       ?_CharacterEscape@?$_Parser@PEB_W_WV?$regex_traits@_W@std@@@std@@AEAA_NXZ 0000000180027280 f i WindowsPlatform.obj
 0001:000265c0       ?_ClassAtom@?$_Parser@PEB_W_WV?$regex_traits@_W@std@@@std@@AEAA?AW4_Prs_ret@2@XZ 00000001800275c0 f i WindowsPlatform.obj
 0001:00026760       ?_ClassRanges@?$_Parser@PEB_W_WV?$regex_traits@_W@std@@@std@@AEAAXXZ 0000000180027760 f i WindowsPlatform.obj
 0001:00026c00       ?_Compile@?$_Parser@PEB_W_WV?$regex_traits@_W@std@@@std@@QEAAPEAV_Root_node@2@XZ 0000000180027c00 f i WindowsPlatform.obj
 0001:00026ca0       ?_DecimalDigits@?$_Parser@PEB_W_WV?$regex_traits@_W@std@@@std@@AEAA_NXZ 0000000180027ca0 f i WindowsPlatform.obj
 0001:00026d70       ?_Discard_pattern@?$_Builder@PEB_W_WV?$regex_traits@_W@std@@@std@@QEAAXXZ 0000000180027d70 f i WindowsPlatform.obj
 0001:00026dd0       ?_Disjunction@?$_Parser@PEB_W_WV?$regex_traits@_W@std@@@std@@AEAAXXZ 0000000180027dd0 f i WindowsPlatform.obj
 0001:000270c0       ?_Do_assert_group@?$_Parser@PEB_W_WV?$regex_traits@_W@std@@@std@@AEAAX_N@Z 00000001800280c0 f i WindowsPlatform.obj
 0001:00027110       ?_Do_class@?$_Matcher@V?$_String_const_iterator@V?$_String_val@U?$_Simple_types@_W@std@@@std@@@std@@_WV?$regex_traits@_W@2@V12@@std@@AEAA_NPEAV_Node_base@2@@Z 0000000180028110 f i WindowsPlatform.obj
 0001:000272e0       ?_Do_ex_class@?$_Parser@PEB_W_WV?$regex_traits@_W@std@@@std@@AEAAXW4_Meta_type@2@@Z 00000001800282e0 f i WindowsPlatform.obj
 0001:00027490       ?_Do_ffn@?$_Parser@PEB_W_WV?$regex_traits@_W@std@@@std@@AEAA_N_W@Z 0000000180028490 f i WindowsPlatform.obj
 0001:000274f0       ?_Do_if@?$_Matcher@V?$_String_const_iterator@V?$_String_val@U?$_Simple_types@_W@std@@@std@@@std@@_WV?$regex_traits@_W@2@V12@@std@@AEAA_NPEAV_Node_if@2@@Z 00000001800284f0 f i WindowsPlatform.obj
 0001:00027710       ?_Do_noncapture_group@?$_Parser@PEB_W_WV?$regex_traits@_W@std@@@std@@AEAAXXZ 0000000180028710 f i WindowsPlatform.obj
 0001:00027760       ?_Do_rep0@?$_Matcher@V?$_String_const_iterator@V?$_String_val@U?$_Simple_types@_W@std@@@std@@@std@@_WV?$regex_traits@_W@2@V12@@std@@AEAA_NPEAV_Node_rep@2@_N@Z 0000000180028760 f i WindowsPlatform.obj
 0001:000279e0       ?_Do_rep@?$_Matcher@V?$_String_const_iterator@V?$_String_val@U?$_Simple_types@_W@std@@@std@@@std@@_WV?$regex_traits@_W@2@V12@@std@@AEAA_NPEAV_Node_rep@2@_NH@Z 00000001800289e0 f i WindowsPlatform.obj
 0001:00027c90       ?_End_group@?$_Builder@PEB_W_WV?$regex_traits@_W@std@@@std@@QEAAXPEAV_Node_base@2@@Z 0000000180028c90 f i WindowsPlatform.obj
 0001:00027d50       ?_Error@?$_Parser@PEB_W_WV?$regex_traits@_W@std@@@std@@AEAAXW4error_type@regex_constants@2@@Z 0000000180028d50 f i WindowsPlatform.obj
 0001:00027d60       ?_Getal@?$_Vector_alloc@U?$_Vec_base_types@IV?$allocator@I@std@@@std@@@std@@QEAAAEAV?$allocator@I@2@XZ 0000000180028d60 f i WindowsPlatform.obj
 0001:00027d60       ?_Getal@?$_Vector_alloc@U?$_Vec_base_types@U_Loop_vals_t@std@@V?$allocator@U_Loop_vals_t@std@@@2@@std@@@std@@QEAAAEAV?$allocator@U_Loop_vals_t@std@@@2@XZ 0000000180028d60 f i WindowsPlatform.obj
 0001:00027d60       ?_Getal@?$_Vector_alloc@U?$_Vec_base_types@V?$sub_match@V?$_String_const_iterator@V?$_String_val@U?$_Simple_types@_W@std@@@std@@@std@@@std@@V?$allocator@V?$sub_match@V?$_String_const_iterator@V?$_String_val@U?$_Simple_types@_W@std@@@std@@@std@@@std@@@2@@std@@@std@@QEAAAEAV?$allocator@V?$sub_match@V?$_String_const_iterator@V?$_String_val@U?$_Simple_types@_W@std@@@std@@@std@@@std@@@2@XZ 0000000180028d60 f i WindowsPlatform.obj
 0001:00027d60       ?_Getal@?$_Vector_alloc@U?$_Vec_base_types@U_Grp_t@?$_Tgt_state_t@V?$_String_const_iterator@V?$_String_val@U?$_Simple_types@_W@std@@@std@@@std@@@std@@V?$allocator@U_Grp_t@?$_Tgt_state_t@V?$_String_const_iterator@V?$_String_val@U?$_Simple_types@_W@std@@@std@@@std@@@std@@@3@@std@@@std@@QEAAAEAV?$allocator@U_Grp_t@?$_Tgt_state_t@V?$_String_const_iterator@V?$_String_val@U?$_Simple_types@_W@std@@@std@@@std@@@std@@@2@XZ 0000000180028d60 f i WindowsPlatform.obj
 0001:00027d70       ?_HexDigits@?$_Parser@PEB_W_WV?$regex_traits@_W@std@@@std@@AEAAXH@Z 0000000180028d70 f i WindowsPlatform.obj
 0001:00027e80       ?_Insert_x@?$vector@_NV?$allocator@_N@std@@@std@@QEAA_KV?$_Vb_const_iterator@U?$_Wrap_alloc@V?$allocator@I@std@@@std@@@2@_K@Z 0000000180028e80 f i WindowsPlatform.obj
 0001:00028080       ?_Is_esc@?$_Parser@PEB_W_WV?$regex_traits@_W@std@@@std@@AEBA_NXZ 0000000180029080 f i WindowsPlatform.obj
 0001:000280d0       ?_Is_wbound@?$_Matcher@V?$_String_const_iterator@V?$_String_val@U?$_Simple_types@_W@std@@@std@@@std@@_WV?$regex_traits@_W@2@V12@@std@@AEBA_NXZ 00000001800290d0 f i WindowsPlatform.obj
 0001:00028190       ?_Match_pat@?$_Matcher@V?$_String_const_iterator@V?$_String_val@U?$_Simple_types@_W@std@@@std@@@std@@_WV?$regex_traits@_W@2@V12@@std@@AEAA_NPEAV_Node_base@2@@Z 0000000180029190 f i WindowsPlatform.obj
 0001:000286c0       ?_New_node@?$_Builder@PEB_W_WV?$regex_traits@_W@std@@@std@@AEAAPEAV_Node_base@2@W4_Node_type@2@@Z 00000001800296c0 f i WindowsPlatform.obj
 0001:00028750       ?_Next@?$_Parser@PEB_W_WV?$regex_traits@_W@std@@@std@@AEAAXXZ 0000000180029750 f i WindowsPlatform.obj
 0001:000287b0       ?_Skip@?$_Matcher@V?$_String_const_iterator@V?$_String_val@U?$_Simple_types@_W@std@@@std@@@std@@_WV?$regex_traits@_W@2@V12@@std@@QEAA?AV?$_String_const_iterator@V?$_String_val@U?$_Simple_types@_W@std@@@std@@@2@V32@0PEAV_Node_base@2@@Z 00000001800297b0 f i WindowsPlatform.obj
 0001:00028ae0       ?_Tidy@?$basic_regex@_WV?$regex_traits@_W@std@@@std@@AEAAXXZ 0000000180029ae0 f i WindowsPlatform.obj
 0001:00028b50       ?_Trans@?$_Parser@PEB_W_WV?$regex_traits@_W@std@@@std@@AEAAXXZ 0000000180029b50 f i WindowsPlatform.obj
 0001:00028d60       ?_Trim@?$vector@_NV?$allocator@_N@std@@@std@@QEAAX_K@Z 0000000180029d60 f i WindowsPlatform.obj
 0001:00028dd0       ?_Xlen@?$vector@_NV?$allocator@_N@std@@@std@@QEBAXXZ 0000000180029dd0 f i WindowsPlatform.obj
 0001:00028df0       ?allocate@?$allocator@U_Grp_t@?$_Tgt_state_t@V?$_String_const_iterator@V?$_String_val@U?$_Simple_types@_W@std@@@std@@@std@@@std@@@std@@QEAAPEAU_Grp_t@?$_Tgt_state_t@V?$_String_const_iterator@V?$_String_val@U?$_Simple_types@_W@std@@@std@@@std@@@2@_K@Z 0000000180029df0 f i WindowsPlatform.obj
 0001:00028e70       ?append@?$basic_string@_WU?$char_traits@_W@std@@V?$allocator@_W@2@@std@@QEAAAEAV12@_K_W@Z 0000000180029e70 f i WindowsPlatform.obj
 0001:00028ff0       ?deallocate@?$allocator@U_Loop_vals_t@std@@@std@@QEAAXQEAU_Loop_vals_t@2@_K@Z 0000000180029ff0 f i WindowsPlatform.obj
 0001:00028ff0       ?deallocate@?$allocator@U_Grp_t@?$_Tgt_state_t@V?$_String_const_iterator@V?$_String_val@U?$_Simple_types@_W@std@@@std@@@std@@@std@@@std@@QEAAXQEAU_Grp_t@?$_Tgt_state_t@V?$_String_const_iterator@V?$_String_val@U?$_Simple_types@_W@std@@@std@@@std@@@2@_K@Z 0000000180029ff0 f i WindowsPlatform.obj
 0001:00029040       ?deallocate@?$allocator@V?$sub_match@V?$_String_const_iterator@V?$_String_val@U?$_Simple_types@_W@std@@@std@@@std@@@std@@@std@@QEAAXQEAV?$sub_match@V?$_String_const_iterator@V?$_String_val@U?$_Simple_types@_W@std@@@std@@@std@@@2@_K@Z 000000018002a040 f i WindowsPlatform.obj
 0001:00029090       ?do_compare@?$collate@_W@std@@MEBAHPEB_W000@Z 000000018002a090 f i WindowsPlatform.obj
 0001:000290e0       ?do_hash@?$collate@_W@std@@MEBAJPEB_W0@Z 000000018002a0e0 f i WindowsPlatform.obj
 0001:00029130       ?do_transform@?$collate@_W@std@@MEBA?AV?$basic_string@_WU?$char_traits@_W@std@@V?$allocator@_W@2@@2@PEB_W0@Z 000000018002a130 f i WindowsPlatform.obj
 0001:00029250       ?erase@?$vector@_NV?$allocator@_N@std@@@std@@QEAA?AV?$_Vb_iterator@U?$_Wrap_alloc@V?$allocator@I@std@@@std@@@2@V?$_Vb_const_iterator@U?$_Wrap_alloc@V?$allocator@I@std@@@std@@@2@0@Z 000000018002a250 f i WindowsPlatform.obj
 0001:00029460       ?isctype@?$_Regex_traits@_W@std@@QEBA_N_WF@Z 000000018002a460 f i WindowsPlatform.obj
 0001:000294b0       ?name@locale@std@@QEBA?AV?$basic_string@DU?$char_traits@D@std@@V?$allocator@D@2@@2@XZ 000000018002a4b0 f i WindowsPlatform.obj
 0001:00029630       ?resize@?$vector@_NV?$allocator@_N@std@@@std@@QEAAX_K_N@Z 000000018002a630 f i WindowsPlatform.obj
 0001:00029860       ?translate@?$_Regex_traits@_W@std@@QEBA_W_W@Z 000000018002a860 f i WindowsPlatform.obj
 0001:0002990c       ?_Xlength_error@std@@YAXPEBD@Z 000000018002a90c f   msvcprt:MSVCP140.dll
 0001:00029912       ?_Xout_of_range@std@@YAXPEBD@Z 000000018002a912 f   msvcprt:MSVCP140.dll
 0001:00029918       ?uncaught_exception@std@@YA_NXZ 000000018002a918 f   msvcprt:MSVCP140.dll
 0001:0002991e       ?_Xbad_alloc@std@@YAXXZ    000000018002a91e f   msvcprt:MSVCP140.dll
 0001:00029924       ??1_Fac_tidy_reg_t@std@@QEAA@XZ 000000018002a924 f i msvcprt:locale0_implib.obj
 0001:0002998c       ?_Facet_Register@std@@YAXPEAV_Facet_base@1@@Z 000000018002a98c f   msvcprt:locale0_implib.obj
 0001:000299c4       ?empty@locale@std@@SA?AV12@XZ 000000018002a9c4 f   msvcprt:MSVCP140.dll
 0001:000299ca       ?_Getgloballocale@locale@std@@CAPEAV_Locimp@12@XZ 000000018002a9ca f   msvcprt:MSVCP140.dll
 0001:000299d0       ?_Fiopen@std@@YAPEAU_iobuf@@PEB_WHH@Z 000000018002a9d0 f   msvcprt:MSVCP140.dll
 0001:000299d6       ?_Decref@facet@locale@std@@UEAAPEAV_Facet_base@3@XZ 000000018002a9d6 f   msvcprt:MSVCP140.dll
 0001:000299dc       ?_Incref@facet@locale@std@@UEAAXXZ 000000018002a9dc f   msvcprt:MSVCP140.dll
 0001:000299e2       ?showmanyc@?$basic_streambuf@_WU?$char_traits@_W@std@@@std@@MEAA_JXZ 000000018002a9e2 f   msvcprt:MSVCP140.dll
 0001:000299e8       ?_Lock@?$basic_streambuf@DU?$char_traits@D@std@@@std@@UEAAXXZ 000000018002a9e8 f   msvcprt:MSVCP140.dll
 0001:000299ee       ?_Unlock@?$basic_streambuf@DU?$char_traits@D@std@@@std@@UEAAXXZ 000000018002a9ee f   msvcprt:MSVCP140.dll
 0001:000299f4       ?imbue@?$basic_streambuf@DU?$char_traits@D@std@@@std@@MEAAXAEBVlocale@2@@Z 000000018002a9f4 f   msvcprt:MSVCP140.dll
 0001:000299fa       ?setbuf@?$basic_streambuf@DU?$char_traits@D@std@@@std@@MEAAPEAV12@PEAD_J@Z 000000018002a9fa f   msvcprt:MSVCP140.dll
 0001:00029a00       ?showmanyc@?$basic_streambuf@DU?$char_traits@D@std@@@std@@MEAA_JXZ 000000018002aa00 f   msvcprt:MSVCP140.dll
 0001:00029a06       ?sync@?$basic_streambuf@DU?$char_traits@D@std@@@std@@MEAAHXZ 000000018002aa06 f   msvcprt:MSVCP140.dll
 0001:00029a0c       ?uflow@?$basic_streambuf@DU?$char_traits@D@std@@@std@@MEAAHXZ 000000018002aa0c f   msvcprt:MSVCP140.dll
 0001:00029a12       ?xsgetn@?$basic_streambuf@DU?$char_traits@D@std@@@std@@MEAA_JPEAD_J@Z 000000018002aa12 f   msvcprt:MSVCP140.dll
 0001:00029a18       ?xsputn@?$basic_streambuf@DU?$char_traits@D@std@@@std@@MEAA_JPEBD_J@Z 000000018002aa18 f   msvcprt:MSVCP140.dll
 0001:00029a1e       _Wcscoll                   000000018002aa1e f   msvcprt:MSVCP140.dll
 0001:00029a24       _Wcsxfrm                   000000018002aa24 f   msvcprt:MSVCP140.dll
 0001:00029a2a       ?_Init@locale@std@@CAPEAV_Locimp@12@_N@Z 000000018002aa2a f   msvcprt:MSVCP140.dll
 0001:00029a30       ?_Xregex_error@std@@YAXW4error_type@regex_constants@1@@Z 000000018002aa30 f   msvcprt:MSVCP140.dll
 0001:00029a38       ??2@YAPEAX_K@Z             000000018002aa38 f   MSVCRT:new_scalar.obj
 0001:00029a74       ??3@YAXPEAX_K@Z            000000018002aa74 f   MSVCRT:delete_scalar_size.obj
 0001:00029a74       ??_V@YAXPEAX@Z             000000018002aa74 f   MSVCRT:delete_array.obj
 0001:00029a7c       __GSHandlerCheck_EH        000000018002aa7c f   MSVCRT:gshandlereh.obj
 0001:00029b10       __security_check_cookie    000000018002ab10 f   MSVCRT:amdsecgs.obj
 0001:00029b34       ??_Gtype_info@@UEAAPEAXI@Z 000000018002ab34 f i MSVCRT:std_type_info_static.obj
 0001:00029b34       ??_Etype_info@@UEAAPEAXI@Z 000000018002ab34 f i MSVCRT:std_type_info_static.obj
 0001:00029b60       ??_U@YAPEAX_K@Z            000000018002ab60 f   MSVCRT:new_array.obj
 0001:00029b68       __GSHandlerCheck           000000018002ab68 f   MSVCRT:gshandler.obj
 0001:00029b88       __GSHandlerCheckCommon     000000018002ab88 f   MSVCRT:gshandler.obj
 0001:00029be4       __scrt_acquire_startup_lock 000000018002abe4 f   MSVCRT:utility.obj
 0001:00029c20       __scrt_dllmain_after_initialize_c 000000018002ac20 f   MSVCRT:utility.obj
 0001:00029c54       __scrt_dllmain_before_initialize_c 000000018002ac54 f   MSVCRT:utility.obj
 0001:00029c6c       __scrt_dllmain_crt_thread_attach 000000018002ac6c f   MSVCRT:utility.obj
 0001:00029c94       __scrt_dllmain_crt_thread_detach 000000018002ac94 f   MSVCRT:utility.obj
 0001:00029cac       __scrt_dllmain_exception_filter 000000018002acac f   MSVCRT:utility.obj
 0001:00029d0c       __scrt_dllmain_uninitialize_c 000000018002ad0c f   MSVCRT:utility.obj
 0001:00029d3c       __scrt_dllmain_uninitialize_critical 000000018002ad3c f   MSVCRT:utility.obj
 0001:00029d50       __scrt_initialize_crt      000000018002ad50 f   MSVCRT:utility.obj
 0001:00029d9c       __scrt_initialize_onexit_tables 000000018002ad9c f   MSVCRT:utility.obj
 0001:00029e74       __scrt_is_nonwritable_in_current_image 000000018002ae74 f   MSVCRT:utility.obj
 0001:00029f10       __scrt_release_startup_lock 000000018002af10 f   MSVCRT:utility.obj
 0001:00029f34       __scrt_uninitialize_crt    000000018002af34 f   MSVCRT:utility.obj
 0001:00029f60       _onexit                    000000018002af60 f   MSVCRT:utility.obj
 0001:00029fb0       atexit                     000000018002afb0 f   MSVCRT:utility.obj
 0001:0002a150       _Init_thread_abort         000000018002b150 f   MSVCRT:thread_safe_statics.obj
 0001:0002a180       _Init_thread_footer        000000018002b180 f   MSVCRT:thread_safe_statics.obj
 0001:0002a1e0       _Init_thread_header        000000018002b1e0 f   MSVCRT:thread_safe_statics.obj
 0001:0002a248       _Init_thread_notify        000000018002b248 f   MSVCRT:thread_safe_statics.obj
 0001:0002a298       _Init_thread_wait          000000018002b298 f   MSVCRT:thread_safe_statics.obj
 0001:0002a640       _DllMainCRTStartup         000000018002b640 f   MSVCRT:dll_dllmain.obj
 0001:0002a680       _guard_check_icall_nop     000000018002b680 f i MSVCRT:guard_support.obj
 0001:0002a684       ??0bad_alloc@std@@QEAA@AEBV01@@Z 000000018002b684 f i MSVCRT:throw_bad_alloc.obj
 0001:0002a6c4       ??0bad_alloc@std@@QEAA@XZ  000000018002b6c4 f i MSVCRT:throw_bad_alloc.obj
 0001:0002a6e4       ??0bad_array_new_length@std@@QEAA@AEBV01@@Z 000000018002b6e4 f i MSVCRT:throw_bad_alloc.obj
 0001:0002a724       ??0bad_array_new_length@std@@QEAA@XZ 000000018002b724 f i MSVCRT:throw_bad_alloc.obj
 0001:0002a744       ?__scrt_throw_std_bad_alloc@@YAXXZ 000000018002b744 f   MSVCRT:throw_bad_alloc.obj
 0001:0002a764       ?__scrt_throw_std_bad_array_new_length@@YAXXZ 000000018002b764 f   MSVCRT:throw_bad_alloc.obj
 0001:0002a784       ??3@YAXPEAX@Z              000000018002b784 f   MSVCRT:delete_scalar.obj
 0001:0002a78c       __raise_securityfailure    000000018002b78c f   MSVCRT:gs_report.obj
 0001:0002a7c0       __report_gsfailure         000000018002b7c0 f   MSVCRT:gs_report.obj
 0001:0002a908       __isa_available_init       000000018002b908 f   MSVCRT:cpu_disp.obj
 0001:0002aac4       __scrt_is_ucrt_dll_in_use  000000018002bac4 f   MSVCRT:ucrt_detection.obj
 0001:0002aad0       __crt_debugger_hook        000000018002bad0 f   MSVCRT:utility_desktop.obj
 0001:0002aad8       __scrt_fastfail            000000018002bad8 f   MSVCRT:utility_desktop.obj
 0001:0002ac24       __security_init_cookie     000000018002bc24 f   MSVCRT:gs_support.obj
 0001:0002acd0       ?__scrt_initialize_type_info@@YAXXZ 000000018002bcd0 f   MSVCRT:tncleanup.obj
 0001:0002ace0       ?__scrt_uninitialize_type_info@@YAXXZ 000000018002bce0 f   MSVCRT:tncleanup.obj
 0001:0002acec       __local_stdio_printf_options 000000018002bcec f i MSVCRT:default_local_stdio_options.obj
 0001:0002acf4       __local_stdio_scanf_options 000000018002bcf4 f i MSVCRT:default_local_stdio_options.obj
 0001:0002acfc       __scrt_initialize_default_local_stdio_options 000000018002bcfc f   MSVCRT:default_local_stdio_options.obj
 0001:0002ad18       __scrt_get_dyn_tls_init_callback 000000018002bd18 f   MSVCRT:dyn_tls_init.obj
 0001:0002ad20       _RTC_Initialize            000000018002bd20 f   MSVCRT:initsect.obj
 0001:0002ad5c       _RTC_Terminate             000000018002bd5c f   MSVCRT:initsect.obj
 0001:0002ada0       CreateToolhelp32Snapshot   000000018002bda0 f   kernel32:KERNEL32.dll
 0001:0002ada6       Process32FirstW            000000018002bda6 f   kernel32:KERNEL32.dll
 0001:0002adac       Process32NextW             000000018002bdac f   kernel32:KERNEL32.dll
 0001:0002adb2       IsProcessorFeaturePresent  000000018002bdb2 f   kernel32:KERNEL32.dll
 0001:0002adb8       _CxxThrowException         000000018002bdb8 f   vcruntime:VCRUNTIME140.dll
 0001:0002adbe       __CxxFrameHandler3         000000018002bdbe f   vcruntime:VCRUNTIME140.dll
 0001:0002adc4       memcpy                     000000018002bdc4 f   vcruntime:VCRUNTIME140.dll
 0001:0002adca       memmove                    000000018002bdca f   vcruntime:VCRUNTIME140.dll
 0001:0002add0       memset                     000000018002bdd0 f   vcruntime:VCRUNTIME140.dll
 0001:0002add6       _purecall                  000000018002bdd6 f   vcruntime:VCRUNTIME140.dll
 0001:0002addc       __std_terminate            000000018002bddc f   vcruntime:VCRUNTIME140.dll
 0001:0002ade2       __std_exception_copy       000000018002bde2 f   vcruntime:VCRUNTIME140.dll
 0001:0002ade8       __std_exception_destroy    000000018002bde8 f   vcruntime:VCRUNTIME140.dll
 0001:0002adee       __RTDynamicCast            000000018002bdee f   vcruntime:VCRUNTIME140.dll
 0001:0002adf4       strchr                     000000018002bdf4 f   vcruntime:VCRUNTIME140.dll
 0001:0002adfa       __C_specific_handler       000000018002bdfa f   vcruntime:VCRUNTIME140.dll
 0001:0002ae00       __std_type_info_destroy_list 000000018002be00 f   vcruntime:VCRUNTIME140.dll
 0001:0002ae06       free                       000000018002be06 f   ucrt:api-ms-win-crt-heap-l1-1-0.dll
 0001:0002ae0c       _callnewh                  000000018002be0c f   ucrt:api-ms-win-crt-heap-l1-1-0.dll
 0001:0002ae12       malloc                     000000018002be12 f   ucrt:api-ms-win-crt-heap-l1-1-0.dll
 0001:0002ae18       _seh_filter_dll            000000018002be18 f   ucrt:api-ms-win-crt-runtime-l1-1-0.dll
 0001:0002ae1e       _configure_narrow_argv     000000018002be1e f   ucrt:api-ms-win-crt-runtime-l1-1-0.dll
 0001:0002ae24       _initialize_narrow_environment 000000018002be24 f   ucrt:api-ms-win-crt-runtime-l1-1-0.dll
 0001:0002ae2a       _initialize_onexit_table   000000018002be2a f   ucrt:api-ms-win-crt-runtime-l1-1-0.dll
 0001:0002ae30       _register_onexit_function  000000018002be30 f   ucrt:api-ms-win-crt-runtime-l1-1-0.dll
 0001:0002ae36       _execute_onexit_table      000000018002be36 f   ucrt:api-ms-win-crt-runtime-l1-1-0.dll
 0001:0002ae3c       _crt_atexit                000000018002be3c f   ucrt:api-ms-win-crt-runtime-l1-1-0.dll
 0001:0002ae42       _cexit                     000000018002be42 f   ucrt:api-ms-win-crt-runtime-l1-1-0.dll
 0001:0002ae48       _initterm                  000000018002be48 f   ucrt:api-ms-win-crt-runtime-l1-1-0.dll
 0001:0002ae4e       _initterm_e                000000018002be4e f   ucrt:api-ms-win-crt-runtime-l1-1-0.dll
 0001:0002ae54       __vcrt_thread_attach       000000018002be54 f   MSVCRT:ucrt_stubs.obj
 0001:0002ae54       __scrt_stub_for_acrt_thread_detach 000000018002be54 f   MSVCRT:ucrt_stubs.obj
 0001:0002ae54       __vcrt_initialize          000000018002be54 f   MSVCRT:ucrt_stubs.obj
 0001:0002ae54       __acrt_uninitialize_critical 000000018002be54 f   MSVCRT:ucrt_stubs.obj
 0001:0002ae54       __vcrt_thread_detach       000000018002be54 f   MSVCRT:ucrt_stubs.obj
 0001:0002ae54       __scrt_stub_for_acrt_thread_attach 000000018002be54 f   MSVCRT:ucrt_stubs.obj
 0001:0002ae54       __acrt_thread_detach       000000018002be54 f   MSVCRT:ucrt_stubs.obj
 0001:0002ae54       __scrt_stub_for_acrt_uninitialize_critical 000000018002be54 f   MSVCRT:ucrt_stubs.obj
 0001:0002ae54       __acrt_thread_attach       000000018002be54 f   MSVCRT:ucrt_stubs.obj
 0001:0002ae54       __vcrt_uninitialize        000000018002be54 f   MSVCRT:ucrt_stubs.obj
 0001:0002ae54       __vcrt_uninitialize_critical 000000018002be54 f   MSVCRT:ucrt_stubs.obj
 0001:0002ae54       __scrt_stub_for_acrt_uninitialize 000000018002be54 f   MSVCRT:ucrt_stubs.obj
 0001:0002ae54       __acrt_initialize          000000018002be54 f   MSVCRT:ucrt_stubs.obj
 0001:0002ae54       __acrt_uninitialize        000000018002be54 f   MSVCRT:ucrt_stubs.obj
 0001:0002ae54       __scrt_stub_for_acrt_initialize 000000018002be54 f   MSVCRT:ucrt_stubs.obj
 0001:0002ae70       _guard_dispatch_icall_nop  000000018002be70 f   MSVCRT:guard_dispatch.obj
 0002:00000000       __imp_RegQueryValueExW     000000018002f000     advapi32:ADVAPI32.dll
 0002:00000008       __imp_RegQueryInfoKeyW     000000018002f008     advapi32:ADVAPI32.dll
 0002:00000010       __imp_RegOpenKeyExW        000000018002f010     advapi32:ADVAPI32.dll
 0002:00000018       __imp_RegEnumValueW        000000018002f018     advapi32:ADVAPI32.dll
 0002:00000020       __imp_RegCloseKey          000000018002f020     advapi32:ADVAPI32.dll
 0002:00000028       \177ADVAPI32_NULL_THUNK_DATA 000000018002f028     advapi32:ADVAPI32.dll
 0002:00000030       __imp_QueryPerformanceCounter 000000018002f030     kernel32:KERNEL32.dll
 0002:00000038       __imp_GetCurrentProcessId  000000018002f038     kernel32:KERNEL32.dll
 0002:00000040       __imp_GetSystemTimeAsFileTime 000000018002f040     kernel32:KERNEL32.dll
 0002:00000048       __imp_IsDebuggerPresent    000000018002f048     kernel32:KERNEL32.dll
 0002:00000050       __imp_IsProcessorFeaturePresent 000000018002f050     kernel32:KERNEL32.dll
 0002:00000058       __imp_TerminateProcess     000000018002f058     kernel32:KERNEL32.dll
 0002:00000060       __imp_GetCurrentProcess    000000018002f060     kernel32:KERNEL32.dll
 0002:00000068       __imp_SetUnhandledExceptionFilter 000000018002f068     kernel32:KERNEL32.dll
 0002:00000070       __imp_UnhandledExceptionFilter 000000018002f070     kernel32:KERNEL32.dll
 0002:00000078       __imp_RtlVirtualUnwind     000000018002f078     kernel32:KERNEL32.dll
 0002:00000080       __imp_RtlLookupFunctionEntry 000000018002f080     kernel32:KERNEL32.dll
 0002:00000088       __imp_RtlCaptureContext    000000018002f088     kernel32:KERNEL32.dll
 0002:00000090       __imp_GetModuleHandleW     000000018002f090     kernel32:KERNEL32.dll
 0002:00000098       __imp_CreateEventW         000000018002f098     kernel32:KERNEL32.dll
 0002:000000a0       __imp_WaitForSingleObjectEx 000000018002f0a0     kernel32:KERNEL32.dll
 0002:000000a8       __imp_ResetEvent           000000018002f0a8     kernel32:KERNEL32.dll
 0002:000000b0       __imp_SetEvent             000000018002f0b0     kernel32:KERNEL32.dll
 0002:000000b8       __imp_Process32NextW       000000018002f0b8     kernel32:KERNEL32.dll
 0002:000000c0       __imp_Process32FirstW      000000018002f0c0     kernel32:KERNEL32.dll
 0002:000000c8       __imp_CreateToolhelp32Snapshot 000000018002f0c8     kernel32:KERNEL32.dll
 0002:000000d0       __imp_LoadLibraryW         000000018002f0d0     kernel32:KERNEL32.dll
 0002:000000d8       __imp_GetProcAddress       000000018002f0d8     kernel32:KERNEL32.dll
 0002:000000e0       __imp_GetModuleFileNameW   000000018002f0e0     kernel32:KERNEL32.dll
 0002:000000e8       __imp_FreeLibrary          000000018002f0e8     kernel32:KERNEL32.dll
 0002:000000f0       __imp_SetInformationJobObject 000000018002f0f0     kernel32:KERNEL32.dll
 0002:000000f8       __imp_AssignProcessToJobObject 000000018002f0f8     kernel32:KERNEL32.dll
 0002:00000100       __imp_CreateJobObjectW     000000018002f100     kernel32:KERNEL32.dll
 0002:00000108       __imp_UnmapViewOfFile      000000018002f108     kernel32:KERNEL32.dll
 0002:00000110       __imp_MapViewOfFile        000000018002f110     kernel32:KERNEL32.dll
 0002:00000118       __imp_CreateFileMappingW   000000018002f118     kernel32:KERNEL32.dll
 0002:00000120       __imp_GetSystemInfo        000000018002f120     kernel32:KERNEL32.dll
 0002:00000128       __imp_CreateProcessW       000000018002f128     kernel32:KERNEL32.dll
 0002:00000130       __imp_GetCurrentThreadId   000000018002f130     kernel32:KERNEL32.dll
 0002:00000138       __imp_CreateFileW          000000018002f138     kernel32:KERNEL32.dll
 0002:00000140       __imp_WaitForSingleObject  000000018002f140     kernel32:KERNEL32.dll
 0002:00000148       __imp_CloseHandle          000000018002f148     kernel32:KERNEL32.dll
 0002:00000150       __imp_DeleteCriticalSection 000000018002f150     kernel32:KERNEL32.dll
 0002:00000158       __imp_InitializeCriticalSectionAndSpinCount 000000018002f158     kernel32:KERNEL32.dll
 0002:00000160       __imp_LeaveCriticalSection 000000018002f160     kernel32:KERNEL32.dll
 0002:00000168       __imp_EnterCriticalSection 000000018002f168     kernel32:KERNEL32.dll
 0002:00000170       __imp_GetLastError         000000018002f170     kernel32:KERNEL32.dll
 0002:00000178       __imp_SetFileAttributesW   000000018002f178     kernel32:KERNEL32.dll
 0002:00000180       __imp_GetFileAttributesW   000000018002f180     kernel32:KERNEL32.dll
 0002:00000188       __imp_FindFirstFileW       000000018002f188     kernel32:KERNEL32.dll
 0002:00000190       __imp_FindClose            000000018002f190     kernel32:KERNEL32.dll
 0002:00000198       __imp_DeleteFileW          000000018002f198     kernel32:KERNEL32.dll
 0002:000001a0       __imp_InitializeSListHead  000000018002f1a0     kernel32:KERNEL32.dll
 0002:000001a8       \177KERNEL32_NULL_THUNK_DATA 000000018002f1a8     kernel32:KERNEL32.dll
 0002:000001b0       __imp_?_Ipfx@?$basic_istream@_WU?$char_traits@_W@std@@@std@@QEAA_N_N@Z 000000018002f1b0     msvcprt:MSVCP140.dll
 0002:000001b8       __imp_?_Fiopen@std@@YAPEAU_iobuf@@PEB_WHH@Z 000000018002f1b8     msvcprt:MSVCP140.dll
 0002:000001c0       __imp_?_Decref@facet@locale@std@@UEAAPEAV_Facet_base@3@XZ 000000018002f1c0     msvcprt:MSVCP140.dll
 0002:000001c8       __imp_?_Incref@facet@locale@std@@UEAAXXZ 000000018002f1c8     msvcprt:MSVCP140.dll
 0002:000001d0       __imp_?showmanyc@?$basic_streambuf@_WU?$char_traits@_W@std@@@std@@MEAA_JXZ 000000018002f1d0     msvcprt:MSVCP140.dll
 0002:000001d8       __imp_?id@?$codecvt@_WDU_Mbstatet@@@std@@2V0locale@2@A 000000018002f1d8     msvcprt:MSVCP140.dll
 0002:000001e0       __imp_??0?$basic_streambuf@DU?$char_traits@D@std@@@std@@IEAA@XZ 000000018002f1e0     msvcprt:MSVCP140.dll
 0002:000001e8       __imp_??1?$basic_streambuf@DU?$char_traits@D@std@@@std@@UEAA@XZ 000000018002f1e8     msvcprt:MSVCP140.dll
 0002:000001f0       __imp_?_Pninc@?$basic_streambuf@DU?$char_traits@D@std@@@std@@IEAAPEADXZ 000000018002f1f0     msvcprt:MSVCP140.dll
 0002:000001f8       __imp_??1?$basic_ios@DU?$char_traits@D@std@@@std@@UEAA@XZ 000000018002f1f8     msvcprt:MSVCP140.dll
 0002:00000200       __imp_??0?$basic_ios@DU?$char_traits@D@std@@@std@@IEAA@XZ 000000018002f200     msvcprt:MSVCP140.dll
 0002:00000208       __imp_??6?$basic_ostream@DU?$char_traits@D@std@@@std@@QEAAAEAV01@_K@Z 000000018002f208     msvcprt:MSVCP140.dll
 0002:00000210       __imp_??0?$basic_iostream@DU?$char_traits@D@std@@@std@@QEAA@PEAV?$basic_streambuf@DU?$char_traits@D@std@@@1@@Z 000000018002f210     msvcprt:MSVCP140.dll
 0002:00000218       __imp_??1?$basic_iostream@DU?$char_traits@D@std@@@std@@UEAA@XZ 000000018002f218     msvcprt:MSVCP140.dll
 0002:00000220       __imp_?_Lock@?$basic_streambuf@DU?$char_traits@D@std@@@std@@UEAAXXZ 000000018002f220     msvcprt:MSVCP140.dll
 0002:00000228       __imp_?_Unlock@?$basic_streambuf@DU?$char_traits@D@std@@@std@@UEAAXXZ 000000018002f228     msvcprt:MSVCP140.dll
 0002:00000230       __imp_??0?$basic_istream@_WU?$char_traits@_W@std@@@std@@QEAA@PEAV?$basic_streambuf@_WU?$char_traits@_W@std@@@1@_N@Z 000000018002f230     msvcprt:MSVCP140.dll
 0002:00000238       __imp_?setbuf@?$basic_streambuf@DU?$char_traits@D@std@@@std@@MEAAPEAV12@PEAD_J@Z 000000018002f238     msvcprt:MSVCP140.dll
 0002:00000240       __imp_?showmanyc@?$basic_streambuf@DU?$char_traits@D@std@@@std@@MEAA_JXZ 000000018002f240     msvcprt:MSVCP140.dll
 0002:00000248       __imp_?sync@?$basic_streambuf@DU?$char_traits@D@std@@@std@@MEAAHXZ 000000018002f248     msvcprt:MSVCP140.dll
 0002:00000250       __imp_?uflow@?$basic_streambuf@DU?$char_traits@D@std@@@std@@MEAAHXZ 000000018002f250     msvcprt:MSVCP140.dll
 0002:00000258       __imp_?xsgetn@?$basic_streambuf@DU?$char_traits@D@std@@@std@@MEAA_JPEAD_J@Z 000000018002f258     msvcprt:MSVCP140.dll
 0002:00000260       __imp_?xsputn@?$basic_streambuf@DU?$char_traits@D@std@@@std@@MEAA_JPEBD_J@Z 000000018002f260     msvcprt:MSVCP140.dll
 0002:00000268       __imp__Wcscoll             000000018002f268     msvcprt:MSVCP140.dll
 0002:00000270       __imp__Wcsxfrm             000000018002f270     msvcprt:MSVCP140.dll
 0002:00000278       __imp_??0_Locinfo@std@@QEAA@PEBD@Z 000000018002f278     msvcprt:MSVCP140.dll
 0002:00000280       __imp_??1_Locinfo@std@@QEAA@XZ 000000018002f280     msvcprt:MSVCP140.dll
 0002:00000288       __imp_?_Getcoll@_Locinfo@std@@QEBA?AU_Collvec@@XZ 000000018002f288     msvcprt:MSVCP140.dll
 0002:00000290       __imp_??0facet@locale@std@@IEAA@_K@Z 000000018002f290     msvcprt:MSVCP140.dll
 0002:00000298       __imp_??1facet@locale@std@@MEAA@XZ 000000018002f298     msvcprt:MSVCP140.dll
 0002:000002a0       __imp_?_Init@locale@std@@CAPEAV_Locimp@12@_N@Z 000000018002f2a0     msvcprt:MSVCP140.dll
 0002:000002a8       __imp_?is@?$ctype@_W@std@@QEBA_NF_W@Z 000000018002f2a8     msvcprt:MSVCP140.dll
 0002:000002b0       __imp_?tolower@?$ctype@_W@std@@QEBA_W_W@Z 000000018002f2b0     msvcprt:MSVCP140.dll
 0002:000002b8       __imp_?tolower@?$ctype@_W@std@@QEBAPEB_WPEA_WPEB_W@Z 000000018002f2b8     msvcprt:MSVCP140.dll
 0002:000002c0       __imp_?_Getcat@?$ctype@_W@std@@SA_KPEAPEBVfacet@locale@2@PEBV42@@Z 000000018002f2c0     msvcprt:MSVCP140.dll
 0002:000002c8       __imp_?_Xregex_error@std@@YAXW4error_type@regex_constants@1@@Z 000000018002f2c8     msvcprt:MSVCP140.dll
 0002:000002d0       __imp_?id@?$ctype@_W@std@@2V0locale@2@A 000000018002f2d0     msvcprt:MSVCP140.dll
 0002:000002d8       __imp_?id@?$collate@_W@std@@2V0locale@2@A 000000018002f2d8     msvcprt:MSVCP140.dll
 0002:000002e0       __imp_??1?$basic_istream@_WU?$char_traits@_W@std@@@std@@UEAA@XZ 000000018002f2e0     msvcprt:MSVCP140.dll
 0002:000002e8       __imp_?flush@?$basic_ostream@_WU?$char_traits@_W@std@@@std@@QEAAAEAV12@XZ 000000018002f2e8     msvcprt:MSVCP140.dll
 0002:000002f0       __imp_?put@?$basic_ostream@_WU?$char_traits@_W@std@@@std@@QEAAAEAV12@_W@Z 000000018002f2f0     msvcprt:MSVCP140.dll
 0002:000002f8       __imp_??6?$basic_ostream@_WU?$char_traits@_W@std@@@std@@QEAAAEAV01@P6AAEAV01@AEAV01@@Z@Z 000000018002f2f8     msvcprt:MSVCP140.dll
 0002:00000300       __imp_?_Osfx@?$basic_ostream@_WU?$char_traits@_W@std@@@std@@QEAAXXZ 000000018002f300     msvcprt:MSVCP140.dll
 0002:00000308       __imp_??1?$basic_ostream@_WU?$char_traits@_W@std@@@std@@UEAA@XZ 000000018002f308     msvcprt:MSVCP140.dll
 0002:00000310       __imp_??0?$basic_ostream@_WU?$char_traits@_W@std@@@std@@QEAA@PEAV?$basic_streambuf@_WU?$char_traits@_W@std@@@1@_N@Z 000000018002f310     msvcprt:MSVCP140.dll
 0002:00000318       __imp_??0?$basic_ios@_WU?$char_traits@_W@std@@@std@@IEAA@XZ 000000018002f318     msvcprt:MSVCP140.dll
 0002:00000320       __imp_?_Xlength_error@std@@YAXPEBD@Z 000000018002f320     msvcprt:MSVCP140.dll
 0002:00000328       __imp_?widen@?$basic_ios@_WU?$char_traits@_W@std@@@std@@QEBA_WD@Z 000000018002f328     msvcprt:MSVCP140.dll
 0002:00000330       __imp_?imbue@?$basic_ios@_WU?$char_traits@_W@std@@@std@@QEAA?AVlocale@2@AEBV32@@Z 000000018002f330     msvcprt:MSVCP140.dll
 0002:00000338       __imp_?setstate@?$basic_ios@_WU?$char_traits@_W@std@@@std@@QEAAXH_N@Z 000000018002f338     msvcprt:MSVCP140.dll
 0002:00000340       __imp_??1?$basic_ios@_WU?$char_traits@_W@std@@@std@@UEAA@XZ 000000018002f340     msvcprt:MSVCP140.dll
 0002:00000348       __imp_?xsputn@?$basic_streambuf@_WU?$char_traits@_W@std@@@std@@MEAA_JPEB_W_J@Z 000000018002f348     msvcprt:MSVCP140.dll
 0002:00000350       __imp_?xsgetn@?$basic_streambuf@_WU?$char_traits@_W@std@@@std@@MEAA_JPEA_W_J@Z 000000018002f350     msvcprt:MSVCP140.dll
 0002:00000358       __imp_?_Init@?$basic_streambuf@_WU?$char_traits@_W@std@@@std@@IEAAXXZ 000000018002f358     msvcprt:MSVCP140.dll
 0002:00000360       __imp_?_Pninc@?$basic_streambuf@_WU?$char_traits@_W@std@@@std@@IEAAPEA_WXZ 000000018002f360     msvcprt:MSVCP140.dll
 0002:00000368       __imp_?sputn@?$basic_streambuf@_WU?$char_traits@_W@std@@@std@@QEAA_JPEB_W_J@Z 000000018002f368     msvcprt:MSVCP140.dll
 0002:00000370       __imp_?sputc@?$basic_streambuf@_WU?$char_traits@_W@std@@@std@@QEAAG_W@Z 000000018002f370     msvcprt:MSVCP140.dll
 0002:00000378       __imp_?snextc@?$basic_streambuf@_WU?$char_traits@_W@std@@@std@@QEAAGXZ 000000018002f378     msvcprt:MSVCP140.dll
 0002:00000380       __imp_?sgetc@?$basic_streambuf@_WU?$char_traits@_W@std@@@std@@QEAAGXZ 000000018002f380     msvcprt:MSVCP140.dll
 0002:00000388       __imp_?sbumpc@?$basic_streambuf@_WU?$char_traits@_W@std@@@std@@QEAAGXZ 000000018002f388     msvcprt:MSVCP140.dll
 0002:00000390       __imp_?getloc@?$basic_streambuf@_WU?$char_traits@_W@std@@@std@@QEBA?AVlocale@2@XZ 000000018002f390     msvcprt:MSVCP140.dll
 0002:00000398       __imp_??1?$basic_streambuf@_WU?$char_traits@_W@std@@@std@@UEAA@XZ 000000018002f398     msvcprt:MSVCP140.dll
 0002:000003a0       __imp_??0?$basic_streambuf@_WU?$char_traits@_W@std@@@std@@IEAA@XZ 000000018002f3a0     msvcprt:MSVCP140.dll
 0002:000003a8       __imp_??1?$codecvt@_WDU_Mbstatet@@@std@@MEAA@XZ 000000018002f3a8     msvcprt:MSVCP140.dll
 0002:000003b0       __imp_?_Getcat@?$codecvt@_WDU_Mbstatet@@@std@@SA_KPEAPEBVfacet@locale@2@PEBV42@@Z 000000018002f3b0     msvcprt:MSVCP140.dll
 0002:000003b8       __imp_??0?$codecvt@_WDU_Mbstatet@@@std@@QEAA@_K@Z 000000018002f3b8     msvcprt:MSVCP140.dll
 0002:000003c0       __imp_?unshift@?$codecvt@_WDU_Mbstatet@@@std@@QEBAHAEAU_Mbstatet@@PEAD1AEAPEAD@Z 000000018002f3c0     msvcprt:MSVCP140.dll
 0002:000003c8       __imp_?out@?$codecvt@_WDU_Mbstatet@@@std@@QEBAHAEAU_Mbstatet@@PEB_W1AEAPEB_WPEAD3AEAPEAD@Z 000000018002f3c8     msvcprt:MSVCP140.dll
 0002:000003d0       __imp_?in@?$codecvt@_WDU_Mbstatet@@@std@@QEBAHAEAU_Mbstatet@@PEBD1AEAPEBDPEA_W3AEAPEA_W@Z 000000018002f3d0     msvcprt:MSVCP140.dll
 0002:000003d8       __imp_?always_noconv@codecvt_base@std@@QEBA_NXZ 000000018002f3d8     msvcprt:MSVCP140.dll
 0002:000003e0       __imp_?_Getgloballocale@locale@std@@CAPEAV_Locimp@12@XZ 000000018002f3e0     msvcprt:MSVCP140.dll
 0002:000003e8       __imp_?empty@locale@std@@SA?AV12@XZ 000000018002f3e8     msvcprt:MSVCP140.dll
 0002:000003f0       __imp_?_Locimp_Addfac@_Locimp@locale@std@@CAXPEAV123@PEAVfacet@23@_K@Z 000000018002f3f0     msvcprt:MSVCP140.dll
 0002:000003f8       __imp_?_New_Locimp@_Locimp@locale@std@@CAPEAV123@AEBV123@@Z 000000018002f3f8     msvcprt:MSVCP140.dll
 0002:00000400       __imp_??Bid@locale@std@@QEAA_KXZ 000000018002f400     msvcprt:MSVCP140.dll
 0002:00000408       __imp_??4?$_Yarn@D@std@@QEAAAEAV01@PEBD@Z 000000018002f408     msvcprt:MSVCP140.dll
 0002:00000410       __imp_?_Xbad_alloc@std@@YAXXZ 000000018002f410     msvcprt:MSVCP140.dll
 0002:00000418       __imp_?uncaught_exception@std@@YA_NXZ 000000018002f418     msvcprt:MSVCP140.dll
 0002:00000420       __imp_??1_Lockit@std@@QEAA@XZ 000000018002f420     msvcprt:MSVCP140.dll
 0002:00000428       __imp_??0_Lockit@std@@QEAA@H@Z 000000018002f428     msvcprt:MSVCP140.dll
 0002:00000430       __imp_?_Xout_of_range@std@@YAXPEBD@Z 000000018002f430     msvcprt:MSVCP140.dll
 0002:00000438       __imp_?imbue@?$basic_streambuf@DU?$char_traits@D@std@@@std@@MEAAXAEBVlocale@2@@Z 000000018002f438     msvcprt:MSVCP140.dll
 0002:00000440       \177MSVCP140_NULL_THUNK_DATA 000000018002f440     msvcprt:MSVCP140.dll
 0002:00000448       __imp_SHGetFolderPathW     000000018002f448     shell32:SHELL32.dll
 0002:00000450       \177SHELL32_NULL_THUNK_DATA 000000018002f450     shell32:SHELL32.dll
 0002:00000458       __imp_MessageBoxW          000000018002f458     user32:USER32.dll
 0002:00000460       \177USER32_NULL_THUNK_DATA 000000018002f460     user32:USER32.dll
 0002:00000468       __imp__CxxThrowException   000000018002f468     vcruntime:VCRUNTIME140.dll
 0002:00000470       __imp___CxxFrameHandler3   000000018002f470     vcruntime:VCRUNTIME140.dll
 0002:00000478       __imp_memcpy               000000018002f478     vcruntime:VCRUNTIME140.dll
 0002:00000480       __imp_memmove              000000018002f480     vcruntime:VCRUNTIME140.dll
 0002:00000488       __imp_memset               000000018002f488     vcruntime:VCRUNTIME140.dll
 0002:00000490       __imp__purecall            000000018002f490     vcruntime:VCRUNTIME140.dll
 0002:00000498       __imp___std_terminate      000000018002f498     vcruntime:VCRUNTIME140.dll
 0002:000004a0       __imp___std_exception_copy 000000018002f4a0     vcruntime:VCRUNTIME140.dll
 0002:000004a8       __imp___std_exception_destroy 000000018002f4a8     vcruntime:VCRUNTIME140.dll
 0002:000004b0       __imp___RTDynamicCast      000000018002f4b0     vcruntime:VCRUNTIME140.dll
 0002:000004b8       __imp_strchr               000000018002f4b8     vcruntime:VCRUNTIME140.dll
 0002:000004c0       __imp___C_specific_handler 000000018002f4c0     vcruntime:VCRUNTIME140.dll
 0002:000004c8       __imp___std_type_info_destroy_list 000000018002f4c8     vcruntime:VCRUNTIME140.dll
 0002:000004d0       \177VCRUNTIME140_NULL_THUNK_DATA 000000018002f4d0     vcruntime:VCRUNTIME140.dll
 0002:000004d8       __imp_atoi                 000000018002f4d8     ucrt:api-ms-win-crt-convert-l1-1-0.dll
 0002:000004e0       __imp_mbstowcs_s           000000018002f4e0     ucrt:api-ms-win-crt-convert-l1-1-0.dll
 0002:000004e8       __imp_wcstombs_s           000000018002f4e8     ucrt:api-ms-win-crt-convert-l1-1-0.dll
 0002:000004f0       \177api-ms-win-crt-convert-l1-1-0_NULL_THUNK_DATA 000000018002f4f0     ucrt:api-ms-win-crt-convert-l1-1-0.dll
 0002:000004f8       __imp__wchdir              000000018002f4f8     ucrt:api-ms-win-crt-filesystem-l1-1-0.dll
 0002:00000500       __imp__wmkdir              000000018002f500     ucrt:api-ms-win-crt-filesystem-l1-1-0.dll
 0002:00000508       __imp__unlock_file         000000018002f508     ucrt:api-ms-win-crt-filesystem-l1-1-0.dll
 0002:00000510       __imp__lock_file           000000018002f510     ucrt:api-ms-win-crt-filesystem-l1-1-0.dll
 0002:00000518       \177api-ms-win-crt-filesystem-l1-1-0_NULL_THUNK_DATA 000000018002f518     ucrt:api-ms-win-crt-filesystem-l1-1-0.dll
 0002:00000520       __imp_realloc              000000018002f520     ucrt:api-ms-win-crt-heap-l1-1-0.dll
 0002:00000528       __imp_free                 000000018002f528     ucrt:api-ms-win-crt-heap-l1-1-0.dll
 0002:00000530       __imp__callnewh            000000018002f530     ucrt:api-ms-win-crt-heap-l1-1-0.dll
 0002:00000538       __imp_malloc               000000018002f538     ucrt:api-ms-win-crt-heap-l1-1-0.dll
 0002:00000540       \177api-ms-win-crt-heap-l1-1-0_NULL_THUNK_DATA 000000018002f540     ucrt:api-ms-win-crt-heap-l1-1-0.dll
 0002:00000548       __imp__initterm_e          000000018002f548     ucrt:api-ms-win-crt-runtime-l1-1-0.dll
 0002:00000550       __imp__initterm            000000018002f550     ucrt:api-ms-win-crt-runtime-l1-1-0.dll
 0002:00000558       __imp__cexit               000000018002f558     ucrt:api-ms-win-crt-runtime-l1-1-0.dll
 0002:00000560       __imp__invalid_parameter_noinfo_noreturn 000000018002f560     ucrt:api-ms-win-crt-runtime-l1-1-0.dll
 0002:00000568       __imp__crt_atexit          000000018002f568     ucrt:api-ms-win-crt-runtime-l1-1-0.dll
 0002:00000570       __imp__execute_onexit_table 000000018002f570     ucrt:api-ms-win-crt-runtime-l1-1-0.dll
 0002:00000578       __imp__register_onexit_function 000000018002f578     ucrt:api-ms-win-crt-runtime-l1-1-0.dll
 0002:00000580       __imp__initialize_onexit_table 000000018002f580     ucrt:api-ms-win-crt-runtime-l1-1-0.dll
 0002:00000588       __imp__initialize_narrow_environment 000000018002f588     ucrt:api-ms-win-crt-runtime-l1-1-0.dll
 0002:00000590       __imp__configure_narrow_argv 000000018002f590     ucrt:api-ms-win-crt-runtime-l1-1-0.dll
 0002:00000598       __imp__seh_filter_dll      000000018002f598     ucrt:api-ms-win-crt-runtime-l1-1-0.dll
 0002:000005a0       \177api-ms-win-crt-runtime-l1-1-0_NULL_THUNK_DATA 000000018002f5a0     ucrt:api-ms-win-crt-runtime-l1-1-0.dll
 0002:000005a8       __imp_fgetpos              000000018002f5a8     ucrt:api-ms-win-crt-stdio-l1-1-0.dll
 0002:000005b0       __imp_fsetpos              000000018002f5b0     ucrt:api-ms-win-crt-stdio-l1-1-0.dll
 0002:000005b8       __imp__fseeki64            000000018002f5b8     ucrt:api-ms-win-crt-stdio-l1-1-0.dll
 0002:000005c0       __imp_fwrite               000000018002f5c0     ucrt:api-ms-win-crt-stdio-l1-1-0.dll
 0002:000005c8       __imp_setvbuf              000000018002f5c8     ucrt:api-ms-win-crt-stdio-l1-1-0.dll
 0002:000005d0       __imp_fgetwc               000000018002f5d0     ucrt:api-ms-win-crt-stdio-l1-1-0.dll
 0002:000005d8       __imp_fputwc               000000018002f5d8     ucrt:api-ms-win-crt-stdio-l1-1-0.dll
 0002:000005e0       __imp_ungetwc              000000018002f5e0     ucrt:api-ms-win-crt-stdio-l1-1-0.dll
 0002:000005e8       __imp_fclose               000000018002f5e8     ucrt:api-ms-win-crt-stdio-l1-1-0.dll
 0002:000005f0       __imp_fflush               000000018002f5f0     ucrt:api-ms-win-crt-stdio-l1-1-0.dll
 0002:000005f8       __imp_fgetc                000000018002f5f8     ucrt:api-ms-win-crt-stdio-l1-1-0.dll
 0002:00000600       __imp_ungetc               000000018002f600     ucrt:api-ms-win-crt-stdio-l1-1-0.dll
 0002:00000608       \177api-ms-win-crt-stdio-l1-1-0_NULL_THUNK_DATA 000000018002f608     ucrt:api-ms-win-crt-stdio-l1-1-0.dll
 0002:00000610       __imp_isdigit              000000018002f610     ucrt:api-ms-win-crt-string-l1-1-0.dll
 0002:00000618       __imp_strcpy_s             000000018002f618     ucrt:api-ms-win-crt-string-l1-1-0.dll
 0002:00000620       \177api-ms-win-crt-string-l1-1-0_NULL_THUNK_DATA 000000018002f620     ucrt:api-ms-win-crt-string-l1-1-0.dll
 0002:00000628       __guard_check_icall_fptr   000000018002f628     MSVCRT:guard_support.obj
 0002:00000630       __guard_dispatch_icall_fptr 000000018002f630     MSVCRT:guard_support.obj
 0002:00000638       __xc_a                     000000018002f638     MSVCRT:initializers.obj
 0002:00000650       __xc_z                     000000018002f650     MSVCRT:initializers.obj
 0002:00000658       __xi_a                     000000018002f658     MSVCRT:initializers.obj
 0002:00000668       __xi_z                     000000018002f668     MSVCRT:initializers.obj
 0002:00000670       __xl_a                     000000018002f670     MSVCRT:tlssup.obj
 0002:00000678       __xl_z                     000000018002f678     MSVCRT:tlssup.obj
 0002:00000680       __xp_a                     000000018002f680     MSVCRT:initializers.obj
 0002:00000688       __xp_z                     000000018002f688     MSVCRT:initializers.obj
 0002:00000690       __xt_a                     000000018002f690     MSVCRT:initializers.obj
 0002:00000698       __xt_z                     000000018002f698     MSVCRT:initializers.obj
 0002:000009c8       ??_C@_0BD@OLBABOEK@vector?$DMT?$DO?5too?5long@ 000000018002f9c8     Exports.obj
 0002:000009e0       ??_C@_0BA@JFNIOLAK@string?5too?5long@ 000000018002f9e0     Exports.obj
 0002:000009f0       ??_C@_0BE@JONHPENG@map?1set?$DMT?$DO?5too?5long@ 000000018002f9f0     Exports.obj
 0002:00000a10       __xmm@00000000000000070000000000000000 000000018002fa10     Exports.obj
 0002:00000c00       ??_C@_0BI@CFPLBAOH@invalid?5string?5position@ 000000018002fc00     FilePath.obj
 0002:00000c18       ??_C@_0BB@MOGOBHAF@list?$DMT?$DO?5too?5long@ 000000018002fc18     FilePath.obj
 0002:00000c30       __xmm@000000000000000f0000000000000000 000000018002fc30     FilePath.obj
 0002:00001008       ??_7exception@std@@6B@     0000000180030008     GenericPlatform.obj
 0002:00001018       ??_C@_0BC@EOODALEL@Unknown?5exception@ 0000000180030018     GenericPlatform.obj
 0002:00001038       ??_7bad_cast@std@@6B@      0000000180030038     GenericPlatform.obj
 0002:00001048       ??_C@_08EPJLHIJG@bad?5cast@ 0000000180030048     GenericPlatform.obj
 0002:00001054       ??_C@_01NBENCBCI@?$CK@     0000000180030054     GenericPlatform.obj
 0002:00001060       ??_7GenericPlatform@@6B@   0000000180030060     GenericPlatform.obj
 0002:00001148       ??_C@_19GLNJCAEP@?$AA?4?$AAc?$AAf?$AAg@ 0000000180030148     GenericPlatform.obj
 0002:00001158       ??_C@_1BI@INHDAICB@?$AAp?$AAa?$AAc?$AAk?$AAa?$AAg?$AAe?$AA?4?$AAc?$AAf?$AAg@ 0000000180030158     GenericPlatform.obj
 0002:00001170       ??_C@_11LOCGONAA@@         0000000180030170     GenericPlatform.obj
 0002:00001178       ??_C@_17OGIBCNOO@?$AAa?$AAp?$AAp@ 0000000180030178     GenericPlatform.obj
 0002:00001188       ??_7?$basic_filebuf@_WU?$char_traits@_W@std@@@std@@6B@ 0000000180030188     GenericPlatform.obj
 0002:00001208       ??_7?$basic_ifstream@_WU?$char_traits@_W@std@@@std@@6B@ 0000000180030208     GenericPlatform.obj
 0002:00001210       ??_8?$basic_ifstream@_WU?$char_traits@_W@std@@@std@@7B@ 0000000180030210     GenericPlatform.obj
 0002:00001220       ??_7?$codecvt_utf8@_W$0BAPPPP@$0A@@std@@6B@ 0000000180030220     GenericPlatform.obj
 0002:00001278       ??_7?$basic_ofstream@_WU?$char_traits@_W@std@@@std@@6B@ 0000000180030278     GenericPlatform.obj
 0002:00001280       ??_8?$basic_ofstream@_WU?$char_traits@_W@std@@@std@@7B@ 0000000180030280     GenericPlatform.obj
 0002:00001288       ??_C@_1BI@NJOHMCJF@?$AAa?$AAp?$AAp?$AA?4?$AAv?$AAe?$AAr?$AAs?$AAi?$AAo?$AAn@ 0000000180030288     GenericPlatform.obj
 0002:000012a0       ??_C@_1BO@ECOABBAM@?$AAC?$AAO?$AAN?$AAF?$AAI?$AAG?$AA_?$AAV?$AAE?$AAR?$AAS?$AAI?$AAO?$AAN@ 00000001800302a0     GenericPlatform.obj
 0002:000012c0       ??_C@_1BI@HNCHJFLD@?$AAa?$AAp?$AAp?$AA?4?$AAm?$AAa?$AAi?$AAn?$AAj?$AAa?$AAr@ 00000001800302c0     GenericPlatform.obj
 0002:000012d8       ??_C@_1CG@DKCNNBBN@?$AAC?$AAO?$AAN?$AAF?$AAI?$AAG?$AA_?$AAM?$AAA?$AAI?$AAN?$AAJ?$AAA?$AAR?$AA_@ 00000001800302d8     GenericPlatform.obj
 0002:00001300       ??_C@_1BM@GODBNDHP@?$AAa?$AAp?$AAp?$AA?4?$AAm?$AAa?$AAi?$AAn?$AAc?$AAl?$AAa?$AAs?$AAs@ 0000000180030300     GenericPlatform.obj
 0002:00001320       ??_C@_1DC@JFPCECLL@?$AAC?$AAO?$AAN?$AAF?$AAI?$AAG?$AA_?$AAM?$AAA?$AAI?$AAN?$AAC?$AAL?$AAA?$AAS@ 0000000180030320     GenericPlatform.obj
 0002:00001358       ??_C@_1BM@INKOOIDH@?$AAa?$AAp?$AAp?$AA?4?$AAc?$AAl?$AAa?$AAs?$AAs?$AAp?$AAa?$AAt?$AAh@ 0000000180030358     GenericPlatform.obj
 0002:00001378       ??_C@_1CK@BINNDMKN@?$AAC?$AAO?$AAN?$AAF?$AAI?$AAG?$AA_?$AAC?$AAL?$AAA?$AAS?$AAS?$AAP?$AAA?$AAT@ 0000000180030378     GenericPlatform.obj
 0002:000013a8       ??_C@_1BC@DPIJMJOK@?$AAa?$AAp?$AAp?$AA?4?$AAn?$AAa?$AAm?$AAe@ 00000001800303a8     GenericPlatform.obj
 0002:000013c0       ??_C@_1BK@EIDGINCE@?$AAA?$AAP?$AAP?$AA_?$AAN?$AAA?$AAM?$AAE?$AA_?$AAK?$AAE?$AAY@ 00000001800303c0     GenericPlatform.obj
 0002:000013e0       ??_C@_1CG@FKBKJNPM@?$AAa?$AAp?$AAp?$AA?4?$AAp?$AAr?$AAe?$AAf?$AAe?$AAr?$AAe?$AAn?$AAc?$AAe?$AAs@ 00000001800303e0     GenericPlatform.obj
 0002:00001408       ??_C@_1CE@OCOJKDL@?$AAC?$AAO?$AAN?$AAF?$AAI?$AAG?$AA_?$AAA?$AAP?$AAP?$AA_?$AAI?$AAD?$AA_?$AAK@ 0000000180030408     GenericPlatform.obj
 0002:00001430       ??_C@_1BI@BKGDCPHA@?$AAa?$AAp?$AAp?$AA?4?$AAr?$AAu?$AAn?$AAt?$AAi?$AAm?$AAe@ 0000000180030430     GenericPlatform.obj
 0002:00001448       ??_C@_1CA@EODKMEOF@?$AAJ?$AAV?$AAM?$AA_?$AAR?$AAU?$AAN?$AAT?$AAI?$AAM?$AAE?$AA_?$AAK?$AAE?$AAY@ 0000000180030448     GenericPlatform.obj
 0002:00001468       ??_C@_1BO@FMGNOMME@?$AAa?$AAp?$AAp?$AA?4?$AAi?$AAd?$AAe?$AAn?$AAt?$AAi?$AAf?$AAi?$AAe?$AAr@ 0000000180030468     GenericPlatform.obj
 0002:00001488       ??_C@_1CM@DLLEDKMO@?$AAC?$AAO?$AAN?$AAF?$AAI?$AAG?$AA_?$AAA?$AAP?$AAP?$AA_?$AAI?$AAD?$AAE?$AAN@ 0000000180030488     GenericPlatform.obj
 0002:000014b8       ??_C@_1BG@MFOBEDBM@?$AAa?$AAp?$AAp?$AA?4?$AAm?$AAe?$AAm?$AAo?$AAr?$AAy@ 00000001800304b8     GenericPlatform.obj
 0002:000014d0       ??_C@_1CE@DFOFDEED@?$AAC?$AAO?$AAN?$AAF?$AAI?$AAG?$AA_?$AAA?$AAP?$AAP?$AA_?$AAM?$AAE?$AAM?$AAO@ 00000001800304d0     GenericPlatform.obj
 0002:000014f8       ??_C@_1BG@CFMCCKEP@?$AAa?$AAp?$AAp?$AA?4?$AAs?$AAp?$AAl?$AAa?$AAs?$AAh@ 00000001800304f8     GenericPlatform.obj
 0002:00001510       ??_C@_1CE@MMPJFPKL@?$AAC?$AAO?$AAN?$AAF?$AAI?$AAG?$AA_?$AAS?$AAP?$AAL?$AAA?$AAS?$AAH?$AA_?$AAK@ 0000000180030510     GenericPlatform.obj
 0002:00001538       ??_C@_1BI@JBDNBBGL@?$AAA?$AAp?$AAp?$AAl?$AAi?$AAc?$AAa?$AAt?$AAi?$AAo?$AAn@ 0000000180030538     GenericPlatform.obj
 0002:00001550       ??_C@_1DG@PKPDIFLD@?$AAC?$AAO?$AAN?$AAF?$AAI?$AAG?$AA_?$AAS?$AAE?$AAC?$AAT?$AAI?$AAO?$AAN?$AA_@ 0000000180030550     GenericPlatform.obj
 0002:00001588       ??_C@_1BG@BAEKMPMO@?$AAJ?$AAV?$AAM?$AAO?$AAp?$AAt?$AAi?$AAo?$AAn?$AAs@ 0000000180030588     GenericPlatform.obj
 0002:000015a0       ??_C@_1DE@BKNCEDAN@?$AAC?$AAO?$AAN?$AAF?$AAI?$AAG?$AA_?$AAS?$AAE?$AAC?$AAT?$AAI?$AAO?$AAN?$AA_@ 00000001800305a0     GenericPlatform.obj
 0002:000015d8       ??_C@_1BO@CBGJJONN@?$AAJ?$AAV?$AAM?$AAU?$AAs?$AAe?$AAr?$AAO?$AAp?$AAt?$AAi?$AAo?$AAn?$AAs@ 00000001800305d8     GenericPlatform.obj
 0002:000015f8       ??_C@_1DM@CHPJGCPD@?$AAC?$AAO?$AAN?$AAF?$AAI?$AAG?$AA_?$AAS?$AAE?$AAC?$AAT?$AAI?$AAO?$AAN?$AA_@ 00000001800305f8     GenericPlatform.obj
 0002:00001638       ??_C@_1CO@IIEKEJNB@?$AAJ?$AAV?$AAM?$AAU?$AAs?$AAe?$AAr?$AAO?$AAv?$AAe?$AAr?$AAr?$AAi?$AAd?$AAe@ 0000000180030638     GenericPlatform.obj
 0002:00001670       ??_C@_1EO@BPJBHHEC@?$AAC?$AAO?$AAN?$AAF?$AAI?$AAG?$AA_?$AAS?$AAE?$AAC?$AAT?$AAI?$AAO?$AAN?$AA_@ 0000000180030670     GenericPlatform.obj
 0002:000016c0       ??_C@_1CC@BAHFACFE@?$AAA?$AAp?$AAp?$AAC?$AAD?$AAS?$AAJ?$AAV?$AAM?$AAO?$AAp?$AAt?$AAi?$AAo?$AAn@ 00000001800306c0     GenericPlatform.obj
 0002:000016f0       ??_C@_1EA@LLHFGPFJ@?$AAC?$AAO?$AAN?$AAF?$AAI?$AAG?$AA_?$AAS?$AAE?$AAC?$AAT?$AAI?$AAO?$AAN?$AA_@ 00000001800306f0     GenericPlatform.obj
 0002:00001730       ??_C@_1DM@PFAIJBB@?$AAA?$AAp?$AAp?$AAC?$AAD?$AAS?$AAG?$AAe?$AAn?$AAe?$AAr?$AAa?$AAt?$AAe?$AAC@ 0000000180030730     GenericPlatform.obj
 0002:00001770       ??_C@_1FK@LCPLJPAF@?$AAC?$AAO?$AAN?$AAF?$AAI?$AAG?$AA_?$AAS?$AAE?$AAC?$AAT?$AAI?$AAO?$AAN?$AA_@ 0000000180030770     GenericPlatform.obj
 0002:000017d0       ??_C@_1BG@ILKDICGD@?$AAA?$AAr?$AAg?$AAO?$AAp?$AAt?$AAi?$AAo?$AAn?$AAs@ 00000001800307d0     GenericPlatform.obj
 0002:000017e8       ??_C@_1DE@MGIBOGJL@?$AAC?$AAO?$AAN?$AAF?$AAI?$AAG?$AA_?$AAS?$AAE?$AAC?$AAT?$AAI?$AAO?$AAN?$AA_@ 00000001800307e8     GenericPlatform.obj
 0002:00001a50       ??_C@_1BA@PPKKAIFI@?$AAj?$AAv?$AAm?$AAa?$AAr?$AAg?$AA?4@ 0000000180030a50     Helpers.obj
 0002:00001a60       ??_C@_1BI@BBPPIEPD@?$AAj?$AAv?$AAm?$AAu?$AAs?$AAe?$AAr?$AAa?$AAr?$AAg?$AA?4@ 0000000180030a60     Helpers.obj
 0002:00001a78       ??_C@_1M@BONHLOCF@?$AA?4?$AAn?$AAa?$AAm?$AAe@ 0000000180030a78     Helpers.obj
 0002:00001a88       ??_C@_1O@NLKMOIN@?$AA?4?$AAv?$AAa?$AAl?$AAu?$AAe@ 0000000180030a88     Helpers.obj
 0002:00001a98       ??_C@_19JJDJIJMF@?$AAa?$AAr?$AAg?$AA?4@ 0000000180030a98     Helpers.obj
 0002:00001aa4       ??_C@_13NMPKAAJP@?$AA?$DN@ 0000000180030aa4     Helpers.obj
 0002:00001d38       ??_7IPropertyContainer@@6B@ 0000000180030d38     IniFile.obj
 0002:00001d58       ??_7ISectionalPropertyContainer@@6B@ 0000000180030d58     IniFile.obj
 0002:00001d80       ??_7IniSectionData@@6B@    0000000180030d80     IniFile.obj
 0002:00001da0       ??_7IniFile@@6B@           0000000180030da0     IniFile.obj
 0002:00001dc0       ??_C@_13OHNMPHJM@?$AA?$FN@ 0000000180030dc0     IniFile.obj
 0002:00001dc4       ??_C@_13MCLHKIEA@?$AA?$FL@ 0000000180030dc4     IniFile.obj
 0002:00001dc8       ??_C@_15DHDALGKM@?$AA?2?$AA?$DN@ 0000000180030dc8     IniFile.obj
 0002:00001f38       ??_C@_00CNPNBAHC@@         0000000180030f38     Java.obj
 0002:00001f48       ??_7Exception@@6B@         0000000180030f48     Java.obj
 0002:00001f60       ??_7JavaException@@6B@     0000000180030f60     Java.obj
 0002:00001f70       ??_C@_1CM@BNCHKEFC@?$AAe?$AAr?$AAr?$AAo?$AAr?$AA?4?$AAi?$AAn?$AAv?$AAo?$AAk?$AAi?$AAn?$AAg?$AA?4@ 0000000180030f70     Java.obj
 0002:00001fa0       ??_C@_1CA@KJFJOJK@?$AAc?$AAl?$AAa?$AAs?$AAs?$AA?4?$AAn?$AAo?$AAt?$AA?4?$AAf?$AAo?$AAu?$AAn?$AAd@ 0000000180030fa0     Java.obj
 0002:00001fc0       ??_C@_1M@ILHOPKA@?$AAE?$AAr?$AAr?$AAo?$AAr@ 0000000180030fc0     Java.obj
 0002:00001fd0       ??_C@_1CC@FAOBOAFB@?$AAm?$AAe?$AAt?$AAh?$AAo?$AAd?$AA?4?$AAn?$AAo?$AAt?$AA?4?$AAf?$AAo?$AAu?$AAn@ 0000000180030fd0     Java.obj
 0002:00001ff8       ??_C@_1CC@HJKIICHM@?$AAj?$AAa?$AAv?$AAa?$AA?1?$AAl?$AAa?$AAn?$AAg?$AA?1?$AAS?$AAt?$AAr?$AAi?$AAn@ 0000000180030ff8     Java.obj
 0002:00002020       ??_C@_1O@PLHFJNFA@?$AAS?$AAt?$AAr?$AAi?$AAn?$AAg@ 0000000180031020     Java.obj
 0002:000020b0       ??_7JavaUserPreferences@@6B@ 00000001800310b0     JavaUserPreferences.obj
 0002:000021e0       ??_C@_1CM@KOFCEGFB@?$AAF?$AAa?$AAi?$AAl?$AAe?$AAd?$AA?5?$AAt?$AAo?$AA?5?$AAl?$AAa?$AAu?$AAn?$AAc@ 00000001800311e0     JavaVirtualMachine.obj
 0002:00002210       ??_C@_0BB@IDHJDMHA@JNI_CreateJavaVM@ 0000000180031210     JavaVirtualMachine.obj
 0002:00002230       ??_C@_1EA@BLPDPAND@?$AAf?$AAa?$AAi?$AAl?$AAe?$AAd?$AA?4?$AAl?$AAo?$AAc?$AAa?$AAt?$AAi?$AAn?$AAg@ 0000000180031230     JavaVirtualMachine.obj
 0002:00002270       ??_C@_1CI@KJADCIHK@?$AAf?$AAa?$AAi?$AAl?$AAe?$AAd?$AA?4?$AAc?$AAr?$AAe?$AAa?$AAt?$AAi?$AAn?$AAg@ 0000000180031270     JavaVirtualMachine.obj
 0002:00002298       ??_C@_1CE@OLMIPLCA@?$AA?9?$AAD?$AAj?$AAa?$AAv?$AAa?$AA?4?$AAc?$AAl?$AAa?$AAs?$AAs?$AA?4?$AAp?$AAa@ 0000000180031298     JavaVirtualMachine.obj
 0002:000022c0       ??_C@_1CI@MEKGLOMB@?$AA?9?$AAD?$AAj?$AAa?$AAv?$AAa?$AA?4?$AAl?$AAi?$AAb?$AAr?$AAa?$AAr?$AAy?$AA?4@ 00000001800312c0     JavaVirtualMachine.obj
 0002:000022e8       ??_C@_1CK@LAJPDPOP@?$AA?9?$AAD?$AAj?$AAa?$AAv?$AAa?$AA?4?$AAl?$AAa?$AAu?$AAn?$AAc?$AAh?$AAe?$AAr@ 00000001800312e8     JavaVirtualMachine.obj
 0002:00002318       ??_C@_1CK@PEMIBFOP@?$AA?9?$AAD?$AAa?$AAp?$AAp?$AA?4?$AAp?$AAr?$AAe?$AAf?$AAe?$AAr?$AAe?$AAn?$AAc@ 0000000180031318     JavaVirtualMachine.obj
 0002:00002344       ??_C@_13BHPHAPDN@?$AAm@    0000000180031344     JavaVirtualMachine.obj
 0002:00002348       ??_C@_19DKPEGDGN@?$AA?9?$AAX?$AAm?$AAx@ 0000000180031348     JavaVirtualMachine.obj
 0002:00002358       ??_C@_1BC@FPPEHIEG@?$AA?9?$AAX?$AAm?$AAs?$AA2?$AA5?$AA6?$AAm@ 0000000180031358     JavaVirtualMachine.obj
 0002:00002370       ??_C@_19ONPFOEGM@?$AA?9?$AAX?$AAm?$AAs@ 0000000180031370     JavaVirtualMachine.obj
 0002:00002380       ??_C@_1DA@CALEIMB@?$AAn?$AAo?$AA?4?$AAm?$AAa?$AAi?$AAn?$AA?4?$AAc?$AAl?$AAa?$AAs?$AAs?$AA?4?$AAs@ 0000000180031380     JavaVirtualMachine.obj
 0002:000023b0       ??_C@_1BK@ECHJAGND@?$AAm?$AAs?$AAv?$AAc?$AAr?$AA1?$AA0?$AA0?$AA?4?$AAd?$AAl?$AAl@ 00000001800313b0     JavaVirtualMachine.obj
 0002:000023d0       ??_C@_1BC@GAFLLOIB@?$AA?9?$AAs?$AAp?$AAl?$AAa?$AAs?$AAh?$AA?3@ 00000001800313d0     JavaVirtualMachine.obj
 0002:000023e8       ??_C@_1CO@DEGDBCNB@?$AA?$CI?$AA?$FL?$AAL?$AAj?$AAa?$AAv?$AAa?$AA?1?$AAl?$AAa?$AAn?$AAg?$AA?1?$AAS?$AAt@ 00000001800313e8     JavaVirtualMachine.obj
 0002:00002418       ??_C@_19NACPGGMO@?$AAm?$AAa?$AAi?$AAn@ 0000000180031418     JavaVirtualMachine.obj
 0002:00002428       ??_C@_1BO@CGMKMGI@?$AAD?$AAe?$AAt?$AAa?$AAc?$AAh?$AA?5?$AAf?$AAa?$AAi?$AAl?$AAe?$AAd?$AA?4@ 0000000180031428     JavaVirtualMachine.obj
 0002:00002510       ??_C@_1BA@GNBHBJAJ@?$AA$?$AAA?$AAP?$AAP?$AAD?$AAI?$AAR@ 0000000180031510     Macros.obj
 0002:00002520       ??_C@_1BI@NIDMADOP@?$AA$?$AAP?$AAA?$AAC?$AAK?$AAA?$AAG?$AAE?$AAD?$AAI?$AAR@ 0000000180031520     Macros.obj
 0002:00002538       ??_C@_1BK@GMAEKMPE@?$AA$?$AAL?$AAA?$AAU?$AAN?$AAC?$AAH?$AAE?$AAR?$AAD?$AAI?$AAR@ 0000000180031538     Macros.obj
 0002:00002558       ??_C@_1BI@NLOAMEDL@?$AA$?$AAA?$AAP?$AAP?$AAD?$AAA?$AAT?$AAA?$AAD?$AAI?$AAR@ 0000000180031558     Macros.obj
 0002:00002570       ??_C@_1BC@BILOPKCK@?$AA$?$AAJ?$AAR?$AAE?$AAH?$AAO?$AAM?$AAE@ 0000000180031570     Macros.obj
 0002:00002588       ??_C@_1BE@ODIGJKBD@?$AA$?$AAC?$AAA?$AAC?$AAH?$AAE?$AAD?$AAI?$AAR@ 0000000180031588     Macros.obj
 0002:000025a0       ??_C@_1CG@KMMMAEID@?$AA$?$AAJ?$AAA?$AAV?$AAA?$AAV?$AAM?$AAL?$AAI?$AAB?$AAR?$AAA?$AAR?$AAY?$AAN@ 00000001800315a0     Macros.obj
 0002:00002698       ??_7FileNotFoundException@@6B@ 0000000180031698     main.obj
 0002:000026a8       ??_C@_1CO@PHLGBOFN@?$AA?9?$AAX?$AAa?$AAp?$AAp?$AAc?$AAd?$AAs?$AA?3?$AAg?$AAe?$AAn?$AAe?$AAr?$AAa@ 00000001800316a8     main.obj
 0002:000026d8       ??_C@_1BK@PPFJMBDG@?$AA?9?$AAX?$AAa?$AAp?$AAp?$AAc?$AAd?$AAs?$AA?3?$AAo?$AAf?$AAf@ 00000001800316d8     main.obj
 0002:000026f8       ??_C@_1BI@POJKNPFJ@?$AA?9?$AAX?$AAa?$AAp?$AAp?$AA?3?$AAc?$AAh?$AAi?$AAl?$AAd@ 00000001800316f8     main.obj
 0002:00002710       ??_C@_1DI@CONNHMNP@?$AAa?$AAp?$AAp?$AAc?$AAd?$AAs?$AA?4?$AAc?$AAa?$AAc?$AAh?$AAe?$AA?4?$AAf?$AAi@ 0000000180031710     main.obj
 0002:00002748       ??_C@_1BO@GPJGCKGG@?$AAI?$AAn?$AAt?$AAe?$AAr?$AAn?$AAa?$AAl?$AA?5?$AAE?$AAr?$AAr?$AAo?$AAr@ 0000000180031748     main.obj
 0002:000027e0       ??_C@_1DA@EGCBLLCB@?$AAF?$AAa?$AAi?$AAl?$AAe?$AAd?$AA?5?$AAt?$AAo?$AA?5?$AAf?$AAi?$AAn?$AAd?$AA?5@ 00000001800317e0     Messages.obj
 0002:00002810       ??_C@_1CE@MBLBGHOC@?$AAl?$AAi?$AAb?$AAr?$AAa?$AAr?$AAy?$AA?4?$AAn?$AAo?$AAt?$AA?4?$AAf?$AAo?$AAu@ 0000000180031810     Messages.obj
 0002:00002838       ??_C@_1CK@KLBNJFFC@?$AAF?$AAa?$AAi?$AAl?$AAe?$AAd?$AA?5?$AAt?$AAo?$AA?5?$AAc?$AAr?$AAe?$AAa?$AAt@ 0000000180031838     Messages.obj
 0002:00002870       ??_C@_1EE@JMGNHIGA@?$AAF?$AAa?$AAi?$AAl?$AAe?$AAd?$AA?5?$AAt?$AAo?$AA?5?$AAl?$AAo?$AAc?$AAa?$AAt@ 0000000180031870     Messages.obj
 0002:000028b8       ??_C@_1DA@EAOOILJN@?$AAN?$AAo?$AA?5?$AAm?$AAa?$AAi?$AAn?$AA?5?$AAc?$AAl?$AAa?$AAs?$AAs?$AA?5?$AAs@ 00000001800318b8     Messages.obj
 0002:000028e8       ??_C@_1DE@HDLNAJOI@?$AAN?$AAo?$AA?5?$AAm?$AAe?$AAt?$AAh?$AAo?$AAd?$AA?5?$AA?$CF?$AAs?$AA?5?$AAi?$AAn@ 00000001800318e8     Messages.obj
 0002:00002920       ??_C@_1CI@BFLDBLNM@?$AAC?$AAl?$AAa?$AAs?$AAs?$AA?5?$AA?$CF?$AAs?$AA?5?$AAn?$AAo?$AAt?$AA?5?$AAf?$AAo@ 0000000180031920     Messages.obj
 0002:00002948       ??_C@_1CO@EAFMIPHP@?$AAE?$AAr?$AAr?$AAo?$AAr?$AA?5?$AAi?$AAn?$AAv?$AAo?$AAk?$AAi?$AAn?$AAg?$AA?5@ 0000000180031948     Messages.obj
 0002:00002980       ??_C@_1FC@CFPEOFAN@?$AAE?$AAr?$AAr?$AAo?$AAr?$AA?3?$AA?5?$AAA?$AAp?$AAp?$AAC?$AAD?$AAS?$AA?5?$AAc@ 0000000180031980     Messages.obj
 0002:00002d28       ??_7logic_error@std@@6B@   0000000180031d28     Package.obj
 0002:00002d40       ??_7invalid_argument@std@@6B@ 0000000180031d40     Package.obj
 0002:00002d50       ??_C@_19DFBGMPLB@?$AAa?$AAu?$AAt?$AAo@ 0000000180031d50     Package.obj
 0002:00002d60       ??_C@_19INBPHFFD@?$AA1?$AA0?$AA0?$AA?$CF@ 0000000180031d60     Package.obj
 0002:00002d70       ??_C@_1CC@JHHONJH@?$AAa?$AAp?$AAp?$AA?4?$AAa?$AAp?$AAp?$AAc?$AAd?$AAs?$AA?4?$AAc?$AAa?$AAc?$AAh@ 0000000180031d70     Package.obj
 0002:00002d98       ??_C@_1CM@GDILBIAE@?$AA?9?$AAX?$AAX?$AA?3?$AAS?$AAh?$AAa?$AAr?$AAe?$AAd?$AAA?$AAr?$AAc?$AAh?$AAi@ 0000000180031d98     Package.obj
 0002:00002dc8       ??_C@_1CA@GBIBCEJC@?$AAj?$AAv?$AAm?$AAu?$AAs?$AAe?$AAr?$AAa?$AAr?$AAg?$AAs?$AA?4?$AAc?$AAf?$AAg@ 0000000180031dc8     Package.obj
 0002:00002de8       ??_C@_1BC@BCNNOKAK@?$AAp?$AAa?$AAc?$AAk?$AAa?$AAg?$AAe?$AAr@ 0000000180031de8     Package.obj
 0002:00002e00       ??_C@_1M@FDPIMFHI@?$AAc?$AAa?$AAc?$AAh?$AAe@ 0000000180031e00     Package.obj
 0002:00002e10       ??_C@_0O@HNMDNPGH@Key?5not?5found@ 0000000180031e10     Package.obj
 0002:00002ef0       ??_7Platform@@6B@          0000000180031ef0     Platform.obj
 0002:00003058       ??_7?$basic_stringbuf@DU?$char_traits@D@std@@V?$allocator@D@2@@std@@6B@ 0000000180032058     PlatformString.obj
 0002:000030d8       ??_7?$basic_stringstream@DU?$char_traits@D@std@@V?$allocator@D@2@@std@@6B@ 00000001800320d8     PlatformString.obj
 0002:000030e0       ??_8?$basic_stringstream@DU?$char_traits@D@std@@V?$allocator@D@2@@std@@7B?$basic_istream@DU?$char_traits@D@std@@@1@@ 00000001800320e0     PlatformString.obj
 0002:000030e8       ??_8?$basic_stringstream@DU?$char_traits@D@std@@V?$allocator@D@2@@std@@7B?$basic_ostream@DU?$char_traits@D@std@@@1@@ 00000001800320e8     PlatformString.obj
 0002:000030f0       ??_C@_15GANGMFKL@?$AA?$CF?$AAs@ 00000001800320f0     PlatformString.obj
 0002:000031a0       ??_7PropertyFile@@6B@      00000001800321a0     PropertyFile.obj
 0002:000038c8       ??_7Process@@6B@           00000001800328c8     WindowsPlatform.obj
 0002:00003900       ??_7WindowsPlatform@@6B@   0000000180032900     WindowsPlatform.obj
 0002:000039e8       ??_8WindowsPlatform@@7B@   00000001800329e8     WindowsPlatform.obj
 0002:000039f8       ??_7WindowsJavaUserPreferences@@6B@ 00000001800329f8     WindowsPlatform.obj
 0002:00003a10       ??_7WindowsProcess@@6B@    0000000180032a10     WindowsPlatform.obj
 0002:00003a48       ??_7?$collate@_W@std@@6B@  0000000180032a48     WindowsPlatform.obj
 0002:00003a80       ?_Is_word_table@?1??_Is_word@std@@YA_NE@Z@4QB_NB 0000000180032a80     WindowsPlatform.obj
 0002:00003b88       ??_7_Node_base@std@@6B@    0000000180032b88     WindowsPlatform.obj
 0002:00003b98       ??_7_Root_node@std@@6B@    0000000180032b98     WindowsPlatform.obj
 0002:00003ba8       ??_7_Node_end_group@std@@6B@ 0000000180032ba8     WindowsPlatform.obj
 0002:00003bb8       ??_7_Node_assert@std@@6B@  0000000180032bb8     WindowsPlatform.obj
 0002:00003bc8       ??_7_Node_capture@std@@6B@ 0000000180032bc8     WindowsPlatform.obj
 0002:00003bd8       ??_7_Node_back@std@@6B@    0000000180032bd8     WindowsPlatform.obj
 0002:00003be8       ??_7_Node_endif@std@@6B@   0000000180032be8     WindowsPlatform.obj
 0002:00003bf8       ??_7_Node_if@std@@6B@      0000000180032bf8     WindowsPlatform.obj
 0002:00003c08       ??_7_Node_end_rep@std@@6B@ 0000000180032c08     WindowsPlatform.obj
 0002:00003c18       ??_7_Node_rep@std@@6B@     0000000180032c18     WindowsPlatform.obj
 0002:00003c20       ??_C@_1FG@GLHPFJKF@?$AAS?$AAO?$AAF?$AAT?$AAW?$AAA?$AAR?$AAE?$AA?2?$AAJ?$AAa?$AAv?$AAa?$AAS?$AAo@ 0000000180032c20     WindowsPlatform.obj
 0002:00003c78       ??_C@_1BO@DIAJAHNB@?$AAC?$AAu?$AAr?$AAr?$AAe?$AAn?$AAt?$AAV?$AAe?$AAr?$AAs?$AAi?$AAo?$AAn@ 0000000180032c78     WindowsPlatform.obj
 0002:00003c98       ??_C@_13FPGAJAPJ@?$AA?2@   0000000180032c98     WindowsPlatform.obj
 0002:00003ca0       ??_C@_1BC@DKKLKPCJ@?$AAJ?$AAa?$AAv?$AAa?$AAH?$AAo?$AAm?$AAe@ 0000000180032ca0     WindowsPlatform.obj
 0002:00003cb8       ??_C@_1CO@BGPIHHDK@?$AAj?$AAr?$AAe?$AA?2?$AAb?$AAi?$AAn?$AA?2?$AAc?$AAl?$AAi?$AAe?$AAn?$AAt?$AA?2@ 0000000180032cb8     WindowsPlatform.obj
 0002:00003ce8       ??_C@_1CO@EEEPAFHB@?$AAj?$AAr?$AAe?$AA?2?$AAb?$AAi?$AAn?$AA?2?$AAs?$AAe?$AAr?$AAv?$AAe?$AAr?$AA?2@ 0000000180032ce8     WindowsPlatform.obj
 0002:00003d18       ??_C@_1CG@KGEODLJP@?$AAb?$AAi?$AAn?$AA?2?$AAc?$AAl?$AAi?$AAe?$AAn?$AAt?$AA?2?$AAj?$AAv?$AAm?$AA?4@ 0000000180032d18     WindowsPlatform.obj
 0002:00003d40       ??_C@_1CG@PEPJEJNE@?$AAb?$AAi?$AAn?$AA?2?$AAs?$AAe?$AAr?$AAv?$AAe?$AAr?$AA?2?$AAj?$AAv?$AAm?$AA?4@ 0000000180032d40     WindowsPlatform.obj
 0002:00003d68       ??_C@_1BI@PFAANGKO@?$AAM?$AAS?$AAV?$AAC?$AAR?$AA?4?$AA?$CK?$AA?4?$AAD?$AAL?$AAL@ 0000000180032d68     WindowsPlatform.obj
 0002:00003d80       ??_C@_1BC@KNPAOMDD@?$AAj?$AAr?$AAe?$AA?2?$AAb?$AAi?$AAn?$AA?2@ 0000000180032d80     WindowsPlatform.obj
 0002:00003d98       ??_C@_19LFOGCGGE@?$AAb?$AAi?$AAn?$AA?2@ 0000000180032d98     WindowsPlatform.obj
 0002:00003da4       ??_C@_15EAJGFGNH@?$AA?1?$AA?1@ 0000000180032da4     WindowsPlatform.obj
 0002:00003db0       ??_C@_1CK@MNCOEFDJ@?$AA?2?$AA?1?$AAJ?$AA?1?$AAV?$AA?1?$AAM?$AA?1?$AAU?$AAs?$AAe?$AAr?$AA?1?$AAO?$AAp@ 0000000180032db0     WindowsPlatform.obj
 0002:00003de0       ??_C@_1DC@MGJBGFCP@?$AAS?$AAO?$AAF?$AAT?$AAW?$AAA?$AAR?$AAE?$AA?2?$AAJ?$AAa?$AAv?$AAa?$AAS?$AAo@ 0000000180032de0     WindowsPlatform.obj
 0002:00003e18       ??_C@_19DICJPJO@?$AAT?$AAE?$AAS?$AAT@ 0000000180032e18     WindowsPlatform.obj
 0002:00003e28       ??_C@_1DI@BFFBBEKK@?$AAC?$AAo?$AAu?$AAl?$AAd?$AA?5?$AAn?$AAo?$AAt?$AA?5?$AAc?$AAr?$AAe?$AAa?$AAt@ 0000000180032e28     WindowsPlatform.obj
 0002:00003e60       ??_C@_1EE@ILAKFJJL@?$AAC?$AAo?$AAu?$AAl?$AAd?$AA?5?$AAn?$AAo?$AAt?$AA?5?$AAS?$AAe?$AAt?$AAI?$AAn@ 0000000180032e60     WindowsPlatform.obj
 0002:00003ea4       ??_C@_13HOIJIPNN@?$AA?5@   0000000180032ea4     WindowsPlatform.obj
 0002:00003eb0       ??_C@_1EG@DMABLIEM@?$AAE?$AAr?$AAr?$AAo?$AAr?$AA?3?$AA?5?$AAU?$AAn?$AAa?$AAb?$AAl?$AAe?$AA?5?$AAt@ 0000000180032eb0     WindowsPlatform.obj
 0002:00003ef8       ??_C@_0BG@EOMJEIFA@vector?$DMbool?$DO?5too?5long@ 0000000180032ef8     WindowsPlatform.obj
 0002:00003f10       ?_Meta_map@?1??_Trans@?$_Parser@PEB_W_WV?$regex_traits@_W@std@@@std@@AEAAXXZ@4QBDB 0000000180032f10     WindowsPlatform.obj
 0002:00003f30       ??_7?$_Node_str@_W@std@@6B@ 0000000180032f30     WindowsPlatform.obj
 0002:00003f40       ??_7?$_Node_class@_WV?$regex_traits@_W@std@@@std@@6B@ 0000000180032f40     WindowsPlatform.obj
 0002:00003f50       ?_Names@?1???$lookup_classname@PEB_W@?$_Regex_traits@_W@std@@QEBAFPEB_W0_N@Z@4QBU_Cl_names@2@B 0000000180032f50     WindowsPlatform.obj
 0002:000040d0       ??_C@_05IIMHCHIO@alnum@    00000001800330d0     WindowsPlatform.obj
 0002:000040d8       ??_C@_1M@KLMEPMCM@?$AAa?$AAl?$AAn?$AAu?$AAm@ 00000001800330d8     WindowsPlatform.obj
 0002:000040e4       ??_C@_05IAEKHIAN@alpha@    00000001800330e4     WindowsPlatform.obj
 0002:000040f0       ??_C@_1M@DHGLHBMI@?$AAa?$AAl?$AAp?$AAh?$AAa@ 00000001800330f0     WindowsPlatform.obj
 0002:000040fc       ??_C@_05BABJKOGB@blank@    00000001800330fc     WindowsPlatform.obj
 0002:00004108       ??_C@_1M@EJAAJBPE@?$AAb?$AAl?$AAa?$AAn?$AAk@ 0000000180033108     WindowsPlatform.obj
 0002:00004114       ??_C@_05JMDPEFNK@cntrl@    0000000180033114     WindowsPlatform.obj
 0002:00004120       ??_C@_1M@LMIMILA@?$AAc?$AAn?$AAt?$AAr?$AAl@ 0000000180033120     WindowsPlatform.obj
 0002:0000412c       ??_C@_01LPLHEDKD@d@        000000018003312c     WindowsPlatform.obj
 0002:00004130       ??_C@_13GKPPEALH@?$AAd@    0000000180033130     WindowsPlatform.obj
 0002:00004134       ??_C@_05ODNOIFML@digit@    0000000180033134     WindowsPlatform.obj
 0002:00004140       ??_C@_1M@JDAEIBKG@?$AAd?$AAi?$AAg?$AAi?$AAt@ 0000000180033140     WindowsPlatform.obj
 0002:0000414c       ??_C@_05KCJBMLII@graph@    000000018003314c     WindowsPlatform.obj
 0002:00004158       ??_C@_1M@MDKNJLLK@?$AAg?$AAr?$AAa?$AAp?$AAh@ 0000000180033158     WindowsPlatform.obj
 0002:00004164       ??_C@_05IPJEPLHL@lower@    0000000180033164     WindowsPlatform.obj
 0002:00004170       ??_C@_1M@LGAECJJD@?$AAl?$AAo?$AAw?$AAe?$AAr@ 0000000180033170     WindowsPlatform.obj
 0002:0000417c       ??_C@_05IJDJACGD@print@    000000018003317c     WindowsPlatform.obj
 0002:00004188       ??_C@_1M@ELNLAPLA@?$AAp?$AAr?$AAi?$AAn?$AAt@ 0000000180033188     WindowsPlatform.obj
 0002:00004194       ??_C@_05KOBGHFJJ@punct@    0000000180033194     WindowsPlatform.obj
 0002:000041a0       ??_C@_1M@BPFMAOAO@?$AAp?$AAu?$AAn?$AAc?$AAt@ 00000001800331a0     WindowsPlatform.obj
 0002:000041ac       ??_C@_05OLNILLAB@space@    00000001800331ac     WindowsPlatform.obj
 0002:000041b8       ??_C@_1M@LPGODFOM@?$AAs?$AAp?$AAa?$AAc?$AAe@ 00000001800331b8     WindowsPlatform.obj
 0002:000041c4       ??_C@_01LKDEMHDF@s@        00000001800331c4     WindowsPlatform.obj
 0002:000041c8       ??_C@_13KHDBCPJB@?$AAs@    00000001800331c8     WindowsPlatform.obj
 0002:000041cc       ??_C@_05NECKJAMC@upper@    00000001800331cc     WindowsPlatform.obj
 0002:000041d8       ??_C@_1M@PLNFCNIC@?$AAu?$AAp?$AAp?$AAe?$AAr@ 00000001800331d8     WindowsPlatform.obj
 0002:000041e4       ??_C@_01NOFIACDB@w@        00000001800331e4     WindowsPlatform.obj
 0002:000041e8       ??_C@_13CIFDLIMG@?$AAw@    00000001800331e8     WindowsPlatform.obj
 0002:000041ec       ??_C@_06BAPHGFFK@xdigit@   00000001800331ec     WindowsPlatform.obj
 0002:000041f8       ??_C@_1O@OAFMJDHN@?$AAx?$AAd?$AAi?$AAg?$AAi?$AAt@ 00000001800331f8     WindowsPlatform.obj
 0002:00004238       ??_7type_info@@6B@         0000000180033238     MSVCRT:std_type_info_static.obj
 0002:00004270       ??_C@_1EC@JIJBPKFM@?$AAa?$AAp?$AAi?$AA?9?$AAm?$AAs?$AA?9?$AAw?$AAi?$AAn?$AA?9?$AAc?$AAo?$AAr?$AAe@ 0000000180033270     MSVCRT:thread_safe_statics.obj
 0002:000042b8       ??_C@_1BK@MGMFAEKH@?$AAk?$AAe?$AAr?$AAn?$AAe?$AAl?$AA3?$AA2?$AA?4?$AAd?$AAl?$AAl@ 00000001800332b8     MSVCRT:thread_safe_statics.obj
 0002:000042d8       ??_C@_0BM@HLJJNPAH@InitializeConditionVariable@ 00000001800332d8     MSVCRT:thread_safe_statics.obj
 0002:000042f8       ??_C@_0BJ@JEBJOJFJ@SleepConditionVariableCS@ 00000001800332f8     MSVCRT:thread_safe_statics.obj
 0002:00004318       ??_C@_0BJ@PGPPEPCC@WakeAllConditionVariable@ 0000000180033318     MSVCRT:thread_safe_statics.obj
 0002:00004338       _pDefaultRawDllMain        0000000180033338     MSVCRT:dll_dllmain.obj
 0002:00004338       _pRawDllMain               0000000180033338     MSVCRT:dll_dllmain.obj
 0002:00004348       ??_7bad_alloc@std@@6B@     0000000180033348     MSVCRT:throw_bad_alloc.obj
 0002:00004358       ??_C@_0P@GHFPNOJB@bad?5allocation@ 0000000180033358     MSVCRT:throw_bad_alloc.obj
 0002:00004370       ??_7bad_array_new_length@std@@6B@ 0000000180033370     MSVCRT:throw_bad_alloc.obj
 0002:00004380       ??_C@_0BF@KINCDENJ@bad?5array?5new?5length@ 0000000180033380     MSVCRT:throw_bad_alloc.obj
 0002:000043d0       _load_config_used          00000001800333d0     MSVCRT:loadcfg.obj
 0002:000044d0       _tls_used                  00000001800334d0     MSVCRT:tlssup.obj
 0002:00004500       ??_R4exception@std@@6B@    0000000180033500     GenericPlatform.obj
 0002:00004528       ??_R3exception@std@@8      0000000180033528     GenericPlatform.obj
 0002:00004540       ??_R2exception@std@@8      0000000180033540     GenericPlatform.obj
 0002:00004550       ??_R1A@?0A@EA@exception@std@@8 0000000180033550     GenericPlatform.obj
 0002:00004578       ??_R4?$basic_filebuf@_WU?$char_traits@_W@std@@@std@@6B@ 0000000180033578     GenericPlatform.obj
 0002:000045a0       ??_R3?$basic_filebuf@_WU?$char_traits@_W@std@@@std@@8 00000001800335a0     GenericPlatform.obj
 0002:000045b8       ??_R2?$basic_filebuf@_WU?$char_traits@_W@std@@@std@@8 00000001800335b8     GenericPlatform.obj
 0002:000045d0       ??_R1A@?0A@EA@?$basic_filebuf@_WU?$char_traits@_W@std@@@std@@8 00000001800335d0     GenericPlatform.obj
 0002:000045f8       ??_R1A@?0A@EA@?$basic_streambuf@_WU?$char_traits@_W@std@@@std@@8 00000001800335f8     GenericPlatform.obj
 0002:00004620       ??_R3?$basic_streambuf@_WU?$char_traits@_W@std@@@std@@8 0000000180033620     GenericPlatform.obj
 0002:00004638       ??_R2?$basic_streambuf@_WU?$char_traits@_W@std@@@std@@8 0000000180033638     GenericPlatform.obj
 0002:00004648       ??_R4?$basic_ifstream@_WU?$char_traits@_W@std@@@std@@6B@ 0000000180033648     GenericPlatform.obj
 0002:00004670       ??_R3?$basic_ifstream@_WU?$char_traits@_W@std@@@std@@8 0000000180033670     GenericPlatform.obj
 0002:00004688       ??_R2?$basic_ifstream@_WU?$char_traits@_W@std@@@std@@8 0000000180033688     GenericPlatform.obj
 0002:000046b8       ??_R1A@?0A@EA@?$basic_ifstream@_WU?$char_traits@_W@std@@@std@@8 00000001800336b8     GenericPlatform.obj
 0002:000046e0       ??_R1A@?0A@EA@?$basic_istream@_WU?$char_traits@_W@std@@@std@@8 00000001800336e0     GenericPlatform.obj
 0002:00004708       ??_R3?$basic_istream@_WU?$char_traits@_W@std@@@std@@8 0000000180033708     GenericPlatform.obj
 0002:00004720       ??_R2?$basic_istream@_WU?$char_traits@_W@std@@@std@@8 0000000180033720     GenericPlatform.obj
 0002:00004748       ??_R1A@A@3FA@?$basic_ios@_WU?$char_traits@_W@std@@@std@@8 0000000180033748     GenericPlatform.obj
 0002:00004770       ??_R3?$basic_ios@_WU?$char_traits@_W@std@@@std@@8 0000000180033770     GenericPlatform.obj
 0002:00004788       ??_R2?$basic_ios@_WU?$char_traits@_W@std@@@std@@8 0000000180033788     GenericPlatform.obj
 0002:000047a8       ??_R1A@?0A@EA@?$basic_ios@_WU?$char_traits@_W@std@@@std@@8 00000001800337a8     GenericPlatform.obj
 0002:000047d0       ??_R1A@?0A@EA@ios_base@std@@8 00000001800337d0     GenericPlatform.obj
 0002:000047f8       ??_R3ios_base@std@@8       00000001800337f8     GenericPlatform.obj
 0002:00004810       ??_R2ios_base@std@@8       0000000180033810     GenericPlatform.obj
 0002:00004828       ??_R17?0A@EA@?$_Iosb@H@std@@8 0000000180033828     GenericPlatform.obj
 0002:00004850       ??_R3?$_Iosb@H@std@@8      0000000180033850     GenericPlatform.obj
 0002:00004868       ??_R2?$_Iosb@H@std@@8      0000000180033868     GenericPlatform.obj
 0002:00004878       ??_R1A@?0A@EA@?$_Iosb@H@std@@8 0000000180033878     GenericPlatform.obj
 0002:000048a0       ??_R1A@A@3EA@ios_base@std@@8 00000001800338a0     GenericPlatform.obj
 0002:000048c8       ??_R17A@3EA@?$_Iosb@H@std@@8 00000001800338c8     GenericPlatform.obj
 0002:000048f0       ??_R4?$basic_ofstream@_WU?$char_traits@_W@std@@@std@@6B@ 00000001800338f0     GenericPlatform.obj
 0002:00004918       ??_R3?$basic_ofstream@_WU?$char_traits@_W@std@@@std@@8 0000000180033918     GenericPlatform.obj
 0002:00004930       ??_R2?$basic_ofstream@_WU?$char_traits@_W@std@@@std@@8 0000000180033930     GenericPlatform.obj
 0002:00004960       ??_R1A@?0A@EA@?$basic_ofstream@_WU?$char_traits@_W@std@@@std@@8 0000000180033960     GenericPlatform.obj
 0002:00004988       ??_R1A@?0A@EA@?$basic_ostream@_WU?$char_traits@_W@std@@@std@@8 0000000180033988     GenericPlatform.obj
 0002:000049b0       ??_R3?$basic_ostream@_WU?$char_traits@_W@std@@@std@@8 00000001800339b0     GenericPlatform.obj
 0002:000049c8       ??_R2?$basic_ostream@_WU?$char_traits@_W@std@@@std@@8 00000001800339c8     GenericPlatform.obj
 0002:000049f0       ??_R4bad_cast@std@@6B@     00000001800339f0     GenericPlatform.obj
 0002:00004a18       ??_R3bad_cast@std@@8       0000000180033a18     GenericPlatform.obj
 0002:00004a30       ??_R2bad_cast@std@@8       0000000180033a30     GenericPlatform.obj
 0002:00004a48       ??_R1A@?0A@EA@bad_cast@std@@8 0000000180033a48     GenericPlatform.obj
 0002:00004a70       ??_R1A@?0A@EA@codecvt_base@std@@8 0000000180033a70     GenericPlatform.obj
 0002:00004a98       ??_R3codecvt_base@std@@8   0000000180033a98     GenericPlatform.obj
 0002:00004ab0       ??_R2codecvt_base@std@@8   0000000180033ab0     GenericPlatform.obj
 0002:00004ad8       ??_R1A@?0A@EA@facet@locale@std@@8 0000000180033ad8     GenericPlatform.obj
 0002:00004b00       ??_R3facet@locale@std@@8   0000000180033b00     GenericPlatform.obj
 0002:00004b18       ??_R2facet@locale@std@@8   0000000180033b18     GenericPlatform.obj
 0002:00004b38       ??_R1A@?0A@EA@_Facet_base@std@@8 0000000180033b38     GenericPlatform.obj
 0002:00004b60       ??_R3_Facet_base@std@@8    0000000180033b60     GenericPlatform.obj
 0002:00004b78       ??_R2_Facet_base@std@@8    0000000180033b78     GenericPlatform.obj
 0002:00004b88       ??_R17?0A@EA@_Crt_new_delete@std@@8 0000000180033b88     GenericPlatform.obj
 0002:00004bb0       ??_R3_Crt_new_delete@std@@8 0000000180033bb0     GenericPlatform.obj
 0002:00004bc8       ??_R2_Crt_new_delete@std@@8 0000000180033bc8     GenericPlatform.obj
 0002:00004bd8       ??_R1A@?0A@EA@_Crt_new_delete@std@@8 0000000180033bd8     GenericPlatform.obj
 0002:00004c00       ??_R3?$codecvt@_WDU_Mbstatet@@@std@@8 0000000180033c00     GenericPlatform.obj
 0002:00004c18       ??_R2?$codecvt@_WDU_Mbstatet@@@std@@8 0000000180033c18     GenericPlatform.obj
 0002:00004c48       ??_R1A@?0A@EA@?$codecvt@_WDU_Mbstatet@@@std@@8 0000000180033c48     GenericPlatform.obj
 0002:00004c70       ??_R3Platform@@8           0000000180033c70     GenericPlatform.obj
 0002:00004c88       ??_R2Platform@@8           0000000180033c88     GenericPlatform.obj
 0002:00004c98       ??_R1A@?0A@EA@Platform@@8  0000000180033c98     GenericPlatform.obj
 0002:00004cc0       ??_R4GenericPlatform@@6B@  0000000180033cc0     GenericPlatform.obj
 0002:00004ce8       ??_R3GenericPlatform@@8    0000000180033ce8     GenericPlatform.obj
 0002:00004d00       ??_R2GenericPlatform@@8    0000000180033d00     GenericPlatform.obj
 0002:00004d18       ??_R1A@?0A@EA@GenericPlatform@@8 0000000180033d18     GenericPlatform.obj
 0002:00004d40       ??_R1A@A@3FA@Platform@@8   0000000180033d40     GenericPlatform.obj
 0002:00004d68       ??_R4?$codecvt_utf8@_W$0BAPPPP@$0A@@std@@6B@ 0000000180033d68     GenericPlatform.obj
 0002:00004d90       ??_R3?$codecvt_utf8@_W$0BAPPPP@$0A@@std@@8 0000000180033d90     GenericPlatform.obj
 0002:00004da8       ??_R2?$codecvt_utf8@_W$0BAPPPP@$0A@@std@@8 0000000180033da8     GenericPlatform.obj
 0002:00004de0       ??_R1A@?0A@EA@?$codecvt_utf8@_W$0BAPPPP@$0A@@std@@8 0000000180033de0     GenericPlatform.obj
 0002:00004e08       ??_R4IPropertyContainer@@6B@ 0000000180033e08     IniFile.obj
 0002:00004e30       ??_R3IPropertyContainer@@8 0000000180033e30     IniFile.obj
 0002:00004e48       ??_R2IPropertyContainer@@8 0000000180033e48     IniFile.obj
 0002:00004e58       ??_R1A@?0A@EA@IPropertyContainer@@8 0000000180033e58     IniFile.obj
 0002:00004e80       ??_R4ISectionalPropertyContainer@@6B@ 0000000180033e80     IniFile.obj
 0002:00004ea8       ??_R3ISectionalPropertyContainer@@8 0000000180033ea8     IniFile.obj
 0002:00004ec0       ??_R2ISectionalPropertyContainer@@8 0000000180033ec0     IniFile.obj
 0002:00004ed0       ??_R1A@?0A@EA@ISectionalPropertyContainer@@8 0000000180033ed0     IniFile.obj
 0002:00004ef8       ??_R4IniSectionData@@6B@   0000000180033ef8     IniFile.obj
 0002:00004f20       ??_R3IniSectionData@@8     0000000180033f20     IniFile.obj
 0002:00004f38       ??_R2IniSectionData@@8     0000000180033f38     IniFile.obj
 0002:00004f50       ??_R1A@?0A@EA@IniSectionData@@8 0000000180033f50     IniFile.obj
 0002:00004f78       ??_R4IniFile@@6B@          0000000180033f78     IniFile.obj
 0002:00004fa0       ??_R3IniFile@@8            0000000180033fa0     IniFile.obj
 0002:00004fb8       ??_R2IniFile@@8            0000000180033fb8     IniFile.obj
 0002:00004fd0       ??_R1A@?0A@EA@IniFile@@8   0000000180033fd0     IniFile.obj
 0002:00004ff8       ??_R4Exception@@6B@        0000000180033ff8     Java.obj
 0002:00005020       ??_R3Exception@@8          0000000180034020     Java.obj
 0002:00005038       ??_R2Exception@@8          0000000180034038     Java.obj
 0002:00005050       ??_R1A@?0A@EA@Exception@@8 0000000180034050     Java.obj
 0002:00005078       ??_R4JavaException@@6B@    0000000180034078     Java.obj
 0002:000050a0       ??_R3JavaException@@8      00000001800340a0     Java.obj
 0002:000050b8       ??_R2JavaException@@8      00000001800340b8     Java.obj
 0002:000050d8       ??_R1A@?0A@EA@JavaException@@8 00000001800340d8     Java.obj
 0002:00005100       ??_R4JavaUserPreferences@@6B@ 0000000180034100     JavaUserPreferences.obj
 0002:00005128       ??_R3JavaUserPreferences@@8 0000000180034128     JavaUserPreferences.obj
 0002:00005140       ??_R2JavaUserPreferences@@8 0000000180034140     JavaUserPreferences.obj
 0002:00005150       ??_R1A@?0A@EA@JavaUserPreferences@@8 0000000180034150     JavaUserPreferences.obj
 0002:00005178       ??_R4FileNotFoundException@@6B@ 0000000180034178     main.obj
 0002:000051a0       ??_R3FileNotFoundException@@8 00000001800341a0     main.obj
 0002:000051b8       ??_R2FileNotFoundException@@8 00000001800341b8     main.obj
 0002:000051d8       ??_R1A@?0A@EA@FileNotFoundException@@8 00000001800341d8     main.obj
 0002:00005200       ??_R4logic_error@std@@6B@  0000000180034200     Package.obj
 0002:00005228       ??_R3logic_error@std@@8    0000000180034228     Package.obj
 0002:00005240       ??_R2logic_error@std@@8    0000000180034240     Package.obj
 0002:00005258       ??_R1A@?0A@EA@logic_error@std@@8 0000000180034258     Package.obj
 0002:00005280       ??_R4invalid_argument@std@@6B@ 0000000180034280     Package.obj
 0002:000052a8       ??_R3invalid_argument@std@@8 00000001800342a8     Package.obj
 0002:000052c0       ??_R2invalid_argument@std@@8 00000001800342c0     Package.obj
 0002:000052e0       ??_R1A@?0A@EA@invalid_argument@std@@8 00000001800342e0     Package.obj
 0002:00005308       ??_R4Platform@@6B@         0000000180034308     Platform.obj
 0002:00005330       ??_R4?$basic_stringbuf@DU?$char_traits@D@std@@V?$allocator@D@2@@std@@6B@ 0000000180034330     PlatformString.obj
 0002:00005358       ??_R3?$basic_stringbuf@DU?$char_traits@D@std@@V?$allocator@D@2@@std@@8 0000000180034358     PlatformString.obj
 0002:00005370       ??_R2?$basic_stringbuf@DU?$char_traits@D@std@@V?$allocator@D@2@@std@@8 0000000180034370     PlatformString.obj
 0002:00005388       ??_R1A@?0A@EA@?$basic_stringbuf@DU?$char_traits@D@std@@V?$allocator@D@2@@std@@8 0000000180034388     PlatformString.obj
 0002:000053b0       ??_R1A@?0A@EA@?$basic_streambuf@DU?$char_traits@D@std@@@std@@8 00000001800343b0     PlatformString.obj
 0002:000053d8       ??_R3?$basic_streambuf@DU?$char_traits@D@std@@@std@@8 00000001800343d8     PlatformString.obj
 0002:000053f0       ??_R2?$basic_streambuf@DU?$char_traits@D@std@@@std@@8 00000001800343f0     PlatformString.obj
 0002:00005400       ??_R4?$basic_stringstream@DU?$char_traits@D@std@@V?$allocator@D@2@@std@@6B@ 0000000180034400     PlatformString.obj
 0002:00005428       ??_R3?$basic_stringstream@DU?$char_traits@D@std@@V?$allocator@D@2@@std@@8 0000000180034428     PlatformString.obj
 0002:00005440       ??_R2?$basic_stringstream@DU?$char_traits@D@std@@V?$allocator@D@2@@std@@8 0000000180034440     PlatformString.obj
 0002:00005498       ??_R1A@?0A@EA@?$basic_stringstream@DU?$char_traits@D@std@@V?$allocator@D@2@@std@@8 0000000180034498     PlatformString.obj
 0002:000054c0       ??_R1A@?0A@EA@?$basic_iostream@DU?$char_traits@D@std@@@std@@8 00000001800344c0     PlatformString.obj
 0002:000054e8       ??_R3?$basic_iostream@DU?$char_traits@D@std@@@std@@8 00000001800344e8     PlatformString.obj
 0002:00005500       ??_R2?$basic_iostream@DU?$char_traits@D@std@@@std@@8 0000000180034500     PlatformString.obj
 0002:00005550       ??_R1A@?0A@EA@?$basic_istream@DU?$char_traits@D@std@@@std@@8 0000000180034550     PlatformString.obj
 0002:00005578       ??_R3?$basic_istream@DU?$char_traits@D@std@@@std@@8 0000000180034578     PlatformString.obj
 0002:00005590       ??_R2?$basic_istream@DU?$char_traits@D@std@@@std@@8 0000000180034590     PlatformString.obj
 0002:000055b8       ??_R1A@A@3FA@?$basic_ios@DU?$char_traits@D@std@@@std@@8 00000001800345b8     PlatformString.obj
 0002:000055e0       ??_R3?$basic_ios@DU?$char_traits@D@std@@@std@@8 00000001800345e0     PlatformString.obj
 0002:000055f8       ??_R2?$basic_ios@DU?$char_traits@D@std@@@std@@8 00000001800345f8     PlatformString.obj
 0002:00005618       ??_R1A@?0A@EA@?$basic_ios@DU?$char_traits@D@std@@@std@@8 0000000180034618     PlatformString.obj
 0002:00005640       ??_R1BA@?0A@EA@?$basic_ostream@DU?$char_traits@D@std@@@std@@8 0000000180034640     PlatformString.obj
 0002:00005668       ??_R3?$basic_ostream@DU?$char_traits@D@std@@@std@@8 0000000180034668     PlatformString.obj
 0002:00005680       ??_R2?$basic_ostream@DU?$char_traits@D@std@@@std@@8 0000000180034680     PlatformString.obj
 0002:000056a8       ??_R1A@?0A@EA@?$basic_ostream@DU?$char_traits@D@std@@@std@@8 00000001800346a8     PlatformString.obj
 0002:000056d0       ??_R4PropertyFile@@6B@     00000001800346d0     PropertyFile.obj
 0002:000056f8       ??_R3PropertyFile@@8       00000001800346f8     PropertyFile.obj
 0002:00005710       ??_R2PropertyFile@@8       0000000180034710     PropertyFile.obj
 0002:00005728       ??_R1A@?0A@EA@PropertyFile@@8 0000000180034728     PropertyFile.obj
 0002:00005750       ??_R4Process@@6B@          0000000180034750     WindowsPlatform.obj
 0002:00005778       ??_R3Process@@8            0000000180034778     WindowsPlatform.obj
 0002:00005790       ??_R2Process@@8            0000000180034790     WindowsPlatform.obj
 0002:000057a0       ??_R1A@?0A@EA@Process@@8   00000001800347a0     WindowsPlatform.obj
 0002:000057c8       ??_R4WindowsPlatform@@6B@  00000001800347c8     WindowsPlatform.obj
 0002:000057f0       ??_R3WindowsPlatform@@8    00000001800347f0     WindowsPlatform.obj
 0002:00005808       ??_R2WindowsPlatform@@8    0000000180034808     WindowsPlatform.obj
 0002:00005830       ??_R1A@?0A@EA@WindowsPlatform@@8 0000000180034830     WindowsPlatform.obj
 0002:00005858       ??_R1A@?0A@EN@GenericPlatform@@8 0000000180034858     WindowsPlatform.obj
 0002:00005880       ??_R4WindowsJavaUserPreferences@@6B@ 0000000180034880     WindowsPlatform.obj
 0002:000058a8       ??_R3WindowsJavaUserPreferences@@8 00000001800348a8     WindowsPlatform.obj
 0002:000058c0       ??_R2WindowsJavaUserPreferences@@8 00000001800348c0     WindowsPlatform.obj
 0002:000058d8       ??_R1A@?0A@EA@WindowsJavaUserPreferences@@8 00000001800348d8     WindowsPlatform.obj
 0002:00005900       ??_R4WindowsProcess@@6B@   0000000180034900     WindowsPlatform.obj
 0002:00005928       ??_R3WindowsProcess@@8     0000000180034928     WindowsPlatform.obj
 0002:00005940       ??_R2WindowsProcess@@8     0000000180034940     WindowsPlatform.obj
 0002:00005958       ??_R1A@?0A@EA@WindowsProcess@@8 0000000180034958     WindowsPlatform.obj
 0002:00005980       ??_R4?$collate@_W@std@@6B@ 0000000180034980     WindowsPlatform.obj
 0002:000059a8       ??_R3?$collate@_W@std@@8   00000001800349a8     WindowsPlatform.obj
 0002:000059c0       ??_R2?$collate@_W@std@@8   00000001800349c0     WindowsPlatform.obj
 0002:000059e8       ??_R1A@?0A@EA@?$collate@_W@std@@8 00000001800349e8     WindowsPlatform.obj
 0002:00005a10       ??_R4_Node_base@std@@6B@   0000000180034a10     WindowsPlatform.obj
 0002:00005a38       ??_R3_Node_base@std@@8     0000000180034a38     WindowsPlatform.obj
 0002:00005a50       ??_R2_Node_base@std@@8     0000000180034a50     WindowsPlatform.obj
 0002:00005a60       ??_R1A@?0A@EA@_Node_base@std@@8 0000000180034a60     WindowsPlatform.obj
 0002:00005a88       ??_R4_Root_node@std@@6B@   0000000180034a88     WindowsPlatform.obj
 0002:00005ab0       ??_R3_Root_node@std@@8     0000000180034ab0     WindowsPlatform.obj
 0002:00005ac8       ??_R2_Root_node@std@@8     0000000180034ac8     WindowsPlatform.obj
 0002:00005ae0       ??_R1A@?0A@EA@_Root_node@std@@8 0000000180034ae0     WindowsPlatform.obj
 0002:00005b08       ??_R4_Node_end_group@std@@6B@ 0000000180034b08     WindowsPlatform.obj
 0002:00005b30       ??_R3_Node_end_group@std@@8 0000000180034b30     WindowsPlatform.obj
 0002:00005b48       ??_R2_Node_end_group@std@@8 0000000180034b48     WindowsPlatform.obj
 0002:00005b60       ??_R1A@?0A@EA@_Node_end_group@std@@8 0000000180034b60     WindowsPlatform.obj
 0002:00005b88       ??_R4_Node_assert@std@@6B@ 0000000180034b88     WindowsPlatform.obj
 0002:00005bb0       ??_R3_Node_assert@std@@8   0000000180034bb0     WindowsPlatform.obj
 0002:00005bc8       ??_R2_Node_assert@std@@8   0000000180034bc8     WindowsPlatform.obj
 0002:00005be0       ??_R1A@?0A@EA@_Node_assert@std@@8 0000000180034be0     WindowsPlatform.obj
 0002:00005c08       ??_R4_Node_capture@std@@6B@ 0000000180034c08     WindowsPlatform.obj
 0002:00005c30       ??_R3_Node_capture@std@@8  0000000180034c30     WindowsPlatform.obj
 0002:00005c48       ??_R2_Node_capture@std@@8  0000000180034c48     WindowsPlatform.obj
 0002:00005c60       ??_R1A@?0A@EA@_Node_capture@std@@8 0000000180034c60     WindowsPlatform.obj
 0002:00005c88       ??_R4_Node_back@std@@6B@   0000000180034c88     WindowsPlatform.obj
 0002:00005cb0       ??_R3_Node_back@std@@8     0000000180034cb0     WindowsPlatform.obj
 0002:00005cc8       ??_R2_Node_back@std@@8     0000000180034cc8     WindowsPlatform.obj
 0002:00005ce0       ??_R1A@?0A@EA@_Node_back@std@@8 0000000180034ce0     WindowsPlatform.obj
 0002:00005d08       ??_R4_Node_endif@std@@6B@  0000000180034d08     WindowsPlatform.obj
 0002:00005d30       ??_R3_Node_endif@std@@8    0000000180034d30     WindowsPlatform.obj
 0002:00005d48       ??_R2_Node_endif@std@@8    0000000180034d48     WindowsPlatform.obj
 0002:00005d60       ??_R1A@?0A@EA@_Node_endif@std@@8 0000000180034d60     WindowsPlatform.obj
 0002:00005d88       ??_R4_Node_if@std@@6B@     0000000180034d88     WindowsPlatform.obj
 0002:00005db0       ??_R3_Node_if@std@@8       0000000180034db0     WindowsPlatform.obj
 0002:00005dc8       ??_R2_Node_if@std@@8       0000000180034dc8     WindowsPlatform.obj
 0002:00005de0       ??_R1A@?0A@EA@_Node_if@std@@8 0000000180034de0     WindowsPlatform.obj
 0002:00005e08       ??_R4_Node_rep@std@@6B@    0000000180034e08     WindowsPlatform.obj
 0002:00005e30       ??_R3_Node_rep@std@@8      0000000180034e30     WindowsPlatform.obj
 0002:00005e48       ??_R2_Node_rep@std@@8      0000000180034e48     WindowsPlatform.obj
 0002:00005e60       ??_R1A@?0A@EA@_Node_rep@std@@8 0000000180034e60     WindowsPlatform.obj
 0002:00005e88       ??_R4_Node_end_rep@std@@6B@ 0000000180034e88     WindowsPlatform.obj
 0002:00005eb0       ??_R3_Node_end_rep@std@@8  0000000180034eb0     WindowsPlatform.obj
 0002:00005ec8       ??_R2_Node_end_rep@std@@8  0000000180034ec8     WindowsPlatform.obj
 0002:00005ee0       ??_R1A@?0A@EA@_Node_end_rep@std@@8 0000000180034ee0     WindowsPlatform.obj
 0002:00005f08       ??_R4?$_Node_class@_WV?$regex_traits@_W@std@@@std@@6B@ 0000000180034f08     WindowsPlatform.obj
 0002:00005f30       ??_R3?$_Node_class@_WV?$regex_traits@_W@std@@@std@@8 0000000180034f30     WindowsPlatform.obj
 0002:00005f48       ??_R2?$_Node_class@_WV?$regex_traits@_W@std@@@std@@8 0000000180034f48     WindowsPlatform.obj
 0002:00005f60       ??_R1A@?0A@EA@?$_Node_class@_WV?$regex_traits@_W@std@@@std@@8 0000000180034f60     WindowsPlatform.obj
 0002:00005f88       ??_R4?$_Node_str@_W@std@@6B@ 0000000180034f88     WindowsPlatform.obj
 0002:00005fb0       ??_R3?$_Node_str@_W@std@@8 0000000180034fb0     WindowsPlatform.obj
 0002:00005fc8       ??_R2?$_Node_str@_W@std@@8 0000000180034fc8     WindowsPlatform.obj
 0002:00005fe0       ??_R1A@?0A@EA@?$_Node_str@_W@std@@8 0000000180034fe0     WindowsPlatform.obj
 0002:00006008       ??_R4type_info@@6B@        0000000180035008     MSVCRT:std_type_info_static.obj
 0002:00006030       ??_R3type_info@@8          0000000180035030     MSVCRT:std_type_info_static.obj
 0002:00006048       ??_R2type_info@@8          0000000180035048     MSVCRT:std_type_info_static.obj
 0002:00006058       ??_R1A@?0A@EA@type_info@@8 0000000180035058     MSVCRT:std_type_info_static.obj
 0002:00006080       ??_R4bad_alloc@std@@6B@    0000000180035080     MSVCRT:throw_bad_alloc.obj
 0002:000060a8       ??_R3bad_alloc@std@@8      00000001800350a8     MSVCRT:throw_bad_alloc.obj
 0002:000060c0       ??_R2bad_alloc@std@@8      00000001800350c0     MSVCRT:throw_bad_alloc.obj
 0002:000060d8       ??_R1A@?0A@EA@bad_alloc@std@@8 00000001800350d8     MSVCRT:throw_bad_alloc.obj
 0002:00006100       ??_R4bad_array_new_length@std@@6B@ 0000000180035100     MSVCRT:throw_bad_alloc.obj
 0002:00006128       ??_R3bad_array_new_length@std@@8 0000000180035128     MSVCRT:throw_bad_alloc.obj
 0002:00006140       ??_R2bad_array_new_length@std@@8 0000000180035140     MSVCRT:throw_bad_alloc.obj
 0002:00006160       ??_R1A@?0A@EA@bad_array_new_length@std@@8 0000000180035160     MSVCRT:throw_bad_alloc.obj
 0002:000064a8       __rtc_iaa                  00000001800354a8     MSVCRT:initsect.obj
 0002:000064b0       __rtc_izz                  00000001800354b0     MSVCRT:initsect.obj
 0002:000064b8       __rtc_taa                  00000001800354b8     MSVCRT:initsect.obj
 0002:000064c0       __rtc_tzz                  00000001800354c0     MSVCRT:initsect.obj
 0002:000064c8       _tls_start                 00000001800354c8     MSVCRT:tlssup.obj
 0002:000064cc       _Init_thread_epoch         00000001800354cc     MSVCRT:thread_safe_statics.obj
 0002:000064d0       _tls_end                   00000001800354d0     MSVCRT:tlssup.obj
 0002:0000dac8       _CT??_R0?AVexception@std@@@8??0exception@std@@QEAA@AEBV01@@Z24 000000018003cac8     GenericPlatform.obj
 0002:0000daf0       _TI2?AVbad_cast@std@@      000000018003caf0     GenericPlatform.obj
 0002:0000db10       _CTA2?AVbad_cast@std@@     000000018003cb10     GenericPlatform.obj
 0002:0000db28       _CT??_R0?AVbad_cast@std@@@8??0bad_cast@std@@QEAA@AEBV01@@Z24 000000018003cb28     GenericPlatform.obj
 0002:0000db50       _TI3?AVJavaException@@     000000018003cb50     Java.obj
 0002:0000db70       _CTA3?AVJavaException@@    000000018003cb70     Java.obj
 0002:0000db90       _CT??_R0?AVJavaException@@@8??0JavaException@@QEAA@AEBV0@@Z72 000000018003cb90     Java.obj
 0002:0000dbb8       _CT??_R0?AVException@@@8??0Exception@@QEAA@AEBV0@@Z56 000000018003cbb8     Java.obj
 0002:0000dbe0       _TI3?AVFileNotFoundException@@ 000000018003cbe0     main.obj
 0002:0000dc00       _CTA3?AVFileNotFoundException@@ 000000018003cc00     main.obj
 0002:0000dc20       _CT??_R0?AVFileNotFoundException@@@8??0FileNotFoundException@@QEAA@AEBV0@@Z56 000000018003cc20     main.obj
 0002:0000dc48       _TI2?AVException@@         000000018003cc48     main.obj
 0002:0000dc68       _CTA2?AVException@@        000000018003cc68     main.obj
 0002:0000dc80       _TI3?AVinvalid_argument@std@@ 000000018003cc80     Package.obj
 0002:0000dca0       _CTA3?AVinvalid_argument@std@@ 000000018003cca0     Package.obj
 0002:0000dcc0       _CT??_R0?AVinvalid_argument@std@@@8??0invalid_argument@std@@QEAA@AEBV01@@Z24 000000018003ccc0     Package.obj
 0002:0000dce8       _CT??_R0?AVlogic_error@std@@@8??0logic_error@std@@QEAA@AEBV01@@Z24 000000018003cce8     Package.obj
 0002:0000dd10       _TI2?AVbad_alloc@std@@     000000018003cd10     MSVCRT:throw_bad_alloc.obj
 0002:0000dd30       _CTA2?AVbad_alloc@std@@    000000018003cd30     MSVCRT:throw_bad_alloc.obj
 0002:0000dd48       _CT??_R0?AVbad_alloc@std@@@8??0bad_alloc@std@@QEAA@AEBV01@@Z24 000000018003cd48     MSVCRT:throw_bad_alloc.obj
 0002:0000dd70       _TI3?AVbad_array_new_length@std@@ 000000018003cd70     MSVCRT:throw_bad_alloc.obj
 0002:0000dd90       _CTA3?AVbad_array_new_length@std@@ 000000018003cd90     MSVCRT:throw_bad_alloc.obj
 0002:0000ddb0       _CT??_R0?AVbad_array_new_length@std@@@8??0bad_array_new_length@std@@QEAA@AEBV01@@Z24 000000018003cdb0     MSVCRT:throw_bad_alloc.obj
 0002:0000e02c       __IMPORT_DESCRIPTOR_USER32 000000018003d02c     user32:USER32.dll
 0002:0000e040       __IMPORT_DESCRIPTOR_SHELL32 000000018003d040     shell32:SHELL32.dll
 0002:0000e054       __IMPORT_DESCRIPTOR_ADVAPI32 000000018003d054     advapi32:ADVAPI32.dll
 0002:0000e068       __IMPORT_DESCRIPTOR_MSVCP140 000000018003d068     msvcprt:MSVCP140.dll
 0002:0000e07c       __IMPORT_DESCRIPTOR_KERNEL32 000000018003d07c     kernel32:KERNEL32.dll
 0002:0000e090       __IMPORT_DESCRIPTOR_VCRUNTIME140 000000018003d090     vcruntime:VCRUNTIME140.dll
 0002:0000e0a4       __IMPORT_DESCRIPTOR_api-ms-win-crt-runtime-l1-1-0 000000018003d0a4     ucrt:api-ms-win-crt-runtime-l1-1-0.dll
 0002:0000e0b8       __IMPORT_DESCRIPTOR_api-ms-win-crt-filesystem-l1-1-0 000000018003d0b8     ucrt:api-ms-win-crt-filesystem-l1-1-0.dll
 0002:0000e0cc       __IMPORT_DESCRIPTOR_api-ms-win-crt-heap-l1-1-0 000000018003d0cc     ucrt:api-ms-win-crt-heap-l1-1-0.dll
 0002:0000e0e0       __IMPORT_DESCRIPTOR_api-ms-win-crt-stdio-l1-1-0 000000018003d0e0     ucrt:api-ms-win-crt-stdio-l1-1-0.dll
 0002:0000e0f4       __IMPORT_DESCRIPTOR_api-ms-win-crt-convert-l1-1-0 000000018003d0f4     ucrt:api-ms-win-crt-convert-l1-1-0.dll
 0002:0000e108       __IMPORT_DESCRIPTOR_api-ms-win-crt-string-l1-1-0 000000018003d108     ucrt:api-ms-win-crt-string-l1-1-0.dll
 0002:0000e11c       __NULL_IMPORT_DESCRIPTOR   000000018003d11c     user32:USER32.dll
 0003:000000f0       __security_cookie_complement 00000001800400f0     MSVCRT:gs_cookie.obj
 0003:000000f8       __security_cookie          00000001800400f8     MSVCRT:gs_cookie.obj
 0003:00000100       __scrt_native_dllmain_reason 0000000180040100     MSVCRT:utility.obj
 0003:00000104       _Init_global_epoch         0000000180040104     MSVCRT:thread_safe_statics.obj
 0003:00000108       __isa_available            0000000180040108     MSVCRT:cpu_disp.obj
 0003:0000010c       __isa_enabled              000000018004010c     MSVCRT:cpu_disp.obj
 0003:00000110       __memcpy_nt_iters          0000000180040110     MSVCRT:cpu_disp.obj
 0003:00000120       __scrt_ucrt_dll_is_in_use  0000000180040120     MSVCRT:ucrt_stubs.obj
 0003:00000130       ??_R0?AVJavaException@@@8  0000000180040130     Exports.obj
 0003:00000158       ??_R0?AVexception@std@@@8  0000000180040158     GenericPlatform.obj
 0003:00000180       ??_R0?AVbad_cast@std@@@8   0000000180040180     GenericPlatform.obj
 0003:000001b0       ??_R0?AV?$basic_filebuf@_WU?$char_traits@_W@std@@@std@@@8 00000001800401b0     GenericPlatform.obj
 0003:00000200       ??_R0?AV?$basic_streambuf@_WU?$char_traits@_W@std@@@std@@@8 0000000180040200     GenericPlatform.obj
 0003:00000250       ??_R0?AV?$basic_ifstream@_WU?$char_traits@_W@std@@@std@@@8 0000000180040250     GenericPlatform.obj
 0003:000002a0       ??_R0?AV?$basic_istream@_WU?$char_traits@_W@std@@@std@@@8 00000001800402a0     GenericPlatform.obj
 0003:000002f0       ??_R0?AV?$basic_ios@_WU?$char_traits@_W@std@@@std@@@8 00000001800402f0     GenericPlatform.obj
 0003:00000330       ??_R0?AVios_base@std@@@8   0000000180040330     GenericPlatform.obj
 0003:00000358       ??_R0?AV?$_Iosb@H@std@@@8  0000000180040358     GenericPlatform.obj
 0003:00000380       ??_R0?AV?$basic_ofstream@_WU?$char_traits@_W@std@@@std@@@8 0000000180040380     GenericPlatform.obj
 0003:000003d0       ??_R0?AV?$basic_ostream@_WU?$char_traits@_W@std@@@std@@@8 00000001800403d0     GenericPlatform.obj
 0003:00000418       ??_R0?AVcodecvt_base@std@@@8 0000000180040418     GenericPlatform.obj
 0003:00000440       ??_R0?AVfacet@locale@std@@@8 0000000180040440     GenericPlatform.obj
 0003:00000468       ??_R0?AV_Facet_base@std@@@8 0000000180040468     GenericPlatform.obj
 0003:00000490       ??_R0?AU_Crt_new_delete@std@@@8 0000000180040490     GenericPlatform.obj
 0003:000004c0       ??_R0?AV?$codecvt@_WDU_Mbstatet@@@std@@@8 00000001800404c0     GenericPlatform.obj
 0003:000004f8       ??_R0?AVPlatform@@@8       00000001800404f8     GenericPlatform.obj
 0003:00000518       ??_R0?AVGenericPlatform@@@8 0000000180040518     GenericPlatform.obj
 0003:00000540       ??_R0?AV?$codecvt_utf8@_W$0BAPPPP@$0A@@std@@@8 0000000180040540     GenericPlatform.obj
 0003:00000580       ??_R0?AVIPropertyContainer@@@8 0000000180040580     IniFile.obj
 0003:000005b0       ??_R0?AVISectionalPropertyContainer@@@8 00000001800405b0     IniFile.obj
 0003:000005e8       ??_R0?AVIniSectionData@@@8 00000001800405e8     IniFile.obj
 0003:00000610       ??_R0?AVIniFile@@@8        0000000180040610     IniFile.obj
 0003:00000630       ??_R0?AVException@@@8      0000000180040630     Java.obj
 0003:00000650       ??_R0?AVJavaUserPreferences@@@8 0000000180040650     JavaUserPreferences.obj
 0003:00000680       ??_R0?AVFileNotFoundException@@@8 0000000180040680     main.obj
 0003:000006b0       ??_R0?AVout_of_range@std@@@8 00000001800406b0     Package.obj
 0003:000006d8       ??_R0?AVinvalid_argument@std@@@8 00000001800406d8     Package.obj
 0003:00000708       ??_R0?AVlogic_error@std@@@8 0000000180040708     Package.obj
 0003:00000730       ??_R0?AV?$basic_stringbuf@DU?$char_traits@D@std@@V?$allocator@D@2@@std@@@8 0000000180040730     PlatformString.obj
 0003:00000790       ??_R0?AV?$basic_streambuf@DU?$char_traits@D@std@@@std@@@8 0000000180040790     PlatformString.obj
 0003:000007e0       ??_R0?AV?$basic_stringstream@DU?$char_traits@D@std@@V?$allocator@D@2@@std@@@8 00000001800407e0     PlatformString.obj
 0003:00000840       ??_R0?AV?$basic_iostream@DU?$char_traits@D@std@@@std@@@8 0000000180040840     PlatformString.obj
 0003:00000890       ??_R0?AV?$basic_istream@DU?$char_traits@D@std@@@std@@@8 0000000180040890     PlatformString.obj
 0003:000008d8       ??_R0?AV?$basic_ios@DU?$char_traits@D@std@@@std@@@8 00000001800408d8     PlatformString.obj
 0003:00000920       ??_R0?AV?$basic_ostream@DU?$char_traits@D@std@@@std@@@8 0000000180040920     PlatformString.obj
 0003:00000968       ??_R0?AVPropertyFile@@@8   0000000180040968     PropertyFile.obj
 0003:00000990       ??_R0?AVProcess@@@8        0000000180040990     WindowsPlatform.obj
 0003:000009b0       ??_R0?AVWindowsPlatform@@@8 00000001800409b0     WindowsPlatform.obj
 0003:000009d8       ??_R0?AVWindowsJavaUserPreferences@@@8 00000001800409d8     WindowsPlatform.obj
 0003:00000a10       ??_R0?AVWindowsProcess@@@8 0000000180040a10     WindowsPlatform.obj
 0003:00000a38       ??_R0?AV?$collate@_W@std@@@8 0000000180040a38     WindowsPlatform.obj
 0003:00000a60       ??_R0?AV_Node_base@std@@@8 0000000180040a60     WindowsPlatform.obj
 0003:00000a88       ??_R0?AV_Root_node@std@@@8 0000000180040a88     WindowsPlatform.obj
 0003:00000ab0       ??_R0?AV_Node_end_group@std@@@8 0000000180040ab0     WindowsPlatform.obj
 0003:00000ae0       ??_R0?AV_Node_assert@std@@@8 0000000180040ae0     WindowsPlatform.obj
 0003:00000b08       ??_R0?AV_Node_capture@std@@@8 0000000180040b08     WindowsPlatform.obj
 0003:00000b30       ??_R0?AV_Node_back@std@@@8 0000000180040b30     WindowsPlatform.obj
 0003:00000b58       ??_R0?AV_Node_endif@std@@@8 0000000180040b58     WindowsPlatform.obj
 0003:00000b80       ??_R0?AV_Node_if@std@@@8   0000000180040b80     WindowsPlatform.obj
 0003:00000ba8       ??_R0?AV_Node_rep@std@@@8  0000000180040ba8     WindowsPlatform.obj
 0003:00000bd0       ??_R0?AV_Node_end_rep@std@@@8 0000000180040bd0     WindowsPlatform.obj
 0003:00000c00       ??_R0?AV?$_Node_class@_WV?$regex_traits@_W@std@@@std@@@8 0000000180040c00     WindowsPlatform.obj
 0003:00000c48       ??_R0?AV?$_Node_str@_W@std@@@8 0000000180040c48     WindowsPlatform.obj
 0003:00000c78       ??_R0?AVtype_info@@@8      0000000180040c78     MSVCRT:std_type_info_static.obj
 0003:00000c98       ??_R0?AVbad_alloc@std@@@8  0000000180040c98     MSVCRT:throw_bad_alloc.obj
 0003:00000cc0       ??_R0?AVbad_array_new_length@std@@@8 0000000180040cc0     MSVCRT:throw_bad_alloc.obj
 0003:00000cf0       ?_Stinit@?1??_Init@?$basic_filebuf@_WU?$char_traits@_W@std@@@std@@IEAAXPEAU_iobuf@@W4_Initfl@23@@Z@4U_Mbstatet@@A 0000000180040cf0     GenericPlatform.obj
 0003:00000cf8       ?_Psave@?$_Facetptr@V?$codecvt@_WDU_Mbstatet@@@std@@@std@@2PEBVfacet@locale@2@EB 0000000180040cf8     GenericPlatform.obj
 0003:00000d98       ?FJob@WindowsProcess@@0VWindowsJob@@A 0000000180040d98     WindowsPlatform.obj
 0003:00000da0       ?_Psave@?$_Facetptr@V?$ctype@_W@std@@@std@@2PEBVfacet@locale@2@EB 0000000180040da0     WindowsPlatform.obj
 0003:00000da8       ?_Psave@?$_Facetptr@V?$collate@_W@std@@@std@@2PEBVfacet@locale@2@EB 0000000180040da8     WindowsPlatform.obj
 0003:00000dc0       __scrt_current_native_startup_state 0000000180040dc0     MSVCRT:utility.obj
 0003:00000dc8       __scrt_native_startup_lock 0000000180040dc8     MSVCRT:utility.obj
 0003:00000e50       _tls_index                 0000000180040e50     MSVCRT:tlssup.obj
 0003:000013d0       __favor                    00000001800413d0     MSVCRT:cpu_disp.obj
 0003:000013d4       __scrt_debugger_hook_flag  00000001800413d4     MSVCRT:utility_desktop.obj
 0003:000013e0       ?__type_info_root_node@@3U__type_info_node@@A 00000001800413e0     MSVCRT:tncleanup.obj
 0003:000013f0       ?_OptionsStorage@?1??__local_stdio_printf_options@@9@4_KA 00000001800413f0     MSVCRT:default_local_stdio_options.obj
 0003:000013f8       ?_OptionsStorage@?1??__local_stdio_scanf_options@@9@4_KA 00000001800413f8     MSVCRT:default_local_stdio_options.obj
 0003:00001400       __dyn_tls_init_callback    0000000180041400     <common>

 entry point at        0001:0002a640

 Static symbols

 0001:00000000       ??__E?FJob@WindowsProcess@@0VWindowsJob@@A@@YAXXZ 0000000180001000 f   WindowsPlatform.obj
 0001:0000000c       ??__E_Fac_tidy_reg@std@@YAXXZ 000000018000100c f   msvcprt:locale0_implib.obj
 0001:000046fc       $LN96                      00000001800056fc     FilePath.obj
 0001:0000471c       $LN95                      000000018000571c     FilePath.obj
 0001:00026510       $LN103                     0000000180027510     WindowsPlatform.obj
 0001:00026518       $LN102                     0000000180027518     WindowsPlatform.obj
 0001:0002654c       $LN101                     000000018002754c     WindowsPlatform.obj
 0001:0002655c       $LN100                     000000018002755c     WindowsPlatform.obj
 0001:00028668       $LN592                     0000000180029668     WindowsPlatform.obj
 0001:00028a8c       $LN255                     0000000180029a8c     WindowsPlatform.obj
 0001:00028cbc       $LN28                      0000000180029cbc     WindowsPlatform.obj
 0001:00028ce4       $LN27                      0000000180029ce4     WindowsPlatform.obj
 0001:00029b00       $$000000                   000000018002ab00     MSVCRT:amdsecgs.obj
 0001:00029fc8       ?__scrt_initialize_thread_safe_statics@@YAHXZ 000000018002afc8 f   MSVCRT:thread_safe_statics.obj
 0001:0002a128       ?__scrt_uninitialize_thread_safe_statics@@YAXXZ 000000018002b128 f   MSVCRT:thread_safe_statics.obj
 0001:0002a310       ?dllmain_crt_dispatch@@YAHQEAUHINSTANCE__@@KQEAX@Z 000000018002b310 f   MSVCRT:dll_dllmain.obj
 0001:0002a360       ?dllmain_crt_process_attach@@YAHQEAUHINSTANCE__@@QEAX@Z 000000018002b360 f   MSVCRT:dll_dllmain.obj
 0001:0002a47c       ?dllmain_crt_process_detach@@YAH_N@Z 000000018002b47c f   MSVCRT:dll_dllmain.obj
 0001:0002a50c       ?dllmain_dispatch@@YAHQEAUHINSTANCE__@@KQEAX@Z 000000018002b50c f   MSVCRT:dll_dllmain.obj
 0001:0002a894       capture_previous_context   000000018002b894 f   MSVCRT:gs_report.obj
 0001:0002ae60       $$000000                   000000018002be60     MSVCRT:guard_dispatch.obj
 0001:0002ae80       ?catch$2@?0???$_Buynode@AEBUpiecewise_construct_t@std@@V?$tuple@AEBV?$basic_string@_WU?$char_traits@_W@std@@V?$allocator@_W@2@@std@@@2@V?$tuple@$$V@2@@?$_Tree_comp_alloc@V?$_Tmap_traits@V?$basic_string@_WU?$char_traits@_W@std@@V?$allocator@_W@2@@std@@PEAU?$pair@V?$basic_string@_WU?$char_traits@_W@std@@V?$allocator@_W@2@@std@@V12@@@U?$less@V?$basic_string@_WU?$char_traits@_W@std@@V?$allocator@_W@2@@std@@@2@V?$allocator@U?$pair@$$CBV?$basic_string@_WU?$char_traits@_W@std@@V?$allocator@_W@2@@std@@PEAU?$pair@V?$basic_string@_WU?$char_traits@_W@std@@V?$allocator@_W@2@@std@@V12@@@@std@@@2@$0A@@std@@@std@@QEAAPEAU?$_Tree_node@U?$pair@$$CBV?$basic_string@_WU?$char_traits@_W@std@@V?$allocator@_W@2@@std@@PEAU?$pair@V?$basic_string@_WU?$char_traits@_W@std@@V?$allocator@_W@2@@std@@V12@@@@std@@PEAX@1@AEBUpiecewise_construct_t@1@$$QEAV?$tuple@AEBV?$basic_string@_WU?$char_traits@_W@std@@V?$allocator@_W@2@@std@@@1@$$QEAV?$tuple@$$V@1@@Z@4HA 000000018002be80 f   Exports.obj
 0001:0002ae80       ?catch$2@?0???$_Buynode@AEBUpiecewise_construct_t@std@@V?$tuple@AEBV?$basic_string@_WU?$char_traits@_W@std@@V?$allocator@_W@2@@std@@@2@V?$tuple@$$V@2@@?$_Tree_comp_alloc@V?$_Tmap_traits@V?$basic_string@_WU?$char_traits@_W@std@@V?$allocator@_W@2@@std@@PEAU?$pair@V?$basic_string@_WU?$char_traits@_W@std@@V?$allocator@_W@2@@std@@PEAVIniSectionData@@@@U?$less@V?$basic_string@_WU?$char_traits@_W@std@@V?$allocator@_W@2@@std@@@2@V?$allocator@U?$pair@$$CBV?$basic_string@_WU?$char_traits@_W@std@@V?$allocator@_W@2@@std@@PEAU?$pair@V?$basic_string@_WU?$char_traits@_W@std@@V?$allocator@_W@2@@std@@PEAVIniSectionData@@@@@std@@@2@$0A@@std@@@std@@QEAAPEAU?$_Tree_node@U?$pair@$$CBV?$basic_string@_WU?$char_traits@_W@std@@V?$allocator@_W@2@@std@@PEAU?$pair@V?$basic_string@_WU?$char_traits@_W@std@@V?$allocator@_W@2@@std@@PEAVIniSectionData@@@@@std@@PEAX@1@AEBUpiecewise_construct_t@1@$$QEAV?$tuple@AEBV?$basic_string@_WU?$char_traits@_W@std@@V?$allocator@_W@2@@std@@@1@$$QEAV?$tuple@$$V@1@@Z@4HA 000000018002be80 f   IniFile.obj
 0001:0002ae8d       __catch$??$_Buynode@AEBUpiecewise_construct_t@std@@V?$tuple@AEBV?$basic_string@_WU?$char_traits@_W@std@@V?$allocator@_W@2@@std@@@2@V?$tuple@$$V@2@@?$_Tree_comp_alloc@V?$_Tmap_traits@V?$basic_string@_WU?$char_traits@_W@std@@V?$allocator@_W@2@@std@@PEAU?$pair@V?$basic_string@_WU?$char_traits@_W@std@@V?$allocator@_W@2@@std@@PEAVIniSectionData@@@@U?$less@V?$basic_string@_WU?$char_traits@_W@std@@V?$allocator@_W@2@@std@@@2@V?$allocator@U?$pair@$$CBV?$basic_string@_WU?$char_traits@_W@std@@V?$allocator@_W@2@@std@@PEAU?$pair@V?$basic_string@_WU?$char_traits@_W@std@@V?$allocator@_W@2@@std@@PEAVIniSectionData@@@@@std@@@2@$0A@@std@@@std@@QEAAPEAU?$_Tree_node@U?$pair@$$CBV?$basic_string@_WU?$char_traits@_W@std@@V?$allocator@_W@2@@std@@PEAU?$pair@V?$basic_string@_WU?$char_traits@_W@std@@V?$allocator@_W@2@@std@@PEAVIniSectionData@@@@@std@@PEAX@1@AEBUpiecewise_construct_t@1@$$QEAV?$tuple@AEBV?$basic_string@_WU?$char_traits@_W@std@@V?$allocator@_W@2@@std@@@1@$$QEAV?$tuple@$$V@1@@Z$0 000000018002be8d f   IniFile.obj
 0001:0002ae8d       __catch$??$_Buynode@AEBUpiecewise_construct_t@std@@V?$tuple@AEBV?$basic_string@_WU?$char_traits@_W@std@@V?$allocator@_W@2@@std@@@2@V?$tuple@$$V@2@@?$_Tree_comp_alloc@V?$_Tmap_traits@V?$basic_string@_WU?$char_traits@_W@std@@V?$allocator@_W@2@@std@@PEAU?$pair@V?$basic_string@_WU?$char_traits@_W@std@@V?$allocator@_W@2@@std@@V12@@@U?$less@V?$basic_string@_WU?$char_traits@_W@std@@V?$allocator@_W@2@@std@@@2@V?$allocator@U?$pair@$$CBV?$basic_string@_WU?$char_traits@_W@std@@V?$allocator@_W@2@@std@@PEAU?$pair@V?$basic_string@_WU?$char_traits@_W@std@@V?$allocator@_W@2@@std@@V12@@@@std@@@2@$0A@@std@@@std@@QEAAPEAU?$_Tree_node@U?$pair@$$CBV?$basic_string@_WU?$char_traits@_W@std@@V?$allocator@_W@2@@std@@PEAU?$pair@V?$basic_string@_WU?$char_traits@_W@std@@V?$allocator@_W@2@@std@@V12@@@@std@@PEAX@1@AEBUpiecewise_construct_t@1@$$QEAV?$tuple@AEBV?$basic_string@_WU?$char_traits@_W@std@@V?$allocator@_W@2@@std@@@1@$$QEAV?$tuple@$$V@1@@Z$0 000000018002be8d f   Exports.obj
 0001:0002aeb0       ?catch$2@?0???$_Buynode@U?$pair@V?$basic_string@_WU?$char_traits@_W@std@@V?$allocator@_W@2@@std@@PEAU?$pair@V?$basic_string@_WU?$char_traits@_W@std@@V?$allocator@_W@2@@std@@V12@@@@std@@@?$_Tree_comp_alloc@V?$_Tmap_traits@V?$basic_string@_WU?$char_traits@_W@std@@V?$allocator@_W@2@@std@@PEAU?$pair@V?$basic_string@_WU?$char_traits@_W@std@@V?$allocator@_W@2@@std@@V12@@@U?$less@V?$basic_string@_WU?$char_traits@_W@std@@V?$allocator@_W@2@@std@@@2@V?$allocator@U?$pair@$$CBV?$basic_string@_WU?$char_traits@_W@std@@V?$allocator@_W@2@@std@@PEAU?$pair@V?$basic_string@_WU?$char_traits@_W@std@@V?$allocator@_W@2@@std@@V12@@@@std@@@2@$0A@@std@@@std@@QEAAPEAU?$_Tree_node@U?$pair@$$CBV?$basic_string@_WU?$char_traits@_W@std@@V?$allocator@_W@2@@std@@PEAU?$pair@V?$basic_string@_WU?$char_traits@_W@std@@V?$allocator@_W@2@@std@@V12@@@@std@@PEAX@1@$$QEAU?$pair@V?$basic_string@_WU?$char_traits@_W@std@@V?$allocator@_W@2@@std@@PEAU?$pair@V?$basic_string@_WU?$char_traits@_W@std@@V?$allocator@_W@2@@std@@V12@@@@1@@Z@4HA 000000018002beb0 f   Exports.obj
 0001:0002aeb0       ?catch$2@?0???$_Buynode@U?$pair@V?$basic_string@_WU?$char_traits@_W@std@@V?$allocator@_W@2@@std@@PEAU?$pair@V?$basic_string@_WU?$char_traits@_W@std@@V?$allocator@_W@2@@std@@PEAVIniSectionData@@@@@std@@@?$_Tree_comp_alloc@V?$_Tmap_traits@V?$basic_string@_WU?$char_traits@_W@std@@V?$allocator@_W@2@@std@@PEAU?$pair@V?$basic_string@_WU?$char_traits@_W@std@@V?$allocator@_W@2@@std@@PEAVIniSectionData@@@@U?$less@V?$basic_string@_WU?$char_traits@_W@std@@V?$allocator@_W@2@@std@@@2@V?$allocator@U?$pair@$$CBV?$basic_string@_WU?$char_traits@_W@std@@V?$allocator@_W@2@@std@@PEAU?$pair@V?$basic_string@_WU?$char_traits@_W@std@@V?$allocator@_W@2@@std@@PEAVIniSectionData@@@@@std@@@2@$0A@@std@@@std@@QEAAPEAU?$_Tree_node@U?$pair@$$CBV?$basic_string@_WU?$char_traits@_W@std@@V?$allocator@_W@2@@std@@PEAU?$pair@V?$basic_string@_WU?$char_traits@_W@std@@V?$allocator@_W@2@@std@@PEAVIniSectionData@@@@@std@@PEAX@1@$$QEAU?$pair@V?$basic_string@_WU?$char_traits@_W@std@@V?$allocator@_W@2@@std@@PEAU?$pair@V?$basic_string@_WU?$char_traits@_W@std@@V?$allocator@_W@2@@std@@PEAVIniSectionData@@@@@1@@Z@4HA 000000018002beb0 f   IniFile.obj
 0001:0002aebd       __catch$??$_Buynode@U?$pair@V?$basic_string@_WU?$char_traits@_W@std@@V?$allocator@_W@2@@std@@PEAU?$pair@V?$basic_string@_WU?$char_traits@_W@std@@V?$allocator@_W@2@@std@@PEAVIniSectionData@@@@@std@@@?$_Tree_comp_alloc@V?$_Tmap_traits@V?$basic_string@_WU?$char_traits@_W@std@@V?$allocator@_W@2@@std@@PEAU?$pair@V?$basic_string@_WU?$char_traits@_W@std@@V?$allocator@_W@2@@std@@PEAVIniSectionData@@@@U?$less@V?$basic_string@_WU?$char_traits@_W@std@@V?$allocator@_W@2@@std@@@2@V?$allocator@U?$pair@$$CBV?$basic_string@_WU?$char_traits@_W@std@@V?$allocator@_W@2@@std@@PEAU?$pair@V?$basic_string@_WU?$char_traits@_W@std@@V?$allocator@_W@2@@std@@PEAVIniSectionData@@@@@std@@@2@$0A@@std@@@std@@QEAAPEAU?$_Tree_node@U?$pair@$$CBV?$basic_string@_WU?$char_traits@_W@std@@V?$allocator@_W@2@@std@@PEAU?$pair@V?$basic_string@_WU?$char_traits@_W@std@@V?$allocator@_W@2@@std@@PEAVIniSectionData@@@@@std@@PEAX@1@$$QEAU?$pair@V?$basic_string@_WU?$char_traits@_W@std@@V?$allocator@_W@2@@std@@PEAU?$pair@V?$basic_string@_WU?$char_traits@_W@std@@V?$allocator@_W@2@@std@@PEAVIniSectionData@@@@@1@@Z$0 000000018002bebd f   IniFile.obj
 0001:0002aebd       __catch$??$_Buynode@U?$pair@V?$basic_string@_WU?$char_traits@_W@std@@V?$allocator@_W@2@@std@@PEAU?$pair@V?$basic_string@_WU?$char_traits@_W@std@@V?$allocator@_W@2@@std@@V12@@@@std@@@?$_Tree_comp_alloc@V?$_Tmap_traits@V?$basic_string@_WU?$char_traits@_W@std@@V?$allocator@_W@2@@std@@PEAU?$pair@V?$basic_string@_WU?$char_traits@_W@std@@V?$allocator@_W@2@@std@@V12@@@U?$less@V?$basic_string@_WU?$char_traits@_W@std@@V?$allocator@_W@2@@std@@@2@V?$allocator@U?$pair@$$CBV?$basic_string@_WU?$char_traits@_W@std@@V?$allocator@_W@2@@std@@PEAU?$pair@V?$basic_string@_WU?$char_traits@_W@std@@V?$allocator@_W@2@@std@@V12@@@@std@@@2@$0A@@std@@@std@@QEAAPEAU?$_Tree_node@U?$pair@$$CBV?$basic_string@_WU?$char_traits@_W@std@@V?$allocator@_W@2@@std@@PEAU?$pair@V?$basic_string@_WU?$char_traits@_W@std@@V?$allocator@_W@2@@std@@V12@@@@std@@PEAX@1@$$QEAU?$pair@V?$basic_string@_WU?$char_traits@_W@std@@V?$allocator@_W@2@@std@@PEAU?$pair@V?$basic_string@_WU?$char_traits@_W@std@@V?$allocator@_W@2@@std@@V12@@@@1@@Z$0 000000018002bebd f   Exports.obj
 0001:0002aee0       ?catch$0@?0???$_Emplace_reallocate@AEBQEAU?$pair@V?$basic_string@_WU?$char_traits@_W@std@@V?$allocator@_W@2@@std@@V12@@@@?$vector@PEAU?$pair@V?$basic_string@_WU?$char_traits@_W@std@@V?$allocator@_W@2@@std@@V12@@@V?$allocator@PEAU?$pair@V?$basic_string@_WU?$char_traits@_W@std@@V?$allocator@_W@2@@std@@V12@@@@std@@@std@@QEAAPEAPEAU?$pair@V?$basic_string@_WU?$char_traits@_W@std@@V?$allocator@_W@2@@std@@V12@@@QEAPEAU2@AEBQEAU2@@Z@4HA 000000018002bee0 f   Exports.obj
 0001:0002aee0       ?catch$0@?0???$_Emplace_reallocate@AEBQEAVLibrary@@@?$vector@PEAVLibrary@@V?$allocator@PEAVLibrary@@@std@@@std@@QEAAPEAPEAVLibrary@@QEAPEAV2@AEBQEAV2@@Z@4HA 000000018002bee0 f   Platform.obj
 0001:0002aee0       ?catch$0@?0???$_Emplace_reallocate@AEBQEAU?$pair@V?$basic_string@_WU?$char_traits@_W@std@@V?$allocator@_W@2@@std@@PEAVIniSectionData@@@@@?$vector@PEAU?$pair@V?$basic_string@_WU?$char_traits@_W@std@@V?$allocator@_W@2@@std@@PEAVIniSectionData@@@@V?$allocator@PEAU?$pair@V?$basic_string@_WU?$char_traits@_W@std@@V?$allocator@_W@2@@std@@PEAVIniSectionData@@@@@std@@@std@@QEAAPEAPEAU?$pair@V?$basic_string@_WU?$char_traits@_W@std@@V?$allocator@_W@2@@std@@PEAVIniSectionData@@@@QEAPEAU2@AEBQEAU2@@Z@4HA 000000018002bee0 f   IniFile.obj
 0001:0002aeed       __catch$??$_Emplace_reallocate@AEBQEAU?$pair@V?$basic_string@_WU?$char_traits@_W@std@@V?$allocator@_W@2@@std@@PEAVIniSectionData@@@@@?$vector@PEAU?$pair@V?$basic_string@_WU?$char_traits@_W@std@@V?$allocator@_W@2@@std@@PEAVIniSectionData@@@@V?$allocator@PEAU?$pair@V?$basic_string@_WU?$char_traits@_W@std@@V?$allocator@_W@2@@std@@PEAVIniSectionData@@@@@std@@@std@@QEAAPEAPEAU?$pair@V?$basic_string@_WU?$char_traits@_W@std@@V?$allocator@_W@2@@std@@PEAVIniSectionData@@@@QEAPEAU2@AEBQEAU2@@Z$0 000000018002beed f   IniFile.obj
 0001:0002aeed       __catch$??$_Emplace_reallocate@AEBQEAU?$pair@V?$basic_string@_WU?$char_traits@_W@std@@V?$allocator@_W@2@@std@@V12@@@@?$vector@PEAU?$pair@V?$basic_string@_WU?$char_traits@_W@std@@V?$allocator@_W@2@@std@@V12@@@V?$allocator@PEAU?$pair@V?$basic_string@_WU?$char_traits@_W@std@@V?$allocator@_W@2@@std@@V12@@@@std@@@std@@QEAAPEAPEAU?$pair@V?$basic_string@_WU?$char_traits@_W@std@@V?$allocator@_W@2@@std@@V12@@@QEAPEAU2@AEBQEAU2@@Z$0 000000018002beed f   Exports.obj
 0001:0002aeed       __catch$??$_Emplace_reallocate@AEBQEAVLibrary@@@?$vector@PEAVLibrary@@V?$allocator@PEAVLibrary@@@std@@@std@@QEAAPEAPEAVLibrary@@QEAPEAV2@AEBQEAV2@@Z$0 000000018002beed f   Platform.obj
 0001:0002af10       ?catch$19@?0???$_Emplace_reallocate@AEBV?$basic_string@_WU?$char_traits@_W@std@@V?$allocator@_W@2@@std@@@?$vector@V?$basic_string@_WU?$char_traits@_W@std@@V?$allocator@_W@2@@std@@V?$allocator@V?$basic_string@_WU?$char_traits@_W@std@@V?$allocator@_W@2@@std@@@2@@std@@QEAAPEAV?$basic_string@_WU?$char_traits@_W@std@@V?$allocator@_W@2@@1@QEAV21@AEBV21@@Z@4HA 000000018002bf10 f   Exports.obj
 0001:0002af1e       __catch$??$_Emplace_reallocate@AEBV?$basic_string@_WU?$char_traits@_W@std@@V?$allocator@_W@2@@std@@@?$vector@V?$basic_string@_WU?$char_traits@_W@std@@V?$allocator@_W@2@@std@@V?$allocator@V?$basic_string@_WU?$char_traits@_W@std@@V?$allocator@_W@2@@std@@@2@@std@@QEAAPEAV?$basic_string@_WU?$char_traits@_W@std@@V?$allocator@_W@2@@1@QEAV21@AEBV21@@Z$0 000000018002bf1e f   Exports.obj
 0001:0002af60       ?catch$0@?0???$_Insert_hint@AEAU?$pair@$$CBV?$basic_string@_WU?$char_traits@_W@std@@V?$allocator@_W@2@@std@@PEAU?$pair@V?$basic_string@_WU?$char_traits@_W@std@@V?$allocator@_W@2@@std@@PEAVIniSectionData@@@@@std@@PEAU?$_Tree_node@U?$pair@$$CBV?$basic_string@_WU?$char_traits@_W@std@@V?$allocator@_W@2@@std@@PEAU?$pair@V?$basic_string@_WU?$char_traits@_W@std@@V?$allocator@_W@2@@std@@PEAVIniSectionData@@@@@std@@PEAX@2@@?$_Tree@V?$_Tmap_traits@V?$basic_string@_WU?$char_traits@_W@std@@V?$allocator@_W@2@@std@@PEAU?$pair@V?$basic_string@_WU?$char_traits@_W@std@@V?$allocator@_W@2@@std@@PEAVIniSectionData@@@@U?$less@V?$basic_string@_WU?$char_traits@_W@std@@V?$allocator@_W@2@@std@@@2@V?$allocator@U?$pair@$$CBV?$basic_string@_WU?$char_traits@_W@std@@V?$allocator@_W@2@@std@@PEAU?$pair@V?$basic_string@_WU?$char_traits@_W@std@@V?$allocator@_W@2@@std@@PEAVIniSectionData@@@@@std@@@2@$0A@@std@@@std@@IEAA?AV?$_Tree_iterator@V?$_Tree_val@U?$_Tree_simple_types@U?$pair@$$CBV?$basic_string@_WU?$char_traits@_W@std@@V?$allocator@_W@2@@std@@PEAU?$pair@V?$basic_string@_WU?$char_traits@_W@std@@V?$allocator@_W@2@@std@@PEAVIniSectionData@@@@@std@@@std@@@std@@@1@V?$_Tree_const_iterator@V?$_Tree_val@U?$_Tree_simple_types@U?$pair@$$CBV?$basic_string@_WU?$char_traits@_W@std@@V?$allocator@_W@2@@std@@PEAU?$pair@V?$basic_string@_WU?$char_traits@_W@std@@V?$allocator@_W@2@@std@@PEAVIniSectionData@@@@@std@@@std@@@std@@@1@AEAU?$pair@$$CBV?$basic_string@_WU?$char_traits@_W@std@@V?$allocator@_W@2@@std@@PEAU?$pair@V?$basic_string@_WU?$char_traits@_W@std@@V?$allocator@_W@2@@std@@PEAVIniSectionData@@@@@1@PEAU?$_Tree_node@U?$pair@$$CBV?$basic_string@_WU?$char_traits@_W@std@@V?$allocator@_W@2@@std@@PEAU?$pair@V?$basic_string@_WU?$char_traits@_W@std@@V?$allocator@_W@2@@std@@PEAVIniSectionData@@@@@std@@PEAX@1@@Z@4HA 000000018002bf60 f   IniFile.obj
 0001:0002af60       ?catch$0@?0???$_Insert_hint@AEAU?$pair@$$CBV?$basic_string@_WU?$char_traits@_W@std@@V?$allocator@_W@2@@std@@PEAU?$pair@V?$basic_string@_WU?$char_traits@_W@std@@V?$allocator@_W@2@@std@@V12@@@@std@@PEAU?$_Tree_node@U?$pair@$$CBV?$basic_string@_WU?$char_traits@_W@std@@V?$allocator@_W@2@@std@@PEAU?$pair@V?$basic_string@_WU?$char_traits@_W@std@@V?$allocator@_W@2@@std@@V12@@@@std@@PEAX@2@@?$_Tree@V?$_Tmap_traits@V?$basic_string@_WU?$char_traits@_W@std@@V?$allocator@_W@2@@std@@PEAU?$pair@V?$basic_string@_WU?$char_traits@_W@std@@V?$allocator@_W@2@@std@@V12@@@U?$less@V?$basic_string@_WU?$char_traits@_W@std@@V?$allocator@_W@2@@std@@@2@V?$allocator@U?$pair@$$CBV?$basic_string@_WU?$char_traits@_W@std@@V?$allocator@_W@2@@std@@PEAU?$pair@V?$basic_string@_WU?$char_traits@_W@std@@V?$allocator@_W@2@@std@@V12@@@@std@@@2@$0A@@std@@@std@@IEAA?AV?$_Tree_iterator@V?$_Tree_val@U?$_Tree_simple_types@U?$pair@$$CBV?$basic_string@_WU?$char_traits@_W@std@@V?$allocator@_W@2@@std@@PEAU?$pair@V?$basic_string@_WU?$char_traits@_W@std@@V?$allocator@_W@2@@std@@V12@@@@std@@@std@@@std@@@1@V?$_Tree_const_iterator@V?$_Tree_val@U?$_Tree_simple_types@U?$pair@$$CBV?$basic_string@_WU?$char_traits@_W@std@@V?$allocator@_W@2@@std@@PEAU?$pair@V?$basic_string@_WU?$char_traits@_W@std@@V?$allocator@_W@2@@std@@V12@@@@std@@@std@@@std@@@1@AEAU?$pair@$$CBV?$basic_string@_WU?$char_traits@_W@std@@V?$allocator@_W@2@@std@@PEAU?$pair@V?$basic_string@_WU?$char_traits@_W@std@@V?$allocator@_W@2@@std@@V12@@@@1@PEAU?$_Tree_node@U?$pair@$$CBV?$basic_string@_WU?$char_traits@_W@std@@V?$allocator@_W@2@@std@@PEAU?$pair@V?$basic_string@_WU?$char_traits@_W@std@@V?$allocator@_W@2@@std@@V12@@@@std@@PEAX@1@@Z@4HA 000000018002bf60 f   Exports.obj
 0001:0002af6d       __catch$??$_Insert_hint@AEAU?$pair@$$CBV?$basic_string@_WU?$char_traits@_W@std@@V?$allocator@_W@2@@std@@PEAU?$pair@V?$basic_string@_WU?$char_traits@_W@std@@V?$allocator@_W@2@@std@@V12@@@@std@@PEAU?$_Tree_node@U?$pair@$$CBV?$basic_string@_WU?$char_traits@_W@std@@V?$allocator@_W@2@@std@@PEAU?$pair@V?$basic_string@_WU?$char_traits@_W@std@@V?$allocator@_W@2@@std@@V12@@@@std@@PEAX@2@@?$_Tree@V?$_Tmap_traits@V?$basic_string@_WU?$char_traits@_W@std@@V?$allocator@_W@2@@std@@PEAU?$pair@V?$basic_string@_WU?$char_traits@_W@std@@V?$allocator@_W@2@@std@@V12@@@U?$less@V?$basic_string@_WU?$char_traits@_W@std@@V?$allocator@_W@2@@std@@@2@V?$allocator@U?$pair@$$CBV?$basic_string@_WU?$char_traits@_W@std@@V?$allocator@_W@2@@std@@PEAU?$pair@V?$basic_string@_WU?$char_traits@_W@std@@V?$allocator@_W@2@@std@@V12@@@@std@@@2@$0A@@std@@@std@@IEAA?AV?$_Tree_iterator@V?$_Tree_val@U?$_Tree_simple_types@U?$pair@$$CBV?$basic_string@_WU?$char_traits@_W@std@@V?$allocator@_W@2@@std@@PEAU?$pair@V?$basic_string@_WU?$char_traits@_W@std@@V?$allocator@_W@2@@std@@V12@@@@std@@@std@@@std@@@1@V?$_Tree_const_iterator@V?$_Tree_val@U?$_Tree_simple_types@U?$pair@$$CBV?$basic_string@_WU?$char_traits@_W@std@@V?$allocator@_W@2@@std@@PEAU?$pair@V?$basic_string@_WU?$char_traits@_W@std@@V?$allocator@_W@2@@std@@V12@@@@std@@@std@@@std@@@1@AEAU?$pair@$$CBV?$basic_string@_WU?$char_traits@_W@std@@V?$allocator@_W@2@@std@@PEAU?$pair@V?$basic_string@_WU?$char_traits@_W@std@@V?$allocator@_W@2@@std@@V12@@@@1@PEAU?$_Tree_node@U?$pair@$$CBV?$basic_string@_WU?$char_traits@_W@std@@V?$allocator@_W@2@@std@@PEAU?$pair@V?$basic_string@_WU?$char_traits@_W@std@@V?$allocator@_W@2@@std@@V12@@@@std@@PEAX@1@@Z$0 000000018002bf6d f   Exports.obj
 0001:0002af6d       __catch$??$_Insert_hint@AEAU?$pair@$$CBV?$basic_string@_WU?$char_traits@_W@std@@V?$allocator@_W@2@@std@@PEAU?$pair@V?$basic_string@_WU?$char_traits@_W@std@@V?$allocator@_W@2@@std@@PEAVIniSectionData@@@@@std@@PEAU?$_Tree_node@U?$pair@$$CBV?$basic_string@_WU?$char_traits@_W@std@@V?$allocator@_W@2@@std@@PEAU?$pair@V?$basic_string@_WU?$char_traits@_W@std@@V?$allocator@_W@2@@std@@PEAVIniSectionData@@@@@std@@PEAX@2@@?$_Tree@V?$_Tmap_traits@V?$basic_string@_WU?$char_traits@_W@std@@V?$allocator@_W@2@@std@@PEAU?$pair@V?$basic_string@_WU?$char_traits@_W@std@@V?$allocator@_W@2@@std@@PEAVIniSectionData@@@@U?$less@V?$basic_string@_WU?$char_traits@_W@std@@V?$allocator@_W@2@@std@@@2@V?$allocator@U?$pair@$$CBV?$basic_string@_WU?$char_traits@_W@std@@V?$allocator@_W@2@@std@@PEAU?$pair@V?$basic_string@_WU?$char_traits@_W@std@@V?$allocator@_W@2@@std@@PEAVIniSectionData@@@@@std@@@2@$0A@@std@@@std@@IEAA?AV?$_Tree_iterator@V?$_Tree_val@U?$_Tree_simple_types@U?$pair@$$CBV?$basic_string@_WU?$char_traits@_W@std@@V?$allocator@_W@2@@std@@PEAU?$pair@V?$basic_string@_WU?$char_traits@_W@std@@V?$allocator@_W@2@@std@@PEAVIniSectionData@@@@@std@@@std@@@std@@@1@V?$_Tree_const_iterator@V?$_Tree_val@U?$_Tree_simple_types@U?$pair@$$CBV?$basic_string@_WU?$char_traits@_W@std@@V?$allocator@_W@2@@std@@PEAU?$pair@V?$basic_string@_WU?$char_traits@_W@std@@V?$allocator@_W@2@@std@@PEAVIniSectionData@@@@@std@@@std@@@std@@@1@AEAU?$pair@$$CBV?$basic_string@_WU?$char_traits@_W@std@@V?$allocator@_W@2@@std@@PEAU?$pair@V?$basic_string@_WU?$char_traits@_W@std@@V?$allocator@_W@2@@std@@PEAVIniSectionData@@@@@1@PEAU?$_Tree_node@U?$pair@$$CBV?$basic_string@_WU?$char_traits@_W@std@@V?$allocator@_W@2@@std@@PEAU?$pair@V?$basic_string@_WU?$char_traits@_W@std@@V?$allocator@_W@2@@std@@PEAVIniSectionData@@@@@std@@PEAX@1@@Z$0 000000018002bf6d f   IniFile.obj
 0001:0002af90       ?catch$5@?0???$_Insert_nohint@AEAU?$pair@$$CBV?$basic_string@_WU?$char_traits@_W@std@@V?$allocator@_W@2@@std@@PEAU?$pair@V?$basic_string@_WU?$char_traits@_W@std@@V?$allocator@_W@2@@std@@V12@@@@std@@PEAU?$_Tree_node@U?$pair@$$CBV?$basic_string@_WU?$char_traits@_W@std@@V?$allocator@_W@2@@std@@PEAU?$pair@V?$basic_string@_WU?$char_traits@_W@std@@V?$allocator@_W@2@@std@@V12@@@@std@@PEAX@2@@?$_Tree@V?$_Tmap_traits@V?$basic_string@_WU?$char_traits@_W@std@@V?$allocator@_W@2@@std@@PEAU?$pair@V?$basic_string@_WU?$char_traits@_W@std@@V?$allocator@_W@2@@std@@V12@@@U?$less@V?$basic_string@_WU?$char_traits@_W@std@@V?$allocator@_W@2@@std@@@2@V?$allocator@U?$pair@$$CBV?$basic_string@_WU?$char_traits@_W@std@@V?$allocator@_W@2@@std@@PEAU?$pair@V?$basic_string@_WU?$char_traits@_W@std@@V?$allocator@_W@2@@std@@V12@@@@std@@@2@$0A@@std@@@std@@IEAA?AU?$pair@V?$_Tree_iterator@V?$_Tree_val@U?$_Tree_simple_types@U?$pair@$$CBV?$basic_string@_WU?$char_traits@_W@std@@V?$allocator@_W@2@@std@@PEAU?$pair@V?$basic_string@_WU?$char_traits@_W@std@@V?$allocator@_W@2@@std@@V12@@@@std@@@std@@@std@@@std@@_N@1@_NAEAU?$pair@$$CBV?$basic_string@_WU?$char_traits@_W@std@@V?$allocator@_W@2@@std@@PEAU?$pair@V?$basic_string@_WU?$char_traits@_W@std@@V?$allocator@_W@2@@std@@V12@@@@1@PEAU?$_Tree_node@U?$pair@$$CBV?$basic_string@_WU?$char_traits@_W@std@@V?$allocator@_W@2@@std@@PEAU?$pair@V?$basic_string@_WU?$char_traits@_W@std@@V?$allocator@_W@2@@std@@V12@@@@std@@PEAX@1@@Z@4HA 000000018002bf90 f   Exports.obj
 0001:0002af90       ?catch$5@?0???$_Insert_nohint@AEAU?$pair@$$CBV?$basic_string@_WU?$char_traits@_W@std@@V?$allocator@_W@2@@std@@PEAU?$pair@V?$basic_string@_WU?$char_traits@_W@std@@V?$allocator@_W@2@@std@@PEAVIniSectionData@@@@@std@@PEAU?$_Tree_node@U?$pair@$$CBV?$basic_string@_WU?$char_traits@_W@std@@V?$allocator@_W@2@@std@@PEAU?$pair@V?$basic_string@_WU?$char_traits@_W@std@@V?$allocator@_W@2@@std@@PEAVIniSectionData@@@@@std@@PEAX@2@@?$_Tree@V?$_Tmap_traits@V?$basic_string@_WU?$char_traits@_W@std@@V?$allocator@_W@2@@std@@PEAU?$pair@V?$basic_string@_WU?$char_traits@_W@std@@V?$allocator@_W@2@@std@@PEAVIniSectionData@@@@U?$less@V?$basic_string@_WU?$char_traits@_W@std@@V?$allocator@_W@2@@std@@@2@V?$allocator@U?$pair@$$CBV?$basic_string@_WU?$char_traits@_W@std@@V?$allocator@_W@2@@std@@PEAU?$pair@V?$basic_string@_WU?$char_traits@_W@std@@V?$allocator@_W@2@@std@@PEAVIniSectionData@@@@@std@@@2@$0A@@std@@@std@@IEAA?AU?$pair@V?$_Tree_iterator@V?$_Tree_val@U?$_Tree_simple_types@U?$pair@$$CBV?$basic_string@_WU?$char_traits@_W@std@@V?$allocator@_W@2@@std@@PEAU?$pair@V?$basic_string@_WU?$char_traits@_W@std@@V?$allocator@_W@2@@std@@PEAVIniSectionData@@@@@std@@@std@@@std@@@std@@_N@1@_NAEAU?$pair@$$CBV?$basic_string@_WU?$char_traits@_W@std@@V?$allocator@_W@2@@std@@PEAU?$pair@V?$basic_string@_WU?$char_traits@_W@std@@V?$allocator@_W@2@@std@@PEAVIniSectionData@@@@@1@PEAU?$_Tree_node@U?$pair@$$CBV?$basic_string@_WU?$char_traits@_W@std@@V?$allocator@_W@2@@std@@PEAU?$pair@V?$basic_string@_WU?$char_traits@_W@std@@V?$allocator@_W@2@@std@@PEAVIniSectionData@@@@@std@@PEAX@1@@Z@4HA 000000018002bf90 f   IniFile.obj
 0001:0002af9d       __catch$??$_Insert_nohint@AEAU?$pair@$$CBV?$basic_string@_WU?$char_traits@_W@std@@V?$allocator@_W@2@@std@@PEAU?$pair@V?$basic_string@_WU?$char_traits@_W@std@@V?$allocator@_W@2@@std@@PEAVIniSectionData@@@@@std@@PEAU?$_Tree_node@U?$pair@$$CBV?$basic_string@_WU?$char_traits@_W@std@@V?$allocator@_W@2@@std@@PEAU?$pair@V?$basic_string@_WU?$char_traits@_W@std@@V?$allocator@_W@2@@std@@PEAVIniSectionData@@@@@std@@PEAX@2@@?$_Tree@V?$_Tmap_traits@V?$basic_string@_WU?$char_traits@_W@std@@V?$allocator@_W@2@@std@@PEAU?$pair@V?$basic_string@_WU?$char_traits@_W@std@@V?$allocator@_W@2@@std@@PEAVIniSectionData@@@@U?$less@V?$basic_string@_WU?$char_traits@_W@std@@V?$allocator@_W@2@@std@@@2@V?$allocator@U?$pair@$$CBV?$basic_string@_WU?$char_traits@_W@std@@V?$allocator@_W@2@@std@@PEAU?$pair@V?$basic_string@_WU?$char_traits@_W@std@@V?$allocator@_W@2@@std@@PEAVIniSectionData@@@@@std@@@2@$0A@@std@@@std@@IEAA?AU?$pair@V?$_Tree_iterator@V?$_Tree_val@U?$_Tree_simple_types@U?$pair@$$CBV?$basic_string@_WU?$char_traits@_W@std@@V?$allocator@_W@2@@std@@PEAU?$pair@V?$basic_string@_WU?$char_traits@_W@std@@V?$allocator@_W@2@@std@@PEAVIniSectionData@@@@@std@@@std@@@std@@@std@@_N@1@_NAEAU?$pair@$$CBV?$basic_string@_WU?$char_traits@_W@std@@V?$allocator@_W@2@@std@@PEAU?$pair@V?$basic_string@_WU?$char_traits@_W@std@@V?$allocator@_W@2@@std@@PEAVIniSectionData@@@@@1@PEAU?$_Tree_node@U?$pair@$$CBV?$basic_string@_WU?$char_traits@_W@std@@V?$allocator@_W@2@@std@@PEAU?$pair@V?$basic_string@_WU?$char_traits@_W@std@@V?$allocator@_W@2@@std@@PEAVIniSectionData@@@@@std@@PEAX@1@@Z$0 000000018002bf9d f   IniFile.obj
 0001:0002af9d       __catch$??$_Insert_nohint@AEAU?$pair@$$CBV?$basic_string@_WU?$char_traits@_W@std@@V?$allocator@_W@2@@std@@PEAU?$pair@V?$basic_string@_WU?$char_traits@_W@std@@V?$allocator@_W@2@@std@@V12@@@@std@@PEAU?$_Tree_node@U?$pair@$$CBV?$basic_string@_WU?$char_traits@_W@std@@V?$allocator@_W@2@@std@@PEAU?$pair@V?$basic_string@_WU?$char_traits@_W@std@@V?$allocator@_W@2@@std@@V12@@@@std@@PEAX@2@@?$_Tree@V?$_Tmap_traits@V?$basic_string@_WU?$char_traits@_W@std@@V?$allocator@_W@2@@std@@PEAU?$pair@V?$basic_string@_WU?$char_traits@_W@std@@V?$allocator@_W@2@@std@@V12@@@U?$less@V?$basic_string@_WU?$char_traits@_W@std@@V?$allocator@_W@2@@std@@@2@V?$allocator@U?$pair@$$CBV?$basic_string@_WU?$char_traits@_W@std@@V?$allocator@_W@2@@std@@PEAU?$pair@V?$basic_string@_WU?$char_traits@_W@std@@V?$allocator@_W@2@@std@@V12@@@@std@@@2@$0A@@std@@@std@@IEAA?AU?$pair@V?$_Tree_iterator@V?$_Tree_val@U?$_Tree_simple_types@U?$pair@$$CBV?$basic_string@_WU?$char_traits@_W@std@@V?$allocator@_W@2@@std@@PEAU?$pair@V?$basic_string@_WU?$char_traits@_W@std@@V?$allocator@_W@2@@std@@V12@@@@std@@@std@@@std@@@std@@_N@1@_NAEAU?$pair@$$CBV?$basic_string@_WU?$char_traits@_W@std@@V?$allocator@_W@2@@std@@PEAU?$pair@V?$basic_string@_WU?$char_traits@_W@std@@V?$allocator@_W@2@@std@@V12@@@@1@PEAU?$_Tree_node@U?$pair@$$CBV?$basic_string@_WU?$char_traits@_W@std@@V?$allocator@_W@2@@std@@PEAU?$pair@V?$basic_string@_WU?$char_traits@_W@std@@V?$allocator@_W@2@@std@@V12@@@@std@@PEAX@1@@Z$0 000000018002bf9d f   Exports.obj
 0001:0002afc0       ?dtor$0@?0???0?$OrderedMap@V?$basic_string@_WU?$char_traits@_W@std@@V?$allocator@_W@2@@std@@V12@@@QEAA@AEBV0@@Z@4HA 000000018002bfc0 f   Exports.obj
 0001:0002afd0       ?dtor$1@?0???0?$OrderedMap@V?$basic_string@_WU?$char_traits@_W@std@@V?$allocator@_W@2@@std@@V12@@@QEAA@AEBV0@@Z@4HA 000000018002bfd0 f   Exports.obj
 0001:0002afe0       ?dtor$25@?0??MergeJVMDefaultsWithOverrides@Package@@AEAAXXZ@4HA 000000018002bfe0 f   Package.obj
 0001:0002afe0       ?dtor$23@?0??CreateOrderedMapFromKeyList@@YA?AV?$OrderedMap@V?$basic_string@_WU?$char_traits@_W@std@@V?$allocator@_W@2@@std@@V12@@@AEAV1@AEAV?$vector@V?$basic_string@_WU?$char_traits@_W@std@@V?$allocator@_W@2@@std@@V?$allocator@V?$basic_string@_WU?$char_traits@_W@std@@V?$allocator@_W@2@@std@@@2@@std@@@Z@4HA 000000018002bfe0 f   Package.obj
 0001:0002afe0       ?dtor$8@?0??Append@?$OrderedMap@V?$basic_string@_WU?$char_traits@_W@std@@V?$allocator@_W@2@@std@@V12@@@QEAAXAEBV1@@Z@4HA 000000018002bfe0 f   Exports.obj
 0001:0002afe0       ?dtor$19@?0??CreateOrderedMapFromKeyList@@YA?AV?$OrderedMap@V?$basic_string@_WU?$char_traits@_W@std@@V?$allocator@_W@2@@std@@V12@@@AEAV1@AEAV?$vector@V?$basic_string@_WU?$char_traits@_W@std@@V?$allocator@_W@2@@std@@V?$allocator@V?$basic_string@_WU?$char_traits@_W@std@@V?$allocator@_W@2@@std@@@2@@std@@@Z@4HA 000000018002bfe0 f   Package.obj
 0001:0002afe0       ?dtor$5@?0??SetValue@PropertyFile@@QEAA_NV?$basic_string@_WU?$char_traits@_W@std@@V?$allocator@_W@2@@std@@V23@@Z@4HA 000000018002bfe0 f   PropertyFile.obj
 0001:0002afe0       ?dtor$5@?0??SetValue@IniSectionData@@QEAA_NV?$basic_string@_WU?$char_traits@_W@std@@V?$allocator@_W@2@@std@@V23@@Z@4HA 000000018002bfe0 f   IniFile.obj
 0001:0002afe0       ?dtor$7@?0??LoadFromFile@PropertyFile@@QEAA_NV?$basic_string@_WU?$char_traits@_W@std@@V?$allocator@_W@2@@std@@@Z@4HA 000000018002bfe0 f   PropertyFile.obj
 0001:0002afe0       ?dtor$21@?0??MergeJVMDefaultsWithOverrides@Package@@AEAAXXZ@4HA 000000018002bfe0 f   Package.obj
 0001:0002afe0       ?dtor$8@?0??Append@?$OrderedMap@V?$basic_string@_WU?$char_traits@_W@std@@V?$allocator@_W@2@@std@@V12@@@QEAAXV?$basic_string@_WU?$char_traits@_W@std@@V?$allocator@_W@2@@std@@0@Z@4HA 000000018002bfe0 f   Exports.obj
 0001:0002afe0       ?dtor$4@?0??CreateOrderedMapFromKeyList@@YA?AV?$OrderedMap@V?$basic_string@_WU?$char_traits@_W@std@@V?$allocator@_W@2@@std@@V12@@@AEAV1@AEAV?$vector@V?$basic_string@_WU?$char_traits@_W@std@@V?$allocator@_W@2@@std@@V?$allocator@V?$basic_string@_WU?$char_traits@_W@std@@V?$allocator@_W@2@@std@@@2@@std@@@Z@4HA 000000018002bfe0 f   Package.obj
 0001:0002afe0       ?dtor$0@?0??Append@?$OrderedMap@V?$basic_string@_WU?$char_traits@_W@std@@V?$allocator@_W@2@@std@@V12@@@QEAAXAEBV1@@Z@4HA 000000018002bfe0 f   Exports.obj
 0001:0002afe0       ?dtor$5@?0??MergeJVMDefaultsWithOverrides@Package@@AEAAXXZ@4HA 000000018002bfe0 f   Package.obj
 0001:0002afe0       ?dtor$5@?0??Append@?$OrderedMap@V?$basic_string@_WU?$char_traits@_W@std@@V?$allocator@_W@2@@std@@PEAVIniSectionData@@@@QEAAXV?$basic_string@_WU?$char_traits@_W@std@@V?$allocator@_W@2@@std@@PEAVIniSectionData@@@Z@4HA 000000018002bfe0 f   IniFile.obj
 0001:0002aff0       ?dtor$2@?0??Append@?$OrderedMap@V?$basic_string@_WU?$char_traits@_W@std@@V?$allocator@_W@2@@std@@V12@@@QEAAXAEBV1@@Z@4HA 000000018002bff0 f   Exports.obj
 0001:0002b000       ?dtor$1@?0???0Messages@@AEAA@XZ@4HA 000000018002c000 f   Messages.obj
 0001:0002b000       ?dtor$15@?0???0Messages@@AEAA@XZ@4HA 000000018002c000 f   Messages.obj
 0001:0002b000       ?dtor$3@?0???0Messages@@AEAA@XZ@4HA 000000018002c000 f   Messages.obj
 0001:0002b000       ?dtor$5@?0???0Messages@@AEAA@XZ@4HA 000000018002c000 f   Messages.obj
 0001:0002b000       ?dtor$13@?0???0Messages@@AEAA@XZ@4HA 000000018002c000 f   Messages.obj
 0001:0002b000       ?dtor$11@?0???0Messages@@AEAA@XZ@4HA 000000018002c000 f   Messages.obj
 0001:0002b000       ?dtor$7@?0???0Messages@@AEAA@XZ@4HA 000000018002c000 f   Messages.obj
 0001:0002b000       ?dtor$3@?0??Append@?$OrderedMap@V?$basic_string@_WU?$char_traits@_W@std@@V?$allocator@_W@2@@std@@V12@@@QEAAXAEBV1@@Z@4HA 000000018002c000 f   Exports.obj
 0001:0002b000       ?dtor$39@?0??GetJVMArgsFromConfig@Helpers@@SA?AV?$OrderedMap@V?$basic_string@_WU?$char_traits@_W@std@@V?$allocator@_W@2@@std@@V12@@@PEAVIPropertyContainer@@@Z@4HA 000000018002c000 f   Helpers.obj
 0001:0002b000       ?dtor$9@?0???0Messages@@AEAA@XZ@4HA 000000018002c000 f   Messages.obj
 0001:0002b010       ?dtor$4@?0??Append@?$OrderedMap@V?$basic_string@_WU?$char_traits@_W@std@@V?$allocator@_W@2@@std@@V12@@@QEAAXAEBV1@@Z@4HA 000000018002c010 f   Exports.obj
 0001:0002b010       ?dtor$40@?0??GetJVMArgsFromConfig@Helpers@@SA?AV?$OrderedMap@V?$basic_string@_WU?$char_traits@_W@std@@V?$allocator@_W@2@@std@@V12@@@PEAVIPropertyContainer@@@Z@4HA 000000018002c010 f   Helpers.obj
 0001:0002b030       ?dtor$5@?0??Append@?$OrderedMap@V?$basic_string@_WU?$char_traits@_W@std@@V?$allocator@_W@2@@std@@V12@@@QEAAXAEBV1@@Z@4HA 000000018002c030 f   Exports.obj
 0001:0002b030       ?dtor$0@?0??GetStaticMethod@JavaClass@@QEAA?AVJavaStaticMethod@@V?$basic_string@_WU?$char_traits@_W@std@@V?$allocator@_W@2@@std@@0@Z@4HA 000000018002c030 f   Java.obj
 0001:0002b030       ?dtor$0@?0???0JavaClass@@QEAA@PEAUJNIEnv_@@V?$basic_string@_WU?$char_traits@_W@std@@V?$allocator@_W@2@@std@@@Z@4HA 000000018002c030 f   Java.obj
 0001:0002b030       ?dtor$2@?0??Append@IniFile@@QEAAXV?$basic_string@_WU?$char_traits@_W@std@@V?$allocator@_W@2@@std@@0V23@@Z@4HA 000000018002c030 f   IniFile.obj
 0001:0002b030       ?dtor$1@?0??Append@?$OrderedMap@V?$basic_string@_WU?$char_traits@_W@std@@V?$allocator@_W@2@@std@@V12@@@QEAAXV?$basic_string@_WU?$char_traits@_W@std@@V?$allocator@_W@2@@std@@0@Z@4HA 000000018002c030 f   Exports.obj
 0001:0002b030       ?dtor$38@?0??GetJVMArgsFromConfig@Helpers@@SA?AV?$OrderedMap@V?$basic_string@_WU?$char_traits@_W@std@@V?$allocator@_W@2@@std@@V12@@@PEAVIPropertyContainer@@@Z@4HA 000000018002c030 f   Helpers.obj
 0001:0002b030       ?dtor$0@?0??GetLibraryImports@WindowsPlatform@@UEAA?AV?$vector@V?$basic_string@_WU?$char_traits@_W@std@@V?$allocator@_W@2@@std@@V?$allocator@V?$basic_string@_WU?$char_traits@_W@std@@V?$allocator@_W@2@@std@@@2@@std@@V?$basic_string@_WU?$char_traits@_W@std@@V?$allocator@_W@2@@3@@Z@4HA 000000018002c030 f   WindowsPlatform.obj
 0001:0002b030       ?dtor$0@?0??CreateDirectoryW@FilePath@@SA_NV?$basic_string@_WU?$char_traits@_W@std@@V?$allocator@_W@2@@std@@_N@Z@4HA 000000018002c030 f   FilePath.obj
 0001:0002b030       ?dtor$5@?0??AppendToIni@@YAXAEAVPropertyFile@@PEAVIniFile@@V?$basic_string@_WU?$char_traits@_W@std@@V?$allocator@_W@2@@std@@@Z@4HA 000000018002c030 f   Helpers.obj
 0001:0002b030       ?dtor$9@?0??Append@?$OrderedMap@V?$basic_string@_WU?$char_traits@_W@std@@V?$allocator@_W@2@@std@@V12@@@QEAAXAEBV1@@Z@4HA 000000018002c030 f   Exports.obj
 0001:0002b040       ?dtor$65@?0??Initialize@Package@@QEAAXXZ@4HA 000000018002c040 f   Package.obj
 0001:0002b040       ?dtor$36@?0??Initialize@Package@@QEAAXXZ@4HA 000000018002c040 f   Package.obj
 0001:0002b040       ?dtor$3@?0??GetJVMArgsFromConfig@Helpers@@SA?AV?$OrderedMap@V?$basic_string@_WU?$char_traits@_W@std@@V?$allocator@_W@2@@std@@V12@@@PEAVIPropertyContainer@@@Z@4HA 000000018002c040 f   Helpers.obj
 0001:0002b040       ?dtor$6@?0??GetLines@IniSectionData@@QEAA?AV?$list@V?$basic_string@_WU?$char_traits@_W@std@@V?$allocator@_W@2@@std@@V?$allocator@V?$basic_string@_WU?$char_traits@_W@std@@V?$allocator@_W@2@@std@@@2@@std@@XZ@4HA 000000018002c040 f   IniFile.obj
 0001:0002b040       ?dtor$10@?0??GetLines@IniSectionData@@QEAA?AV?$list@V?$basic_string@_WU?$char_traits@_W@std@@V?$allocator@_W@2@@std@@V?$allocator@V?$basic_string@_WU?$char_traits@_W@std@@V?$allocator@_W@2@@std@@@2@@std@@XZ@4HA 000000018002c040 f   IniFile.obj
 0001:0002b040       ?dtor$7@?0??Append@?$OrderedMap@V?$basic_string@_WU?$char_traits@_W@std@@V?$allocator@_W@2@@std@@V12@@@QEAAXAEBV1@@Z@4HA 000000018002c040 f   Exports.obj
 0001:0002b040       ?dtor$1@?0??ToJavaOptions@JavaOptions@@QEAAPEAUJavaVMOption@@XZ@4HA 000000018002c040 f   JavaVirtualMachine.obj
 0001:0002b040       start_launcher$dtor$5      000000018002c040 f   main.obj
 0001:0002b040       start_launcher$dtor$21     000000018002c040 f   main.obj
 0001:0002b040       ?dtor$8@?0??GetSystemJRE@WindowsPlatform@@UEAA?AV?$basic_string@_WU?$char_traits@_W@std@@V?$allocator@_W@2@@std@@XZ@4HA 000000018002c040 f   WindowsPlatform.obj
 0001:0002b050       ?dtor$46@?0??GetJVMArgsFromConfig@Helpers@@SA?AV?$OrderedMap@V?$basic_string@_WU?$char_traits@_W@std@@V?$allocator@_W@2@@std@@V12@@@PEAVIPropertyContainer@@@Z@4HA 000000018002c050 f   Helpers.obj
 0001:0002b050       ?dtor$2@?0??SetValue@IniFile@@QEAA_NV?$basic_string@_WU?$char_traits@_W@std@@V?$allocator@_W@2@@std@@0V23@@Z@4HA 000000018002c050 f   IniFile.obj
 0001:0002b050       ?dtor$80@?0??Load@WindowsJavaUserPreferences@@UEAA_NV?$basic_string@_WU?$char_traits@_W@std@@V?$allocator@_W@2@@std@@@Z@4HA 000000018002c050 f   WindowsPlatform.obj
 0001:0002b050       ?dtor$10@?0??Append@?$OrderedMap@V?$basic_string@_WU?$char_traits@_W@std@@V?$allocator@_W@2@@std@@V12@@@QEAAXAEBV1@@Z@4HA 000000018002c050 f   Exports.obj
 0001:0002b060       ?dtor$11@?0??Append@?$OrderedMap@V?$basic_string@_WU?$char_traits@_W@std@@V?$allocator@_W@2@@std@@V12@@@QEAAXAEBV1@@Z@4HA 000000018002c060 f   Exports.obj
 0001:0002b060       ?dtor$47@?0??GetJVMArgsFromConfig@Helpers@@SA?AV?$OrderedMap@V?$basic_string@_WU?$char_traits@_W@std@@V?$allocator@_W@2@@std@@V12@@@PEAVIPropertyContainer@@@Z@4HA 000000018002c060 f   Helpers.obj
 0001:0002b070       ?dtor$0@?0??Append@?$OrderedMap@V?$basic_string@_WU?$char_traits@_W@std@@V?$allocator@_W@2@@std@@V12@@@QEAAXV?$basic_string@_WU?$char_traits@_W@std@@V?$allocator@_W@2@@std@@0@Z@4HA 000000018002c070 f   Exports.obj
 0001:0002b070       ?dtor$44@?0??GetJVMArgsFromConfig@Helpers@@SA?AV?$OrderedMap@V?$basic_string@_WU?$char_traits@_W@std@@V?$allocator@_W@2@@std@@V12@@@PEAVIPropertyContainer@@@Z@4HA 000000018002c070 f   Helpers.obj
 0001:0002b070       ?dtor$5@?0??PromoteAppCDSState@Package@@AEAAXPEAVISectionalPropertyContainer@@@Z@4HA 000000018002c070 f   Package.obj
 0001:0002b070       ?dtor$6@?0??AppendToIni@@YAXAEAVPropertyFile@@PEAVIniFile@@V?$basic_string@_WU?$char_traits@_W@std@@V?$allocator@_W@2@@std@@@Z@4HA 000000018002c070 f   Helpers.obj
 0001:0002b070       ?dtor$0@?0???0JavaException@@QEAA@PEAUJNIEnv_@@V?$basic_string@_WU?$char_traits@_W@std@@V?$allocator@_W@2@@std@@@Z@4HA 000000018002c070 f   Java.obj
 0001:0002b070       ?dtor$1@?0??Append@IniFile@@QEAAXV?$basic_string@_WU?$char_traits@_W@std@@V?$allocator@_W@2@@std@@0V23@@Z@4HA 000000018002c070 f   IniFile.obj
 0001:0002b070       ?dtor$38@?0??RemoveTrailingEquals@@YA?AV?$OrderedMap@V?$basic_string@_WU?$char_traits@_W@std@@V?$allocator@_W@2@@std@@V12@@@V1@@Z@4HA 000000018002c070 f   JavaVirtualMachine.obj
 0001:0002b080       ?dtor$2@?0??Append@?$OrderedMap@V?$basic_string@_WU?$char_traits@_W@std@@V?$allocator@_W@2@@std@@V12@@@QEAAXV?$basic_string@_WU?$char_traits@_W@std@@V?$allocator@_W@2@@std@@0@Z@4HA 000000018002c080 f   Exports.obj
 0001:0002b0a0       ?dtor$1@?0??NameValueToString@Helpers@@SA?AV?$basic_string@_WU?$char_traits@_W@std@@V?$allocator@_W@2@@std@@V23@0@Z@4HA 000000018002c0a0 f   Helpers.obj
 0001:0002b0a0       ?dtor$0@?0??ReplaceString@Helpers@@SA?AV?$basic_string@_WU?$char_traits@_W@std@@V?$allocator@_W@2@@std@@V23@AEBV23@1@Z@4HA 000000018002c0a0 f   Helpers.obj
 0001:0002b0a0       ?dtor$0@?0??ConvertJavaEcodedStringToString@@YA?AV?$basic_string@_WU?$char_traits@_W@std@@V?$allocator@_W@2@@std@@V12@@Z@4HA 000000018002c0a0 f   WindowsPlatform.obj
 0001:0002b0a0       ?dtor$77@?0??Load@WindowsJavaUserPreferences@@UEAA_NV?$basic_string@_WU?$char_traits@_W@std@@V?$allocator@_W@2@@std@@@Z@4HA 000000018002c0a0 f   WindowsPlatform.obj
 0001:0002b0a0       ?dtor$41@?0??RemoveTrailingEquals@@YA?AV?$OrderedMap@V?$basic_string@_WU?$char_traits@_W@std@@V?$allocator@_W@2@@std@@V12@@@V1@@Z@4HA 000000018002c0a0 f   JavaVirtualMachine.obj
 0001:0002b0a0       ?dtor$1@?0??ChangeFileExt@FilePath@@SA?AV?$basic_string@_WU?$char_traits@_W@std@@V?$allocator@_W@2@@std@@V23@0@Z@4HA 000000018002c0a0 f   FilePath.obj
 0001:0002b0a0       ?dtor$41@?0??GetJVMArgsFromConfig@Helpers@@SA?AV?$OrderedMap@V?$basic_string@_WU?$char_traits@_W@std@@V?$allocator@_W@2@@std@@V12@@@PEAVIPropertyContainer@@@Z@4HA 000000018002c0a0 f   Helpers.obj
 0001:0002b0a0       ?dtor$45@?0??RemoveTrailingEquals@@YA?AV?$OrderedMap@V?$basic_string@_WU?$char_traits@_W@std@@V?$allocator@_W@2@@std@@V12@@@V1@@Z@4HA 000000018002c0a0 f   JavaVirtualMachine.obj
 0001:0002b0a0       ?dtor$3@?0??Append@?$OrderedMap@V?$basic_string@_WU?$char_traits@_W@std@@V?$allocator@_W@2@@std@@V12@@@QEAAXV?$basic_string@_WU?$char_traits@_W@std@@V?$allocator@_W@2@@std@@0@Z@4HA 000000018002c0a0 f   Exports.obj
 0001:0002b0a0       ?dtor$7@?0??Append@?$OrderedMap@V?$basic_string@_WU?$char_traits@_W@std@@V?$allocator@_W@2@@std@@V12@@@QEAAXV?$basic_string@_WU?$char_traits@_W@std@@V?$allocator@_W@2@@std@@0@Z@4HA 000000018002c0a0 f   Exports.obj
 0001:0002b0a0       ?dtor$45@?0??GetJVMArgsFromConfig@Helpers@@SA?AV?$OrderedMap@V?$basic_string@_WU?$char_traits@_W@std@@V?$allocator@_W@2@@std@@V12@@@PEAVIPropertyContainer@@@Z@4HA 000000018002c0a0 f   Helpers.obj
 0001:0002b0a0       ?dtor$0@?0??SplitOptionIntoNameValue@Helpers@@SA_NV?$basic_string@_WU?$char_traits@_W@std@@V?$allocator@_W@2@@std@@AEAV23@1@Z@4HA 000000018002c0a0 f   Helpers.obj
 0001:0002b0a0       ?dtor$10@?0??GetJVMArgsFromConfig@Helpers@@SA?AV?$OrderedMap@V?$basic_string@_WU?$char_traits@_W@std@@V?$allocator@_W@2@@std@@V12@@@PEAVIPropertyContainer@@@Z@4HA 000000018002c0a0 f   Helpers.obj
 0001:0002b0a0       ?dtor$0@?0??IncludeTrailingSeparater@FilePath@@SA?AV?$basic_string@_WU?$char_traits@_W@std@@V?$allocator@_W@2@@std@@V23@@Z@4HA 000000018002c0a0 f   FilePath.obj
 0001:0002b0a0       ?dtor$0@?0??ExtractFilePath@FilePath@@SA?AV?$basic_string@_WU?$char_traits@_W@std@@V?$allocator@_W@2@@std@@V23@@Z@4HA 000000018002c0a0 f   FilePath.obj
 0001:0002b0a0       ?dtor$0@?0??ExtractFileName@FilePath@@SA?AV?$basic_string@_WU?$char_traits@_W@std@@V?$allocator@_W@2@@std@@V23@@Z@4HA 000000018002c0a0 f   FilePath.obj
 0001:0002b0a0       ?dtor$9@?0??RemoveTrailingEquals@@YA?AV?$OrderedMap@V?$basic_string@_WU?$char_traits@_W@std@@V?$allocator@_W@2@@std@@V12@@@V1@@Z@4HA 000000018002c0a0 f   JavaVirtualMachine.obj
 0001:0002b0a0       ?dtor$4@?0??Append@?$OrderedMap@V?$basic_string@_WU?$char_traits@_W@std@@V?$allocator@_W@2@@std@@PEAVIniSectionData@@@@QEAAXV?$basic_string@_WU?$char_traits@_W@std@@V?$allocator@_W@2@@std@@PEAVIniSectionData@@@Z@4HA 000000018002c0a0 f   IniFile.obj
 0001:0002b0a0       ?dtor$81@?0??Load@WindowsJavaUserPreferences@@UEAA_NV?$basic_string@_WU?$char_traits@_W@std@@V?$allocator@_W@2@@std@@@Z@4HA 000000018002c0a0 f   WindowsPlatform.obj
 0001:0002b0b0       ?dtor$2@?0??ReadJVMArgs@Package@@AEAAXPEAVISectionalPropertyContainer@@@Z@4HA 000000018002c0b0 f   Package.obj
 0001:0002b0b0       ?dtor$8@?0??GetJVMUserArgsFromConfig@Helpers@@SA?AV?$OrderedMap@V?$basic_string@_WU?$char_traits@_W@std@@V?$allocator@_W@2@@std@@V12@@@PEAVIPropertyContainer@@@Z@4HA 000000018002c0b0 f   Helpers.obj
 0001:0002b0b0       ?dtor$11@?0??ReadJVMArgs@Package@@AEAAXPEAVISectionalPropertyContainer@@@Z@4HA 000000018002c0b0 f   Package.obj
 0001:0002b0b0       ?dtor$5@?0??Append@?$OrderedMap@V?$basic_string@_WU?$char_traits@_W@std@@V?$allocator@_W@2@@std@@V12@@@QEAAXV?$basic_string@_WU?$char_traits@_W@std@@V?$allocator@_W@2@@std@@0@Z@4HA 000000018002c0b0 f   Exports.obj
 0001:0002b0b0       ?dtor$4@?0??ReadJVMArgs@Package@@AEAAXPEAVISectionalPropertyContainer@@@Z@4HA 000000018002c0b0 f   Package.obj
 0001:0002b0b0       ?dtor$2@?0??ConvertIdToJavaPath@Helpers@@SA?AV?$basic_string@_WU?$char_traits@_W@std@@V?$allocator@_W@2@@std@@V23@@Z@4HA 000000018002c0b0 f   Helpers.obj
 0001:0002b0c0       ?dtor$9@?0??DeleteFileW@FilePath@@SA_NV?$basic_string@_WU?$char_traits@_W@std@@V?$allocator@_W@2@@std@@@Z@4HA 000000018002c0c0 f   FilePath.obj
 0001:0002b0c0       ?dtor$0@?0??StringToPercentageOfNumber@@YA_KV?$basic_string@_WU?$char_traits@_W@std@@V?$allocator@_W@2@@std@@_K@Z@4HA 000000018002c0c0 f   Package.obj
 0001:0002b0c0       ?dtor$75@?0??Load@WindowsJavaUserPreferences@@UEAA_NV?$basic_string@_WU?$char_traits@_W@std@@V?$allocator@_W@2@@std@@@Z@4HA 000000018002c0c0 f   WindowsPlatform.obj
 0001:0002b0c0       ?dtor$20@?0??Load@WindowsJavaUserPreferences@@UEAA_NV?$basic_string@_WU?$char_traits@_W@std@@V?$allocator@_W@2@@std@@@Z@4HA 000000018002c0c0 f   WindowsPlatform.obj
 0001:0002b0c0       ?dtor$4@?0??Initialize@Macros@@SAXXZ@4HA 000000018002c0c0 f   Macros.obj
 0001:0002b0c0       ?dtor$22@?0??Load@WindowsJavaUserPreferences@@UEAA_NV?$basic_string@_WU?$char_traits@_W@std@@V?$allocator@_W@2@@std@@@Z@4HA 000000018002c0c0 f   WindowsPlatform.obj
 0001:0002b0c0       ?dtor$6@?0??Initialize@Macros@@SAXXZ@4HA 000000018002c0c0 f   Macros.obj
 0001:0002b0c0       ?dtor$2@?0??Initialize@Macros@@SAXXZ@4HA 000000018002c0c0 f   Macros.obj
 0001:0002b0c0       ?dtor$12@?0??Initialize@Macros@@SAXXZ@4HA 000000018002c0c0 f   Macros.obj
 0001:0002b0c0       ?dtor$0@?0??ChangeFileExt@FilePath@@SA?AV?$basic_string@_WU?$char_traits@_W@std@@V?$allocator@_W@2@@std@@V23@0@Z@4HA 000000018002c0c0 f   FilePath.obj
 0001:0002b0c0       ?dtor$6@?0??Append@?$OrderedMap@V?$basic_string@_WU?$char_traits@_W@std@@V?$allocator@_W@2@@std@@V12@@@QEAAXV?$basic_string@_WU?$char_traits@_W@std@@V?$allocator@_W@2@@std@@0@Z@4HA 000000018002c0c0 f   Exports.obj
 0001:0002b0c0       ?dtor$0@?0??NameValueToString@Helpers@@SA?AV?$basic_string@_WU?$char_traits@_W@std@@V?$allocator@_W@2@@std@@V23@0@Z@4HA 000000018002c0c0 f   Helpers.obj
 0001:0002b0c0       ?dtor$16@?0??Initialize@Macros@@SAXXZ@4HA 000000018002c0c0 f   Macros.obj
 0001:0002b0c0       ?dtor$10@?0??Initialize@Macros@@SAXXZ@4HA 000000018002c0c0 f   Macros.obj
 0001:0002b0c0       ?dtor$5@?0??_setUserJvmKeysAndValues@UserJVMArgsExports@@SAXPEAUJNIEnv_@@PEAV_jobjectArray@@1@Z@4HA 000000018002c0c0 f   Exports.obj
 0001:0002b0d0       ?dtor$9@?0??Append@?$OrderedMap@V?$basic_string@_WU?$char_traits@_W@std@@V?$allocator@_W@2@@std@@V12@@@QEAAXV?$basic_string@_WU?$char_traits@_W@std@@V?$allocator@_W@2@@std@@0@Z@4HA 000000018002c0d0 f   Exports.obj
 0001:0002b0e0       ?dtor$0@?0??GetKeys@?$OrderedMap@V?$basic_string@_WU?$char_traits@_W@std@@V?$allocator@_W@2@@std@@PEAVIniSectionData@@@@QEAA?AV?$vector@V?$basic_string@_WU?$char_traits@_W@std@@V?$allocator@_W@2@@std@@V?$allocator@V?$basic_string@_WU?$char_traits@_W@std@@V?$allocator@_W@2@@std@@@2@@std@@XZ@4HA 000000018002c0e0 f   IniFile.obj
 0001:0002b0e0       ?dtor$0@?0??GetKeys@?$OrderedMap@V?$basic_string@_WU?$char_traits@_W@std@@V?$allocator@_W@2@@std@@V12@@@QEAA?AV?$vector@V?$basic_string@_WU?$char_traits@_W@std@@V?$allocator@_W@2@@std@@V?$allocator@V?$basic_string@_WU?$char_traits@_W@std@@V?$allocator@_W@2@@std@@@2@@std@@XZ@4HA 000000018002c0e0 f   Exports.obj
 0001:0002b110       ?dtor$0@?0??ExpandMacros@Macros@@QEAA?AV?$basic_string@_WU?$char_traits@_W@std@@V?$allocator@_W@2@@std@@V23@@Z@4HA 000000018002c110 f   Macros.obj
 0001:0002b110       ?dtor$0@?0??GetValue@?$OrderedMap@V?$basic_string@_WU?$char_traits@_W@std@@V?$allocator@_W@2@@std@@PEAVIniSectionData@@@@QEAA_NV?$basic_string@_WU?$char_traits@_W@std@@V?$allocator@_W@2@@std@@AEAPEAVIniSectionData@@@Z@4HA 000000018002c110 f   IniFile.obj
 0001:0002b110       ?dtor$2@?0??StartJVM@JavaVirtualMachine@@QEAA_NXZ@4HA 000000018002c110 f   JavaVirtualMachine.obj
 0001:0002b110       ?dtor$0@?0??GetValue@?$OrderedMap@V?$basic_string@_WU?$char_traits@_W@std@@V?$allocator@_W@2@@std@@V12@@@QEAA_NV?$basic_string@_WU?$char_traits@_W@std@@V?$allocator@_W@2@@std@@AEAV23@@Z@4HA 000000018002c110 f   Exports.obj
 0001:0002b110       ?dtor$0@?0??Initialize@Macros@@SAXXZ@4HA 000000018002c110 f   Macros.obj
 0001:0002b110       ?dtor$13@?0??ReadJVMArgs@Package@@AEAAXPEAVISectionalPropertyContainer@@@Z@4HA 000000018002c110 f   Package.obj
 0001:0002b110       ?dtor$7@?0??ReadJVMArgs@Package@@AEAAXPEAVISectionalPropertyContainer@@@Z@4HA 000000018002c110 f   Package.obj
 0001:0002b120       ?dtor$0@?0??MapKeysToJObjectArray@UserJVMArgsExports@@CAPEAV_jobjectArray@@PEAUJNIEnv_@@V?$OrderedMap@V?$basic_string@_WU?$char_traits@_W@std@@V?$allocator@_W@2@@std@@V12@@@@Z@4HA 000000018002c120 f   Exports.obj
 0001:0002b130       ?dtor$1@?0??MapKeysToJObjectArray@UserJVMArgsExports@@CAPEAV_jobjectArray@@PEAUJNIEnv_@@V?$OrderedMap@V?$basic_string@_WU?$char_traits@_W@std@@V?$allocator@_W@2@@std@@V12@@@@Z@4HA 000000018002c130 f   Exports.obj
 0001:0002b140       ?dtor$0@?0??IncludeTrailingSeparater@FilePath@@SA?AV?$basic_string@_WU?$char_traits@_W@std@@V?$allocator@_W@2@@std@@PEB_W@Z@4HA 000000018002c140 f   FilePath.obj
 0001:0002b140       ?dtor$2@?0??MapKeysToJObjectArray@UserJVMArgsExports@@CAPEAV_jobjectArray@@PEAUJNIEnv_@@V?$OrderedMap@V?$basic_string@_WU?$char_traits@_W@std@@V?$allocator@_W@2@@std@@V12@@@@Z@4HA 000000018002c140 f   Exports.obj
 0001:0002b140       ?dtor$1@?0??GetJVMArgsFromConfig@Helpers@@SA?AV?$OrderedMap@V?$basic_string@_WU?$char_traits@_W@std@@V?$allocator@_W@2@@std@@V12@@@PEAVIPropertyContainer@@@Z@4HA 000000018002c140 f   Helpers.obj
 0001:0002b140       ?dtor$1@?0??_getUserJvmOptionValue@UserJVMArgsExports@@SAPEAV_jstring@@PEAUJNIEnv_@@PEAV2@@Z@4HA 000000018002c140 f   Exports.obj
 0001:0002b150       ?catch$0@?0??_Buyheadnode@?$_Tree_comp_alloc@V?$_Tmap_traits@V?$basic_string@_WU?$char_traits@_W@std@@V?$allocator@_W@2@@std@@PEAU?$pair@V?$basic_string@_WU?$char_traits@_W@std@@V?$allocator@_W@2@@std@@V12@@@U?$less@V?$basic_string@_WU?$char_traits@_W@std@@V?$allocator@_W@2@@std@@@2@V?$allocator@U?$pair@$$CBV?$basic_string@_WU?$char_traits@_W@std@@V?$allocator@_W@2@@std@@PEAU?$pair@V?$basic_string@_WU?$char_traits@_W@std@@V?$allocator@_W@2@@std@@V12@@@@std@@@2@$0A@@std@@@std@@QEAAPEAU?$_Tree_node@U?$pair@$$CBV?$basic_string@_WU?$char_traits@_W@std@@V?$allocator@_W@2@@std@@PEAU?$pair@V?$basic_string@_WU?$char_traits@_W@std@@V?$allocator@_W@2@@std@@V12@@@@std@@PEAX@2@XZ@4HA 000000018002c150 f   Exports.obj
 0001:0002b150       ?catch$0@?0??_Buyheadnode@?$_Tree_comp_alloc@V?$_Tmap_traits@V?$basic_string@_WU?$char_traits@_W@std@@V?$allocator@_W@2@@std@@PEAU?$pair@V?$basic_string@_WU?$char_traits@_W@std@@V?$allocator@_W@2@@std@@PEAVIniSectionData@@@@U?$less@V?$basic_string@_WU?$char_traits@_W@std@@V?$allocator@_W@2@@std@@@2@V?$allocator@U?$pair@$$CBV?$basic_string@_WU?$char_traits@_W@std@@V?$allocator@_W@2@@std@@PEAU?$pair@V?$basic_string@_WU?$char_traits@_W@std@@V?$allocator@_W@2@@std@@PEAVIniSectionData@@@@@std@@@2@$0A@@std@@@std@@QEAAPEAU?$_Tree_node@U?$pair@$$CBV?$basic_string@_WU?$char_traits@_W@std@@V?$allocator@_W@2@@std@@PEAU?$pair@V?$basic_string@_WU?$char_traits@_W@std@@V?$allocator@_W@2@@std@@PEAVIniSectionData@@@@@std@@PEAX@2@XZ@4HA 000000018002c150 f   IniFile.obj
 0001:0002b15d       __catch$?_Buyheadnode@?$_Tree_comp_alloc@V?$_Tmap_traits@V?$basic_string@_WU?$char_traits@_W@std@@V?$allocator@_W@2@@std@@PEAU?$pair@V?$basic_string@_WU?$char_traits@_W@std@@V?$allocator@_W@2@@std@@PEAVIniSectionData@@@@U?$less@V?$basic_string@_WU?$char_traits@_W@std@@V?$allocator@_W@2@@std@@@2@V?$allocator@U?$pair@$$CBV?$basic_string@_WU?$char_traits@_W@std@@V?$allocator@_W@2@@std@@PEAU?$pair@V?$basic_string@_WU?$char_traits@_W@std@@V?$allocator@_W@2@@std@@PEAVIniSectionData@@@@@std@@@2@$0A@@std@@@std@@QEAAPEAU?$_Tree_node@U?$pair@$$CBV?$basic_string@_WU?$char_traits@_W@std@@V?$allocator@_W@2@@std@@PEAU?$pair@V?$basic_string@_WU?$char_traits@_W@std@@V?$allocator@_W@2@@std@@PEAVIniSectionData@@@@@std@@PEAX@2@XZ$0 000000018002c15d f   IniFile.obj
 0001:0002b15d       __catch$?_Buyheadnode@?$_Tree_comp_alloc@V?$_Tmap_traits@V?$basic_string@_WU?$char_traits@_W@std@@V?$allocator@_W@2@@std@@PEAU?$pair@V?$basic_string@_WU?$char_traits@_W@std@@V?$allocator@_W@2@@std@@V12@@@U?$less@V?$basic_string@_WU?$char_traits@_W@std@@V?$allocator@_W@2@@std@@@2@V?$allocator@U?$pair@$$CBV?$basic_string@_WU?$char_traits@_W@std@@V?$allocator@_W@2@@std@@PEAU?$pair@V?$basic_string@_WU?$char_traits@_W@std@@V?$allocator@_W@2@@std@@V12@@@@std@@@2@$0A@@std@@@std@@QEAAPEAU?$_Tree_node@U?$pair@$$CBV?$basic_string@_WU?$char_traits@_W@std@@V?$allocator@_W@2@@std@@PEAU?$pair@V?$basic_string@_WU?$char_traits@_W@std@@V?$allocator@_W@2@@std@@V12@@@@std@@PEAX@2@XZ$0 000000018002c15d f   Exports.obj
 0001:0002b180       ?catch$0@?0??_Buynode0@?$_Tree_comp_alloc@V?$_Tmap_traits@V?$basic_string@_WU?$char_traits@_W@std@@V?$allocator@_W@2@@std@@PEAU?$pair@V?$basic_string@_WU?$char_traits@_W@std@@V?$allocator@_W@2@@std@@V12@@@U?$less@V?$basic_string@_WU?$char_traits@_W@std@@V?$allocator@_W@2@@std@@@2@V?$allocator@U?$pair@$$CBV?$basic_string@_WU?$char_traits@_W@std@@V?$allocator@_W@2@@std@@PEAU?$pair@V?$basic_string@_WU?$char_traits@_W@std@@V?$allocator@_W@2@@std@@V12@@@@std@@@2@$0A@@std@@@std@@QEAAPEAU?$_Tree_node@U?$pair@$$CBV?$basic_string@_WU?$char_traits@_W@std@@V?$allocator@_W@2@@std@@PEAU?$pair@V?$basic_string@_WU?$char_traits@_W@std@@V?$allocator@_W@2@@std@@V12@@@@std@@PEAX@2@XZ@4HA 000000018002c180 f   Exports.obj
 0001:0002b180       ?catch$0@?0??_Buynode0@?$_Tree_comp_alloc@V?$_Tmap_traits@V?$basic_string@_WU?$char_traits@_W@std@@V?$allocator@_W@2@@std@@PEAU?$pair@V?$basic_string@_WU?$char_traits@_W@std@@V?$allocator@_W@2@@std@@PEAVIniSectionData@@@@U?$less@V?$basic_string@_WU?$char_traits@_W@std@@V?$allocator@_W@2@@std@@@2@V?$allocator@U?$pair@$$CBV?$basic_string@_WU?$char_traits@_W@std@@V?$allocator@_W@2@@std@@PEAU?$pair@V?$basic_string@_WU?$char_traits@_W@std@@V?$allocator@_W@2@@std@@PEAVIniSectionData@@@@@std@@@2@$0A@@std@@@std@@QEAAPEAU?$_Tree_node@U?$pair@$$CBV?$basic_string@_WU?$char_traits@_W@std@@V?$allocator@_W@2@@std@@PEAU?$pair@V?$basic_string@_WU?$char_traits@_W@std@@V?$allocator@_W@2@@std@@PEAVIniSectionData@@@@@std@@PEAX@2@XZ@4HA 000000018002c180 f   IniFile.obj
 0001:0002b18d       __catch$?_Buynode0@?$_Tree_comp_alloc@V?$_Tmap_traits@V?$basic_string@_WU?$char_traits@_W@std@@V?$allocator@_W@2@@std@@PEAU?$pair@V?$basic_string@_WU?$char_traits@_W@std@@V?$allocator@_W@2@@std@@PEAVIniSectionData@@@@U?$less@V?$basic_string@_WU?$char_traits@_W@std@@V?$allocator@_W@2@@std@@@2@V?$allocator@U?$pair@$$CBV?$basic_string@_WU?$char_traits@_W@std@@V?$allocator@_W@2@@std@@PEAU?$pair@V?$basic_string@_WU?$char_traits@_W@std@@V?$allocator@_W@2@@std@@PEAVIniSectionData@@@@@std@@@2@$0A@@std@@@std@@QEAAPEAU?$_Tree_node@U?$pair@$$CBV?$basic_string@_WU?$char_traits@_W@std@@V?$allocator@_W@2@@std@@PEAU?$pair@V?$basic_string@_WU?$char_traits@_W@std@@V?$allocator@_W@2@@std@@PEAVIniSectionData@@@@@std@@PEAX@2@XZ$0 000000018002c18d f   IniFile.obj
 0001:0002b18d       __catch$?_Buynode0@?$_Tree_comp_alloc@V?$_Tmap_traits@V?$basic_string@_WU?$char_traits@_W@std@@V?$allocator@_W@2@@std@@PEAU?$pair@V?$basic_string@_WU?$char_traits@_W@std@@V?$allocator@_W@2@@std@@V12@@@U?$less@V?$basic_string@_WU?$char_traits@_W@std@@V?$allocator@_W@2@@std@@@2@V?$allocator@U?$pair@$$CBV?$basic_string@_WU?$char_traits@_W@std@@V?$allocator@_W@2@@std@@PEAU?$pair@V?$basic_string@_WU?$char_traits@_W@std@@V?$allocator@_W@2@@std@@V12@@@@std@@@2@$0A@@std@@@std@@QEAAPEAU?$_Tree_node@U?$pair@$$CBV?$basic_string@_WU?$char_traits@_W@std@@V?$allocator@_W@2@@std@@PEAU?$pair@V?$basic_string@_WU?$char_traits@_W@std@@V?$allocator@_W@2@@std@@V12@@@@std@@PEAX@2@XZ$0 000000018002c18d f   Exports.obj
 0001:0002b1b0       ?catch$1@?0??_getUserJvmOptionDefaultKeys@UserJVMArgsExports@@SAPEAV_jobjectArray@@PEAUJNIEnv_@@@Z@4HA 000000018002c1b0 f   Exports.obj
 0001:0002b1bd       __catch$?_getUserJvmOptionDefaultKeys@UserJVMArgsExports@@SAPEAV_jobjectArray@@PEAUJNIEnv_@@@Z$0 000000018002c1bd f   Exports.obj
 0001:0002b1d0       ?catch$15@?0??_getUserJvmOptionDefaultValue@UserJVMArgsExports@@SAPEAV_jstring@@PEAUJNIEnv_@@PEAV2@@Z@4HA 000000018002c1d0 f   Exports.obj
 0001:0002b1dd       __catch$?_getUserJvmOptionDefaultValue@UserJVMArgsExports@@SAPEAV_jstring@@PEAUJNIEnv_@@PEAV2@@Z$0 000000018002c1dd f   Exports.obj
 0001:0002b1f0       ?dtor$0@?0??_getUserJvmOptionValue@UserJVMArgsExports@@SAPEAV_jstring@@PEAUJNIEnv_@@PEAV2@@Z@4HA 000000018002c1f0 f   Exports.obj
 0001:0002b1f0       ?dtor$0@?0??_getUserJvmOptionDefaultValue@UserJVMArgsExports@@SAPEAV_jstring@@PEAUJNIEnv_@@PEAV2@@Z@4HA 000000018002c1f0 f   Exports.obj
 0001:0002b1f0       ?dtor$0@?0??_setUserJvmKeysAndValues@UserJVMArgsExports@@SAXPEAUJNIEnv_@@PEAV_jobjectArray@@1@Z@4HA 000000018002c1f0 f   Exports.obj
 0001:0002b200       ?dtor$5@?0??_getUserJvmOptionDefaultValue@UserJVMArgsExports@@SAPEAV_jstring@@PEAUJNIEnv_@@PEAV2@@Z@4HA 000000018002c200 f   Exports.obj
 0001:0002b200       ?dtor$1@?0??_getUserJvmOptionDefaultValue@UserJVMArgsExports@@SAPEAV_jstring@@PEAUJNIEnv_@@PEAV2@@Z@4HA 000000018002c200 f   Exports.obj
 0001:0002b200       ?dtor$1@?0??StringToPercentageOfNumber@@YA_KV?$basic_string@_WU?$char_traits@_W@std@@V?$allocator@_W@2@@std@@_K@Z@4HA 000000018002c200 f   Package.obj
 0001:0002b210       ?dtor$2@?0??_getUserJvmOptionDefaultValue@UserJVMArgsExports@@SAPEAV_jstring@@PEAUJNIEnv_@@PEAV2@@Z@4HA 000000018002c210 f   Exports.obj
 0001:0002b210       ?dtor$2@?0??GetArgsFromConfig@Helpers@@SA?AV?$list@V?$basic_string@_WU?$char_traits@_W@std@@V?$allocator@_W@2@@std@@V?$allocator@V?$basic_string@_WU?$char_traits@_W@std@@V?$allocator@_W@2@@std@@@2@@std@@PEAVIPropertyContainer@@@Z@4HA 000000018002c210 f   Helpers.obj
 0001:0002b210       ?dtor$2@?0??FilterList@@YA?AV?$vector@V?$basic_string@_WU?$char_traits@_W@std@@V?$allocator@_W@2@@std@@V?$allocator@V?$basic_string@_WU?$char_traits@_W@std@@V?$allocator@_W@2@@std@@@2@@std@@AEAV12@V?$basic_regex@_WV?$regex_traits@_W@std@@@2@@Z@4HA 000000018002c210 f   WindowsPlatform.obj
 0001:0002b210       ?dtor$2@?0??_getUserJvmOptionValue@UserJVMArgsExports@@SAPEAV_jstring@@PEAUJNIEnv_@@PEAV2@@Z@4HA 000000018002c210 f   Exports.obj
 0001:0002b220       ?dtor$3@?0??_getUserJvmOptionValue@UserJVMArgsExports@@SAPEAV_jstring@@PEAUJNIEnv_@@PEAV2@@Z@4HA 000000018002c220 f   Exports.obj
 0001:0002b220       ?dtor$0@?0??_Add_equiv@?$_Builder@PEB_W_WV?$regex_traits@_W@std@@@std@@QEAAXPEB_W0_J@Z@4HA 000000018002c220 f   WindowsPlatform.obj
 0001:0002b220       ?dtor$3@?0??_getUserJvmOptionDefaultValue@UserJVMArgsExports@@SAPEAV_jstring@@PEAUJNIEnv_@@PEAV2@@Z@4HA 000000018002c220 f   Exports.obj
 0001:0002b220       ?dtor$4@?0??GetArgsFromConfig@Helpers@@SA?AV?$list@V?$basic_string@_WU?$char_traits@_W@std@@V?$allocator@_W@2@@std@@V?$allocator@V?$basic_string@_WU?$char_traits@_W@std@@V?$allocator@_W@2@@std@@@2@@std@@PEAVIPropertyContainer@@@Z@4HA 000000018002c220 f   Helpers.obj
 0001:0002b230       ?catch$1@?0??_getUserJvmOptionKeys@UserJVMArgsExports@@SAPEAV_jobjectArray@@PEAUJNIEnv_@@@Z@4HA 000000018002c230 f   Exports.obj
 0001:0002b23d       __catch$?_getUserJvmOptionKeys@UserJVMArgsExports@@SAPEAV_jobjectArray@@PEAUJNIEnv_@@@Z$0 000000018002c23d f   Exports.obj
 0001:0002b250       ?catch$15@?0??_getUserJvmOptionValue@UserJVMArgsExports@@SAPEAV_jstring@@PEAUJNIEnv_@@PEAV2@@Z@4HA 000000018002c250 f   Exports.obj
 0001:0002b25d       __catch$?_getUserJvmOptionValue@UserJVMArgsExports@@SAPEAV_jstring@@PEAUJNIEnv_@@PEAV2@@Z$0 000000018002c25d f   Exports.obj
 0001:0002b270       ?dtor$9@?0??LoadFromFile@GenericPlatform@@UEAA?AV?$list@V?$basic_string@_WU?$char_traits@_W@std@@V?$allocator@_W@2@@std@@V?$allocator@V?$basic_string@_WU?$char_traits@_W@std@@V?$allocator@_W@2@@std@@@2@@std@@V?$basic_string@_WU?$char_traits@_W@std@@V?$allocator@_W@2@@3@@Z@4HA 000000018002c270 f   GenericPlatform.obj
 0001:0002b270       ?dtor$2@?0??GetImportsSection@WindowsLibrary@@CA?AV?$vector@V?$basic_string@_WU?$char_traits@_W@std@@V?$allocator@_W@2@@std@@V?$allocator@V?$basic_string@_WU?$char_traits@_W@std@@V?$allocator@_W@2@@std@@@2@@std@@KPEAU_IMAGE_NT_HEADERS64@@@Z@4HA 000000018002c270 f   WindowsPlatform.obj
 0001:0002b270       ?dtor$5@?0??_getUserJvmOptionValue@UserJVMArgsExports@@SAPEAV_jstring@@PEAUJNIEnv_@@PEAV2@@Z@4HA 000000018002c270 f   Exports.obj
 0001:0002b270       ?dtor$11@?0??Initialize@JavaStringArray@@AEAAX_K@Z@4HA 000000018002c270 f   Java.obj
 0001:0002b270       ?dtor$13@?0??SaveToFile@GenericPlatform@@UEAAXV?$basic_string@_WU?$char_traits@_W@std@@V?$allocator@_W@2@@std@@V?$list@V?$basic_string@_WU?$char_traits@_W@std@@V?$allocator@_W@2@@std@@V?$allocator@V?$basic_string@_WU?$char_traits@_W@std@@V?$allocator@_W@2@@std@@@2@@3@_N@Z@4HA 000000018002c270 f   GenericPlatform.obj
 0001:0002b270       ?dtor$2@?0???0JavaStringArray@@QEAA@PEAUJNIEnv_@@V?$list@V?$basic_string@_WU?$char_traits@_W@std@@V?$allocator@_W@2@@std@@V?$allocator@V?$basic_string@_WU?$char_traits@_W@std@@V?$allocator@_W@2@@std@@@2@@std@@@Z@4HA 000000018002c270 f   Java.obj
 0001:0002b280       ?catch$24@?0??_setUserJvmKeysAndValues@UserJVMArgsExports@@SAXPEAUJNIEnv_@@PEAV_jobjectArray@@1@Z@4HA 000000018002c280 f   Exports.obj
 0001:0002b28d       __catch$?_setUserJvmKeysAndValues@UserJVMArgsExports@@SAXPEAUJNIEnv_@@PEAV_jobjectArray@@1@Z$0 000000018002c28d f   Exports.obj
 0001:0002b2a0       ?dtor$1@?0??_setUserJvmKeysAndValues@UserJVMArgsExports@@SAXPEAUJNIEnv_@@PEAV_jobjectArray@@1@Z@4HA 000000018002c2a0 f   Exports.obj
 0001:0002b2b0       ?dtor$2@?0??_setUserJvmKeysAndValues@UserJVMArgsExports@@SAXPEAUJNIEnv_@@PEAV_jobjectArray@@1@Z@4HA 000000018002c2b0 f   Exports.obj
 0001:0002b2c0       ?dtor$3@?0??_setUserJvmKeysAndValues@UserJVMArgsExports@@SAXPEAUJNIEnv_@@PEAV_jobjectArray@@1@Z@4HA 000000018002c2c0 f   Exports.obj
 0001:0002b2d0       ?dtor$22@?0??StartJVM@JavaVirtualMachine@@QEAA_NXZ@4HA 000000018002c2d0 f   JavaVirtualMachine.obj
 0001:0002b2d0       ?dtor$1@?0??CreateOrderedMapFromKeyList@@YA?AV?$OrderedMap@V?$basic_string@_WU?$char_traits@_W@std@@V?$allocator@_W@2@@std@@V12@@@AEAV1@AEAV?$vector@V?$basic_string@_WU?$char_traits@_W@std@@V?$allocator@_W@2@@std@@V?$allocator@V?$basic_string@_WU?$char_traits@_W@std@@V?$allocator@_W@2@@std@@@2@@std@@@Z@4HA 000000018002c2d0 f   Package.obj
 0001:0002b2d0       ?dtor$4@?0??_setUserJvmKeysAndValues@UserJVMArgsExports@@SAXPEAUJNIEnv_@@PEAV_jobjectArray@@1@Z@4HA 000000018002c2d0 f   Exports.obj
 0001:0002b2d0       ?dtor$38@?0??StartJVM@JavaVirtualMachine@@QEAA_NXZ@4HA 000000018002c2d0 f   JavaVirtualMachine.obj
 0001:0002b2d0       ?dtor$6@?0??StartJVM@JavaVirtualMachine@@QEAA_NXZ@4HA 000000018002c2d0 f   JavaVirtualMachine.obj
 0001:0002b2d0       ?dtor$0@?0??GetJVMUserArgsConfigFileName@Package@@QEAA?AV?$basic_string@_WU?$char_traits@_W@std@@V?$allocator@_W@2@@std@@XZ@4HA 000000018002c2d0 f   Package.obj
 0001:0002b2e0       ?dtor$20@?0??_setUserJvmKeysAndValues@UserJVMArgsExports@@SAXPEAUJNIEnv_@@PEAV_jobjectArray@@1@Z@4HA 000000018002c2e0 f   Exports.obj
 0001:0002b2f0       ?dtor$21@?0??_setUserJvmKeysAndValues@UserJVMArgsExports@@SAXPEAUJNIEnv_@@PEAV_jobjectArray@@1@Z@4HA 000000018002c2f0 f   Exports.obj
 0001:0002b300       ?catch$0@?0???$_Buynode@AEBV?$basic_string@_WU?$char_traits@_W@std@@V?$allocator@_W@2@@std@@@?$_List_buy@V?$basic_string@_WU?$char_traits@_W@std@@V?$allocator@_W@2@@std@@V?$allocator@V?$basic_string@_WU?$char_traits@_W@std@@V?$allocator@_W@2@@std@@@2@@std@@QEAAPEAU?$_List_node@V?$basic_string@_WU?$char_traits@_W@std@@V?$allocator@_W@2@@std@@PEAX@1@PEAU21@0AEBV?$basic_string@_WU?$char_traits@_W@std@@V?$allocator@_W@2@@1@@Z@4HA 000000018002c300 f   FilePath.obj
 0001:0002b300       ?catch$0@?0???$_Buynode@AEAV?$basic_string@_WU?$char_traits@_W@std@@V?$allocator@_W@2@@std@@@?$_List_buy@V?$basic_string@_WU?$char_traits@_W@std@@V?$allocator@_W@2@@std@@V?$allocator@V?$basic_string@_WU?$char_traits@_W@std@@V?$allocator@_W@2@@std@@@2@@std@@QEAAPEAU?$_List_node@V?$basic_string@_WU?$char_traits@_W@std@@V?$allocator@_W@2@@std@@PEAX@1@PEAU21@0AEAV?$basic_string@_WU?$char_traits@_W@std@@V?$allocator@_W@2@@1@@Z@4HA 000000018002c300 f   IniFile.obj
 0001:0002b30d       __catch$??$_Buynode@AEBV?$basic_string@_WU?$char_traits@_W@std@@V?$allocator@_W@2@@std@@@?$_List_buy@V?$basic_string@_WU?$char_traits@_W@std@@V?$allocator@_W@2@@std@@V?$allocator@V?$basic_string@_WU?$char_traits@_W@std@@V?$allocator@_W@2@@std@@@2@@std@@QEAAPEAU?$_List_node@V?$basic_string@_WU?$char_traits@_W@std@@V?$allocator@_W@2@@std@@PEAX@1@PEAU21@0AEBV?$basic_string@_WU?$char_traits@_W@std@@V?$allocator@_W@2@@1@@Z$0 000000018002c30d f   FilePath.obj
 0001:0002b30d       __catch$??$_Buynode@AEAV?$basic_string@_WU?$char_traits@_W@std@@V?$allocator@_W@2@@std@@@?$_List_buy@V?$basic_string@_WU?$char_traits@_W@std@@V?$allocator@_W@2@@std@@V?$allocator@V?$basic_string@_WU?$char_traits@_W@std@@V?$allocator@_W@2@@std@@@2@@std@@QEAAPEAU?$_List_node@V?$basic_string@_WU?$char_traits@_W@std@@V?$allocator@_W@2@@std@@PEAX@1@PEAU21@0AEAV?$basic_string@_WU?$char_traits@_W@std@@V?$allocator@_W@2@@1@@Z$0 000000018002c30d f   IniFile.obj
 0001:0002b330       ?catch$0@?0???$_Emplace_reallocate@W4FileAttribute@@@?$vector@W4FileAttribute@@V?$allocator@W4FileAttribute@@@std@@@std@@QEAAPEAW4FileAttribute@@QEAW42@$$QEAW42@@Z@4HA 000000018002c330 f   FilePath.obj
 0001:0002b33d       __catch$??$_Emplace_reallocate@W4FileAttribute@@@?$vector@W4FileAttribute@@V?$allocator@W4FileAttribute@@@std@@@std@@QEAAPEAW4FileAttribute@@QEAW42@$$QEAW42@@Z$0 000000018002c33d f   FilePath.obj
 0001:0002b360       ?dtor$2@?0??ChangeFileExt@FilePath@@SA?AV?$basic_string@_WU?$char_traits@_W@std@@V?$allocator@_W@2@@std@@V23@0@Z@4HA 000000018002c360 f   FilePath.obj
 0001:0002b360       ?dtor$1@?0??ConvertJavaEcodedStringToString@@YA?AV?$basic_string@_WU?$char_traits@_W@std@@V?$allocator@_W@2@@std@@V12@@Z@4HA 000000018002c360 f   WindowsPlatform.obj
 0001:0002b360       ?dtor$1@?0??IncludeTrailingSeparater@FilePath@@SA?AV?$basic_string@_WU?$char_traits@_W@std@@V?$allocator@_W@2@@std@@V23@@Z@4HA 000000018002c360 f   FilePath.obj
 0001:0002b360       ?dtor$1@?0??ExtractFileName@FilePath@@SA?AV?$basic_string@_WU?$char_traits@_W@std@@V?$allocator@_W@2@@std@@V23@@Z@4HA 000000018002c360 f   FilePath.obj
 0001:0002b360       ?dtor$1@?0??ExtractFilePath@FilePath@@SA?AV?$basic_string@_WU?$char_traits@_W@std@@V?$allocator@_W@2@@std@@V23@@Z@4HA 000000018002c360 f   FilePath.obj
 0001:0002b360       ?dtor$2@?0??NameValueToString@Helpers@@SA?AV?$basic_string@_WU?$char_traits@_W@std@@V?$allocator@_W@2@@std@@V23@0@Z@4HA 000000018002c360 f   Helpers.obj
 0001:0002b390       ?dtor$3@?0??ChangeFileExt@FilePath@@SA?AV?$basic_string@_WU?$char_traits@_W@std@@V?$allocator@_W@2@@std@@V23@0@Z@4HA 000000018002c390 f   FilePath.obj
 0001:0002b390       ?dtor$4@?0??NameValueToString@Helpers@@SA?AV?$basic_string@_WU?$char_traits@_W@std@@V?$allocator@_W@2@@std@@V23@0@Z@4HA 000000018002c390 f   Helpers.obj
 0001:0002b3a0       ?dtor$1@?0??CreateDirectoryW@FilePath@@SA_NV?$basic_string@_WU?$char_traits@_W@std@@V?$allocator@_W@2@@std@@_N@Z@4HA 000000018002c3a0 f   FilePath.obj
 0001:0002b3b0       ?dtor$2@?0??CreateDirectoryW@FilePath@@SA_NV?$basic_string@_WU?$char_traits@_W@std@@V?$allocator@_W@2@@std@@_N@Z@4HA 000000018002c3b0 f   FilePath.obj
 0001:0002b3b0       ?dtor$10@?0??DeleteFileW@FilePath@@SA_NV?$basic_string@_WU?$char_traits@_W@std@@V?$allocator@_W@2@@std@@@Z@4HA 000000018002c3b0 f   FilePath.obj
 0001:0002b3b0       ?dtor$3@?0??GetLibraryImports@WindowsPlatform@@UEAA?AV?$vector@V?$basic_string@_WU?$char_traits@_W@std@@V?$allocator@_W@2@@std@@V?$allocator@V?$basic_string@_WU?$char_traits@_W@std@@V?$allocator@_W@2@@std@@@2@@std@@V?$basic_string@_WU?$char_traits@_W@std@@V?$allocator@_W@2@@3@@Z@4HA 000000018002c3b0 f   WindowsPlatform.obj
 0001:0002b3b0       ?dtor$4@?0???0JavaClass@@QEAA@PEAUJNIEnv_@@V?$basic_string@_WU?$char_traits@_W@std@@V?$allocator@_W@2@@std@@@Z@4HA 000000018002c3b0 f   Java.obj
 0001:0002b3b0       ?dtor$5@?0??GetArgsFromConfig@Helpers@@SA?AV?$list@V?$basic_string@_WU?$char_traits@_W@std@@V?$allocator@_W@2@@std@@V?$allocator@V?$basic_string@_WU?$char_traits@_W@std@@V?$allocator@_W@2@@std@@@2@@std@@PEAVIPropertyContainer@@@Z@4HA 000000018002c3b0 f   Helpers.obj
 0001:0002b3b0       ?dtor$5@?0??GetStaticMethod@JavaClass@@QEAA?AVJavaStaticMethod@@V?$basic_string@_WU?$char_traits@_W@std@@V?$allocator@_W@2@@std@@0@Z@4HA 000000018002c3b0 f   Java.obj
 0001:0002b3b0       ?dtor$6@?0??GetLibraryImports@WindowsPlatform@@UEAA?AV?$vector@V?$basic_string@_WU?$char_traits@_W@std@@V?$allocator@_W@2@@std@@V?$allocator@V?$basic_string@_WU?$char_traits@_W@std@@V?$allocator@_W@2@@std@@@2@@std@@V?$basic_string@_WU?$char_traits@_W@std@@V?$allocator@_W@2@@3@@Z@4HA 000000018002c3b0 f   WindowsPlatform.obj
 0001:0002b3c0       ?dtor$0@?0??GetSection@IniFile@@UEAA_NV?$basic_string@_WU?$char_traits@_W@std@@V?$allocator@_W@2@@std@@AEAV?$OrderedMap@V?$basic_string@_WU?$char_traits@_W@std@@V?$allocator@_W@2@@std@@V12@@@@Z@4HA 000000018002c3c0 f   IniFile.obj
 0001:0002b3c0       ?dtor$0@?0??ConvertIdToJavaPath@Helpers@@SA?AV?$basic_string@_WU?$char_traits@_W@std@@V?$allocator@_W@2@@std@@V23@@Z@4HA 000000018002c3c0 f   Helpers.obj
 0001:0002b3c0       ?dtor$15@?0??AppendValues@JavaOptions@@QEAAXV?$OrderedMap@V?$basic_string@_WU?$char_traits@_W@std@@V?$allocator@_W@2@@std@@V12@@@@Z@4HA 000000018002c3c0 f   JavaVirtualMachine.obj
 0001:0002b3c0       ?dtor$5@?0??AppendValues@JavaOptions@@QEAAXV?$OrderedMap@V?$basic_string@_WU?$char_traits@_W@std@@V?$allocator@_W@2@@std@@V12@@@@Z@4HA 000000018002c3c0 f   JavaVirtualMachine.obj
 0001:0002b3c0       ?dtor$12@?0??CreateDirectoryW@FilePath@@SA_NV?$basic_string@_WU?$char_traits@_W@std@@V?$allocator@_W@2@@std@@_N@Z@4HA 000000018002c3c0 f   FilePath.obj
 0001:0002b3c0       ?dtor$0@?0??GetMessageW@Messages@@QEAA?AV?$basic_string@_WU?$char_traits@_W@std@@V?$allocator@_W@2@@std@@V23@@Z@4HA 000000018002c3c0 f   Messages.obj
 0001:0002b3d0       ?dtor$13@?0??CreateDirectoryW@FilePath@@SA_NV?$basic_string@_WU?$char_traits@_W@std@@V?$allocator@_W@2@@std@@_N@Z@4HA 000000018002c3d0 f   FilePath.obj
 0001:0002b400       ?dtor$0@?0??ShowMessage@WindowsPlatform@@UEAAXV?$basic_string@_WU?$char_traits@_W@std@@V?$allocator@_W@2@@std@@@Z@4HA 000000018002c400 f   WindowsPlatform.obj
 0001:0002b400       ?dtor$0@?0??GetConfigFile@WindowsPlatform@@UEAAPEAVISectionalPropertyContainer@@V?$basic_string@_WU?$char_traits@_W@std@@V?$allocator@_W@2@@std@@@Z@4HA 000000018002c400 f   WindowsPlatform.obj
 0001:0002b400       ?dtor$0@?0???0FileNotFoundException@@QEAA@V?$basic_string@_WU?$char_traits@_W@std@@V?$allocator@_W@2@@std@@@Z@4HA 000000018002c400 f   main.obj
 0001:0002b400       ?dtor$0@?0??GetValue@PropertyFile@@UEAA_NV?$basic_string@_WU?$char_traits@_W@std@@V?$allocator@_W@2@@std@@AEAV23@@Z@4HA 000000018002c400 f   PropertyFile.obj
 0001:0002b400       ?dtor$0@?0??GetValue@IniSectionData@@UEAA_NV?$basic_string@_WU?$char_traits@_W@std@@V?$allocator@_W@2@@std@@AEAV23@@Z@4HA 000000018002c400 f   IniFile.obj
 0001:0002b400       ?dtor$20@?0??GetKeysThatAreNotDuplicates@@YA?AV?$vector@V?$basic_string@_WU?$char_traits@_W@std@@V?$allocator@_W@2@@std@@V?$allocator@V?$basic_string@_WU?$char_traits@_W@std@@V?$allocator@_W@2@@std@@@2@@std@@AEAV?$OrderedMap@V?$basic_string@_WU?$char_traits@_W@std@@V?$allocator@_W@2@@std@@V12@@@0@Z@4HA 000000018002c400 f   Package.obj
 0001:0002b400       ?dtor$1@?0??GetValue@IniFile@@UEAA_NV?$basic_string@_WU?$char_traits@_W@std@@V?$allocator@_W@2@@std@@0AEAV23@@Z@4HA 000000018002c400 f   IniFile.obj
 0001:0002b400       ?dtor$36@?0??LoadOldConfigFile@Helpers@@SAXV?$basic_string@_WU?$char_traits@_W@std@@V?$allocator@_W@2@@std@@PEAVIniFile@@@Z@4HA 000000018002c400 f   Helpers.obj
 0001:0002b400       ?dtor$0@?0??ConvertIdToFilePath@Helpers@@SA?AV?$basic_string@_WU?$char_traits@_W@std@@V?$allocator@_W@2@@std@@V23@@Z@4HA 000000018002c400 f   Helpers.obj
 0001:0002b400       ?dtor$0@?0??Append@?$OrderedMap@V?$basic_string@_WU?$char_traits@_W@std@@V?$allocator@_W@2@@std@@PEAVIniSectionData@@@@QEAAXV?$basic_string@_WU?$char_traits@_W@std@@V?$allocator@_W@2@@std@@PEAVIniSectionData@@@Z@4HA 000000018002c400 f   IniFile.obj
 0001:0002b400       ?dtor$0@?0??DeleteFileW@FilePath@@SA_NV?$basic_string@_WU?$char_traits@_W@std@@V?$allocator@_W@2@@std@@@Z@4HA 000000018002c400 f   FilePath.obj
 0001:0002b400       ?dtor$0@?0??ContainsSection@IniFile@@UEAA_NV?$basic_string@_WU?$char_traits@_W@std@@V?$allocator@_W@2@@std@@@Z@4HA 000000018002c400 f   IniFile.obj
 0001:0002b400       ?dtor$15@?0??GetKeysThatAreNotDuplicates@@YA?AV?$vector@V?$basic_string@_WU?$char_traits@_W@std@@V?$allocator@_W@2@@std@@V?$allocator@V?$basic_string@_WU?$char_traits@_W@std@@V?$allocator@_W@2@@std@@@2@@std@@AEAV?$OrderedMap@V?$basic_string@_WU?$char_traits@_W@std@@V?$allocator@_W@2@@std@@V12@@@0@Z@4HA 000000018002c400 f   Package.obj
 0001:0002b400       ?dtor$1@?0??AddMacro@Macros@@QEAAXV?$basic_string@_WU?$char_traits@_W@std@@V?$allocator@_W@2@@std@@0@Z@4HA 000000018002c400 f   Macros.obj
 0001:0002b410       ?dtor$2@?0??ConvertIdToFilePath@Helpers@@SA?AV?$basic_string@_WU?$char_traits@_W@std@@V?$allocator@_W@2@@std@@V23@@Z@4HA 000000018002c410 f   Helpers.obj
 0001:0002b410       ?dtor$2@?0??DeleteFileW@FilePath@@SA_NV?$basic_string@_WU?$char_traits@_W@std@@V?$allocator@_W@2@@std@@@Z@4HA 000000018002c410 f   FilePath.obj
 0001:0002b410       ?dtor$3@?0??Append@?$OrderedMap@V?$basic_string@_WU?$char_traits@_W@std@@V?$allocator@_W@2@@std@@PEAVIniSectionData@@@@QEAAXV?$basic_string@_WU?$char_traits@_W@std@@V?$allocator@_W@2@@std@@PEAVIniSectionData@@@Z@4HA 000000018002c410 f   IniFile.obj
 0001:0002b410       ?dtor$1@?0???$_Lookup_equiv@_WV?$regex_traits@_W@std@@@std@@YA_NGPEBU?$_Sequence@_W@0@AEBV?$regex_traits@_W@0@@Z@4HA 000000018002c410 f   WindowsPlatform.obj
 0001:0002b410       ?dtor$1@?0??ShowMessage@WindowsPlatform@@UEAAXV?$basic_string@_WU?$char_traits@_W@std@@V?$allocator@_W@2@@std@@@Z@4HA 000000018002c410 f   WindowsPlatform.obj
 0001:0002b420       ?dtor$11@?0??DeleteFileW@FilePath@@SA_NV?$basic_string@_WU?$char_traits@_W@std@@V?$allocator@_W@2@@std@@@Z@4HA 000000018002c420 f   FilePath.obj
 0001:0002b430       ?dtor$8@?0??Append@IniFile@@QEAAXV?$basic_string@_WU?$char_traits@_W@std@@V?$allocator@_W@2@@std@@0V23@@Z@4HA 000000018002c430 f   IniFile.obj
 0001:0002b430       ?dtor$5@?0??GetLibraryImports@WindowsPlatform@@UEAA?AV?$vector@V?$basic_string@_WU?$char_traits@_W@std@@V?$allocator@_W@2@@std@@V?$allocator@V?$basic_string@_WU?$char_traits@_W@std@@V?$allocator@_W@2@@std@@@2@@std@@V?$basic_string@_WU?$char_traits@_W@std@@V?$allocator@_W@2@@3@@Z@4HA 000000018002c430 f   WindowsPlatform.obj
 0001:0002b430       ?dtor$6@?0??SetValue@IniFile@@QEAA_NV?$basic_string@_WU?$char_traits@_W@std@@V?$allocator@_W@2@@std@@0V23@@Z@4HA 000000018002c430 f   IniFile.obj
 0001:0002b430       ?dtor$3@?0??GetAppName@GenericPlatform@@UEAA?AV?$basic_string@_WU?$char_traits@_W@std@@V?$allocator@_W@2@@std@@XZ@4HA 000000018002c430 f   GenericPlatform.obj
 0001:0002b430       ?dtor$11@?0??GetJVMUserArgsFromConfig@Helpers@@SA?AV?$OrderedMap@V?$basic_string@_WU?$char_traits@_W@std@@V?$allocator@_W@2@@std@@V12@@@PEAVIPropertyContainer@@@Z@4HA 000000018002c430 f   Helpers.obj
 0001:0002b430       ?dtor$3@?0??SetValue@IniSectionData@@QEAA_NV?$basic_string@_WU?$char_traits@_W@std@@V?$allocator@_W@2@@std@@V23@@Z@4HA 000000018002c430 f   IniFile.obj
 0001:0002b430       ?dtor$4@?0??AppendValue@JavaOptions@@QEAAXV?$basic_string@_WU?$char_traits@_W@std@@V?$allocator@_W@2@@std@@V23@@Z@4HA 000000018002c430 f   JavaVirtualMachine.obj
 0001:0002b430       ?dtor$0@?0??FixPathForPlatform@FilePath@@SA?AV?$basic_string@_WU?$char_traits@_W@std@@V?$allocator@_W@2@@std@@V23@@Z@4HA 000000018002c430 f   FilePath.obj
 0001:0002b430       ?dtor$0@?0??FixPathSeparatorForPlatform@FilePath@@SA?AV?$basic_string@_WU?$char_traits@_W@std@@V?$allocator@_W@2@@std@@V23@@Z@4HA 000000018002c430 f   FilePath.obj
 0001:0002b430       ?dtor$3@?0??SetValue@PropertyFile@@QEAA_NV?$basic_string@_WU?$char_traits@_W@std@@V?$allocator@_W@2@@std@@V23@@Z@4HA 000000018002c430 f   PropertyFile.obj
 0001:0002b430       ?dtor$0@?0???$_Buynode@AEBUJavaOptionItem@@@?$_List_buy@UJavaOptionItem@@V?$allocator@UJavaOptionItem@@@std@@@std@@QEAAPEAU?$_List_node@UJavaOptionItem@@PEAX@1@PEAU21@0AEBUJavaOptionItem@@@Z@4HA 000000018002c430 f   JavaVirtualMachine.obj
 0001:0002b430       ?dtor$8@?0???0JavaException@@QEAA@PEAUJNIEnv_@@V?$basic_string@_WU?$char_traits@_W@std@@V?$allocator@_W@2@@std@@@Z@4HA 000000018002c430 f   Java.obj
 0001:0002b440       ?dtor$1@?0??ConvertIdToJavaPath@Helpers@@SA?AV?$basic_string@_WU?$char_traits@_W@std@@V?$allocator@_W@2@@std@@V23@@Z@4HA 000000018002c440 f   Helpers.obj
 0001:0002b440       ?dtor$1@?0??IncludeTrailingSeparater@FilePath@@SA?AV?$basic_string@_WU?$char_traits@_W@std@@V?$allocator@_W@2@@std@@PEB_W@Z@4HA 000000018002c440 f   FilePath.obj
 0001:0002b440       ?dtor$3@?0??NameValueToString@Helpers@@SA?AV?$basic_string@_WU?$char_traits@_W@std@@V?$allocator@_W@2@@std@@V23@0@Z@4HA 000000018002c440 f   Helpers.obj
 0001:0002b440       ?dtor$3@?0??GetJVMUserArgsFromConfig@Helpers@@SA?AV?$OrderedMap@V?$basic_string@_WU?$char_traits@_W@std@@V?$allocator@_W@2@@std@@V12@@@PEAVIPropertyContainer@@@Z@4HA 000000018002c440 f   Helpers.obj
 0001:0002b450       ?catch$0@?0??_Buynode0@?$_List_alloc@U?$_List_base_types@V?$basic_string@_WU?$char_traits@_W@std@@V?$allocator@_W@2@@std@@V?$allocator@V?$basic_string@_WU?$char_traits@_W@std@@V?$allocator@_W@2@@std@@@2@@std@@@std@@QEAAPEAU?$_List_node@V?$basic_string@_WU?$char_traits@_W@std@@V?$allocator@_W@2@@std@@PEAX@2@PEAU32@0@Z@4HA 000000018002c450 f   FilePath.obj
 0001:0002b45d       __catch$?_Buynode0@?$_List_alloc@U?$_List_base_types@V?$basic_string@_WU?$char_traits@_W@std@@V?$allocator@_W@2@@std@@V?$allocator@V?$basic_string@_WU?$char_traits@_W@std@@V?$allocator@_W@2@@std@@@2@@std@@@std@@QEAAPEAU?$_List_node@V?$basic_string@_WU?$char_traits@_W@std@@V?$allocator@_W@2@@std@@PEAX@2@PEAU32@0@Z$0 000000018002c45d f   FilePath.obj
 0001:0002b480       ?dtor$0@?0??GetSystemJVMLibraryFileName@WindowsPlatform@@UEAA?AV?$basic_string@_WU?$char_traits@_W@std@@V?$allocator@_W@2@@std@@XZ@4HA 000000018002c480 f   WindowsPlatform.obj
 0001:0002b480       ?dtor$0@?0???$?H_WU?$char_traits@_W@std@@V?$allocator@_W@1@@std@@YA?AV?$basic_string@_WU?$char_traits@_W@std@@V?$allocator@_W@2@@0@AEBV10@QEB_W@Z@4HA 000000018002c480 f   GenericPlatform.obj
 0001:0002b4b0       ?catch$3@?0???$_Buynode@U?$pair@$$CBV?$basic_string@_WU?$char_traits@_W@std@@V?$allocator@_W@2@@std@@V12@@std@@@?$_Tree_comp_alloc@V?$_Tmap_traits@V?$basic_string@_WU?$char_traits@_W@std@@V?$allocator@_W@2@@std@@V12@U?$less@V?$basic_string@_WU?$char_traits@_W@std@@V?$allocator@_W@2@@std@@@2@V?$allocator@U?$pair@$$CBV?$basic_string@_WU?$char_traits@_W@std@@V?$allocator@_W@2@@std@@V12@@std@@@2@$0A@@std@@@std@@QEAAPEAU?$_Tree_node@U?$pair@$$CBV?$basic_string@_WU?$char_traits@_W@std@@V?$allocator@_W@2@@std@@V12@@std@@PEAX@1@$$QEAU?$pair@$$CBV?$basic_string@_WU?$char_traits@_W@std@@V?$allocator@_W@2@@std@@V12@@1@@Z@4HA 000000018002c4b0 f   GenericPlatform.obj
 0001:0002b4bd       __catch$??$_Buynode@U?$pair@$$CBV?$basic_string@_WU?$char_traits@_W@std@@V?$allocator@_W@2@@std@@V12@@std@@@?$_Tree_comp_alloc@V?$_Tmap_traits@V?$basic_string@_WU?$char_traits@_W@std@@V?$allocator@_W@2@@std@@V12@U?$less@V?$basic_string@_WU?$char_traits@_W@std@@V?$allocator@_W@2@@std@@@2@V?$allocator@U?$pair@$$CBV?$basic_string@_WU?$char_traits@_W@std@@V?$allocator@_W@2@@std@@V12@@std@@@2@$0A@@std@@@std@@QEAAPEAU?$_Tree_node@U?$pair@$$CBV?$basic_string@_WU?$char_traits@_W@std@@V?$allocator@_W@2@@std@@V12@@std@@PEAX@1@$$QEAU?$pair@$$CBV?$basic_string@_WU?$char_traits@_W@std@@V?$allocator@_W@2@@std@@V12@@1@@Z$0 000000018002c4bd f   GenericPlatform.obj
 0001:0002b4e0       ?catch$1@?0???$_Buynode@V?$basic_string@_WU?$char_traits@_W@std@@V?$allocator@_W@2@@std@@@?$_List_buy@V?$basic_string@_WU?$char_traits@_W@std@@V?$allocator@_W@2@@std@@V?$allocator@V?$basic_string@_WU?$char_traits@_W@std@@V?$allocator@_W@2@@std@@@2@@std@@QEAAPEAU?$_List_node@V?$basic_string@_WU?$char_traits@_W@std@@V?$allocator@_W@2@@std@@PEAX@1@PEAU21@0$$QEAV?$basic_string@_WU?$char_traits@_W@std@@V?$allocator@_W@2@@1@@Z@4HA 000000018002c4e0 f   GenericPlatform.obj
 0001:0002b4ed       __catch$??$_Buynode@V?$basic_string@_WU?$char_traits@_W@std@@V?$allocator@_W@2@@std@@@?$_List_buy@V?$basic_string@_WU?$char_traits@_W@std@@V?$allocator@_W@2@@std@@V?$allocator@V?$basic_string@_WU?$char_traits@_W@std@@V?$allocator@_W@2@@std@@@2@@std@@QEAAPEAU?$_List_node@V?$basic_string@_WU?$char_traits@_W@std@@V?$allocator@_W@2@@std@@PEAX@1@PEAU21@0$$QEAV?$basic_string@_WU?$char_traits@_W@std@@V?$allocator@_W@2@@1@@Z$0 000000018002c4ed f   GenericPlatform.obj
 0001:0002b510       ?catch$0@?0???$_Insert_nohint@U?$pair@$$CBV?$basic_string@_WU?$char_traits@_W@std@@V?$allocator@_W@2@@std@@V12@@std@@U_Not_a_node_tag@2@@?$_Tree@V?$_Tmap_traits@V?$basic_string@_WU?$char_traits@_W@std@@V?$allocator@_W@2@@std@@V12@U?$less@V?$basic_string@_WU?$char_traits@_W@std@@V?$allocator@_W@2@@std@@@2@V?$allocator@U?$pair@$$CBV?$basic_string@_WU?$char_traits@_W@std@@V?$allocator@_W@2@@std@@V12@@std@@@2@$0A@@std@@@std@@IEAA?AU?$pair@V?$_Tree_iterator@V?$_Tree_val@U?$_Tree_simple_types@U?$pair@$$CBV?$basic_string@_WU?$char_traits@_W@std@@V?$allocator@_W@2@@std@@V12@@std@@@std@@@std@@@std@@_N@1@_N$$QEAU?$pair@$$CBV?$basic_string@_WU?$char_traits@_W@std@@V?$allocator@_W@2@@std@@V12@@1@U_Not_a_node_tag@1@@Z@4HA 000000018002c510 f   GenericPlatform.obj
 0001:0002b51d       __catch$??$_Insert_nohint@U?$pair@$$CBV?$basic_string@_WU?$char_traits@_W@std@@V?$allocator@_W@2@@std@@V12@@std@@U_Not_a_node_tag@2@@?$_Tree@V?$_Tmap_traits@V?$basic_string@_WU?$char_traits@_W@std@@V?$allocator@_W@2@@std@@V12@U?$less@V?$basic_string@_WU?$char_traits@_W@std@@V?$allocator@_W@2@@std@@@2@V?$allocator@U?$pair@$$CBV?$basic_string@_WU?$char_traits@_W@std@@V?$allocator@_W@2@@std@@V12@@std@@@2@$0A@@std@@@std@@IEAA?AU?$pair@V?$_Tree_iterator@V?$_Tree_val@U?$_Tree_simple_types@U?$pair@$$CBV?$basic_string@_WU?$char_traits@_W@std@@V?$allocator@_W@2@@std@@V12@@std@@@std@@@std@@@std@@_N@1@_N$$QEAU?$pair@$$CBV?$basic_string@_WU?$char_traits@_W@std@@V?$allocator@_W@2@@std@@V12@@1@U_Not_a_node_tag@1@@Z$0 000000018002c51d f   GenericPlatform.obj
 0001:0002b530       ?catch$4@?0???$_Insert_string@_WU?$char_traits@_W@std@@_K@std@@YAAEAV?$basic_ostream@_WU?$char_traits@_W@std@@@0@AEAV10@QEB_W_K@Z@4HA 000000018002c530 f   GenericPlatform.obj
 0001:0002b53d       __catch$??$_Insert_string@_WU?$char_traits@_W@std@@_K@std@@YAAEAV?$basic_ostream@_WU?$char_traits@_W@std@@@0@AEAV10@QEB_W_K@Z$0 000000018002c53d f   GenericPlatform.obj
 0001:0002b570       ?dtor$0@?0???$_Insert_string@_WU?$char_traits@_W@std@@_K@std@@YAAEAV?$basic_ostream@_WU?$char_traits@_W@std@@@0@AEAV10@QEB_W_K@Z@4HA 000000018002c570 f   GenericPlatform.obj
 0001:0002b580       ?dtor$1@?0???$_Insert_string@_WU?$char_traits@_W@std@@_K@std@@YAAEAV?$basic_ostream@_WU?$char_traits@_W@std@@@0@AEAV10@QEB_W_K@Z@4HA 000000018002c580 f   GenericPlatform.obj
 0001:0002b590       ?catch$4@?0???$getline@_WU?$char_traits@_W@std@@V?$allocator@_W@2@@std@@YAAEAV?$basic_istream@_WU?$char_traits@_W@std@@@0@$$QEAV10@AEAV?$basic_string@_WU?$char_traits@_W@std@@V?$allocator@_W@2@@0@_W@Z@4HA 000000018002c590 f   GenericPlatform.obj
 0001:0002b59d       __catch$??$getline@_WU?$char_traits@_W@std@@V?$allocator@_W@2@@std@@YAAEAV?$basic_istream@_WU?$char_traits@_W@std@@@0@$$QEAV10@AEAV?$basic_string@_WU?$char_traits@_W@std@@V?$allocator@_W@2@@0@_W@Z$0 000000018002c59d f   GenericPlatform.obj
 0001:0002b5d0       ?dtor$0@?0???$getline@_WU?$char_traits@_W@std@@V?$allocator@_W@2@@std@@YAAEAV?$basic_istream@_WU?$char_traits@_W@std@@@0@$$QEAV10@AEAV?$basic_string@_WU?$char_traits@_W@std@@V?$allocator@_W@2@@0@_W@Z@4HA 000000018002c5d0 f   GenericPlatform.obj
 0001:0002b5e0       ?dtor$1@?0???$getline@_WU?$char_traits@_W@std@@V?$allocator@_W@2@@std@@YAAEAV?$basic_istream@_WU?$char_traits@_W@std@@@0@$$QEAV10@AEAV?$basic_string@_WU?$char_traits@_W@std@@V?$allocator@_W@2@@0@_W@Z@4HA 000000018002c5e0 f   GenericPlatform.obj
 0001:0002b5f0       ?dtor$0@?0???$use_facet@V?$ctype@_W@std@@@std@@YAAEBV?$ctype@_W@0@AEBVlocale@0@@Z@4HA 000000018002c5f0 f   WindowsPlatform.obj
 0001:0002b5f0       ?dtor$0@?0???$use_facet@V?$codecvt@_WDU_Mbstatet@@@std@@@std@@YAAEBV?$codecvt@_WDU_Mbstatet@@@0@AEBVlocale@0@@Z@4HA 000000018002c5f0 f   GenericPlatform.obj
 0001:0002b600       ?dtor$1@?0???$use_facet@V?$codecvt@_WDU_Mbstatet@@@std@@@std@@YAAEBV?$codecvt@_WDU_Mbstatet@@@0@AEBVlocale@0@@Z@4HA 000000018002c600 f   GenericPlatform.obj
 0001:0002b600       ?dtor$1@?0???$use_facet@V?$ctype@_W@std@@@std@@YAAEBV?$ctype@_W@0@AEBVlocale@0@@Z@4HA 000000018002c600 f   WindowsPlatform.obj
 0001:0002b610       ?dtor$4@?0??ConvertIdToJavaPath@Helpers@@SA?AV?$basic_string@_WU?$char_traits@_W@std@@V?$allocator@_W@2@@std@@V23@@Z@4HA 000000018002c610 f   Helpers.obj
 0001:0002b610       ?dtor$0@?0??GetAppName@GenericPlatform@@UEAA?AV?$basic_string@_WU?$char_traits@_W@std@@V?$allocator@_W@2@@std@@XZ@4HA 000000018002c610 f   GenericPlatform.obj
 0001:0002b610       ?dtor$1@?0??GetMessageW@Messages@@QEAA?AV?$basic_string@_WU?$char_traits@_W@std@@V?$allocator@_W@2@@std@@V23@@Z@4HA 000000018002c610 f   Messages.obj
 0001:0002b640       ?dtor$0@?0??GetConfigFileName@GenericPlatform@@UEAA?AV?$basic_string@_WU?$char_traits@_W@std@@V?$allocator@_W@2@@std@@XZ@4HA 000000018002c640 f   GenericPlatform.obj
 0001:0002b670       ?dtor$3@?0??GetImportsSection@WindowsLibrary@@CA?AV?$vector@V?$basic_string@_WU?$char_traits@_W@std@@V?$allocator@_W@2@@std@@V?$allocator@V?$basic_string@_WU?$char_traits@_W@std@@V?$allocator@_W@2@@std@@@2@@std@@KPEAU_IMAGE_NT_HEADERS64@@@Z@4HA 000000018002c670 f   WindowsPlatform.obj
 0001:0002b670       ?dtor$1@?0???0JavaStringArray@@QEAA@PEAUJNIEnv_@@V?$list@V?$basic_string@_WU?$char_traits@_W@std@@V?$allocator@_W@2@@std@@V?$allocator@V?$basic_string@_WU?$char_traits@_W@std@@V?$allocator@_W@2@@std@@@2@@std@@@Z@4HA 000000018002c670 f   Java.obj
 0001:0002b670       ?dtor$4@?0??MapToNameValueList@Helpers@@SA?AV?$list@V?$basic_string@_WU?$char_traits@_W@std@@V?$allocator@_W@2@@std@@V?$allocator@V?$basic_string@_WU?$char_traits@_W@std@@V?$allocator@_W@2@@std@@@2@@std@@V?$OrderedMap@V?$basic_string@_WU?$char_traits@_W@std@@V?$allocator@_W@2@@std@@V12@@@@Z@4HA 000000018002c670 f   Helpers.obj
 0001:0002b670       ?dtor$1@?0??GetAppCDSCacheDirectory@Package@@QEAA?AV?$basic_string@_WU?$char_traits@_W@std@@V?$allocator@_W@2@@std@@XZ@4HA 000000018002c670 f   Package.obj
 0001:0002b670       ?dtor$1@?0??GetConfigFileName@GenericPlatform@@UEAA?AV?$basic_string@_WU?$char_traits@_W@std@@V?$allocator@_W@2@@std@@XZ@4HA 000000018002c670 f   GenericPlatform.obj
 0001:0002b680       ?dtor$4@?0??GetConfigFileName@GenericPlatform@@UEAA?AV?$basic_string@_WU?$char_traits@_W@std@@V?$allocator@_W@2@@std@@XZ@4HA 000000018002c680 f   GenericPlatform.obj
 0001:0002b680       ?dtor$4@?0??GetJVMUserArgsConfigFileName@Package@@QEAA?AV?$basic_string@_WU?$char_traits@_W@std@@V?$allocator@_W@2@@std@@XZ@4HA 000000018002c680 f   Package.obj
 0001:0002b680       ?dtor$1@?0??AppendToIni@@YAXAEAVPropertyFile@@PEAVIniFile@@V?$basic_string@_WU?$char_traits@_W@std@@V?$allocator@_W@2@@std@@@Z@4HA 000000018002c680 f   Helpers.obj
 0001:0002b680       ?dtor$3@?0??GetAppCDSCacheDirectory@Package@@QEAA?AV?$basic_string@_WU?$char_traits@_W@std@@V?$allocator@_W@2@@std@@XZ@4HA 000000018002c680 f   Package.obj
 0001:0002b680       ?dtor$4@?0??GetKeysThatAreNotDuplicates@@YA?AV?$vector@V?$basic_string@_WU?$char_traits@_W@std@@V?$allocator@_W@2@@std@@V?$allocator@V?$basic_string@_WU?$char_traits@_W@std@@V?$allocator@_W@2@@std@@@2@@std@@AEAV?$OrderedMap@V?$basic_string@_WU?$char_traits@_W@std@@V?$allocator@_W@2@@std@@V12@@@0@Z@4HA 000000018002c680 f   Package.obj
 0001:0002b680       ?dtor$6@?0??MapToNameValueList@Helpers@@SA?AV?$list@V?$basic_string@_WU?$char_traits@_W@std@@V?$allocator@_W@2@@std@@V?$allocator@V?$basic_string@_WU?$char_traits@_W@std@@V?$allocator@_W@2@@std@@@2@@std@@V?$OrderedMap@V?$basic_string@_WU?$char_traits@_W@std@@V?$allocator@_W@2@@std@@V12@@@@Z@4HA 000000018002c680 f   Helpers.obj
 0001:0002b690       ?dtor$14@?0??GetBundledJVMLibraryFileName@WindowsPlatform@@UEAA?AV?$basic_string@_WU?$char_traits@_W@std@@V?$allocator@_W@2@@std@@V23@@Z@4HA 000000018002c690 f   WindowsPlatform.obj
 0001:0002b690       ?dtor$5@?0??GetJVMUserArgsConfigFileName@Package@@QEAA?AV?$basic_string@_WU?$char_traits@_W@std@@V?$allocator@_W@2@@std@@XZ@4HA 000000018002c690 f   Package.obj
 0001:0002b690       ?dtor$10@?0??GetBundledJVMLibraryFileName@WindowsPlatform@@UEAA?AV?$basic_string@_WU?$char_traits@_W@std@@V?$allocator@_W@2@@std@@V23@@Z@4HA 000000018002c690 f   WindowsPlatform.obj
 0001:0002b690       ?dtor$6@?0??GetBundledJVMLibraryFileName@WindowsPlatform@@UEAA?AV?$basic_string@_WU?$char_traits@_W@std@@V?$allocator@_W@2@@std@@V23@@Z@4HA 000000018002c690 f   WindowsPlatform.obj
 0001:0002b690       ?dtor$4@?0??GetAppCDSCacheDirectory@Package@@QEAA?AV?$basic_string@_WU?$char_traits@_W@std@@V?$allocator@_W@2@@std@@XZ@4HA 000000018002c690 f   Package.obj
 0001:0002b690       ?dtor$2@?0??GetKeysThatAreNotDuplicates@@YA?AV?$vector@V?$basic_string@_WU?$char_traits@_W@std@@V?$allocator@_W@2@@std@@V?$allocator@V?$basic_string@_WU?$char_traits@_W@std@@V?$allocator@_W@2@@std@@@2@@std@@AEAV?$OrderedMap@V?$basic_string@_WU?$char_traits@_W@std@@V?$allocator@_W@2@@std@@V12@@@0@Z@4HA 000000018002c690 f   Package.obj
 0001:0002b690       ?dtor$5@?0??GetConfigFileName@GenericPlatform@@UEAA?AV?$basic_string@_WU?$char_traits@_W@std@@V?$allocator@_W@2@@std@@XZ@4HA 000000018002c690 f   GenericPlatform.obj
 0001:0002b6a0       ?dtor$2@?0??GetBundledJVMLibraryFileName@WindowsPlatform@@UEAA?AV?$basic_string@_WU?$char_traits@_W@std@@V?$allocator@_W@2@@std@@V23@@Z@4HA 000000018002c6a0 f   WindowsPlatform.obj
 0001:0002b6a0       ?dtor$6@?0??GetJVMUserArgsConfigFileName@Package@@QEAA?AV?$basic_string@_WU?$char_traits@_W@std@@V?$allocator@_W@2@@std@@XZ@4HA 000000018002c6a0 f   Package.obj
 0001:0002b6a0       ?dtor$3@?0??MapToNameValueList@Helpers@@SA?AV?$list@V?$basic_string@_WU?$char_traits@_W@std@@V?$allocator@_W@2@@std@@V?$allocator@V?$basic_string@_WU?$char_traits@_W@std@@V?$allocator@_W@2@@std@@@2@@std@@V?$OrderedMap@V?$basic_string@_WU?$char_traits@_W@std@@V?$allocator@_W@2@@std@@V12@@@@Z@4HA 000000018002c6a0 f   Helpers.obj
 0001:0002b6a0       ?dtor$1@?0??GetJVMLibraryFileName@Package@@QEAA?AV?$basic_string@_WU?$char_traits@_W@std@@V?$allocator@_W@2@@std@@XZ@4HA 000000018002c6a0 f   Package.obj
 0001:0002b6a0       ?dtor$6@?0??GetConfigFileName@GenericPlatform@@UEAA?AV?$basic_string@_WU?$char_traits@_W@std@@V?$allocator@_W@2@@std@@XZ@4HA 000000018002c6a0 f   GenericPlatform.obj
 0001:0002b6a0       ?dtor$2@?0??GetKeys@Registry@@QEAA?AV?$list@V?$basic_string@_WU?$char_traits@_W@std@@V?$allocator@_W@2@@std@@V?$allocator@V?$basic_string@_WU?$char_traits@_W@std@@V?$allocator@_W@2@@std@@@2@@std@@XZ@4HA 000000018002c6a0 f   WindowsPlatform.obj
 0001:0002b6a0       ?dtor$3@?0??ExpandMacros@Macros@@QEAA?AV?$basic_string@_WU?$char_traits@_W@std@@V?$allocator@_W@2@@std@@V23@@Z@4HA 000000018002c6a0 f   Macros.obj
 0001:0002b6b0       ?dtor$27@?0??GetConfigFileName@GenericPlatform@@UEAA?AV?$basic_string@_WU?$char_traits@_W@std@@V?$allocator@_W@2@@std@@XZ@4HA 000000018002c6b0 f   GenericPlatform.obj
 0001:0002b6e0       ?dtor$0@?0??GetKeys@GenericPlatform@@UEAA?AV?$map@V?$basic_string@_WU?$char_traits@_W@std@@V?$allocator@_W@2@@std@@V12@U?$less@V?$basic_string@_WU?$char_traits@_W@std@@V?$allocator@_W@2@@std@@@2@V?$allocator@U?$pair@$$CBV?$basic_string@_WU?$char_traits@_W@std@@V?$allocator@_W@2@@std@@V12@@std@@@2@@std@@XZ@4HA 000000018002c6e0 f   GenericPlatform.obj
 0001:0002b710       ?dtor$6@?0??GetKeys@GenericPlatform@@UEAA?AV?$map@V?$basic_string@_WU?$char_traits@_W@std@@V?$allocator@_W@2@@std@@V12@U?$less@V?$basic_string@_WU?$char_traits@_W@std@@V?$allocator@_W@2@@std@@@2@V?$allocator@U?$pair@$$CBV?$basic_string@_WU?$char_traits@_W@std@@V?$allocator@_W@2@@std@@V12@@std@@@2@@std@@XZ@4HA 000000018002c710 f   GenericPlatform.obj
 0001:0002b710       ?dtor$8@?0??GetKeys@GenericPlatform@@UEAA?AV?$map@V?$basic_string@_WU?$char_traits@_W@std@@V?$allocator@_W@2@@std@@V12@U?$less@V?$basic_string@_WU?$char_traits@_W@std@@V?$allocator@_W@2@@std@@@2@V?$allocator@U?$pair@$$CBV?$basic_string@_WU?$char_traits@_W@std@@V?$allocator@_W@2@@std@@V12@@std@@@2@@std@@XZ@4HA 000000018002c710 f   GenericPlatform.obj
 0001:0002b710       ?dtor$10@?0??GetKeys@GenericPlatform@@UEAA?AV?$map@V?$basic_string@_WU?$char_traits@_W@std@@V?$allocator@_W@2@@std@@V12@U?$less@V?$basic_string@_WU?$char_traits@_W@std@@V?$allocator@_W@2@@std@@@2@V?$allocator@U?$pair@$$CBV?$basic_string@_WU?$char_traits@_W@std@@V?$allocator@_W@2@@std@@V12@@std@@@2@@std@@XZ@4HA 000000018002c710 f   GenericPlatform.obj
 0001:0002b710       ?dtor$5@?0??GetKeys@GenericPlatform@@UEAA?AV?$map@V?$basic_string@_WU?$char_traits@_W@std@@V?$allocator@_W@2@@std@@V12@U?$less@V?$basic_string@_WU?$char_traits@_W@std@@V?$allocator@_W@2@@std@@@2@V?$allocator@U?$pair@$$CBV?$basic_string@_WU?$char_traits@_W@std@@V?$allocator@_W@2@@std@@V12@@std@@@2@@std@@XZ@4HA 000000018002c710 f   GenericPlatform.obj
 0001:0002b710       ?dtor$11@?0??GetKeys@GenericPlatform@@UEAA?AV?$map@V?$basic_string@_WU?$char_traits@_W@std@@V?$allocator@_W@2@@std@@V12@U?$less@V?$basic_string@_WU?$char_traits@_W@std@@V?$allocator@_W@2@@std@@@2@V?$allocator@U?$pair@$$CBV?$basic_string@_WU?$char_traits@_W@std@@V?$allocator@_W@2@@std@@V12@@std@@@2@@std@@XZ@4HA 000000018002c710 f   GenericPlatform.obj
 0001:0002b710       ?dtor$12@?0??GetKeys@GenericPlatform@@UEAA?AV?$map@V?$basic_string@_WU?$char_traits@_W@std@@V?$allocator@_W@2@@std@@V12@U?$less@V?$basic_string@_WU?$char_traits@_W@std@@V?$allocator@_W@2@@std@@@2@V?$allocator@U?$pair@$$CBV?$basic_string@_WU?$char_traits@_W@std@@V?$allocator@_W@2@@std@@V12@@std@@@2@@std@@XZ@4HA 000000018002c710 f   GenericPlatform.obj
 0001:0002b710       ?dtor$13@?0??GetKeys@GenericPlatform@@UEAA?AV?$map@V?$basic_string@_WU?$char_traits@_W@std@@V?$allocator@_W@2@@std@@V12@U?$less@V?$basic_string@_WU?$char_traits@_W@std@@V?$allocator@_W@2@@std@@@2@V?$allocator@U?$pair@$$CBV?$basic_string@_WU?$char_traits@_W@std@@V?$allocator@_W@2@@std@@V12@@std@@@2@@std@@XZ@4HA 000000018002c710 f   GenericPlatform.obj
 0001:0002b710       ?dtor$4@?0??GetKeys@GenericPlatform@@UEAA?AV?$map@V?$basic_string@_WU?$char_traits@_W@std@@V?$allocator@_W@2@@std@@V12@U?$less@V?$basic_string@_WU?$char_traits@_W@std@@V?$allocator@_W@2@@std@@@2@V?$allocator@U?$pair@$$CBV?$basic_string@_WU?$char_traits@_W@std@@V?$allocator@_W@2@@std@@V12@@std@@@2@@std@@XZ@4HA 000000018002c710 f   GenericPlatform.obj
 0001:0002b710       ?dtor$14@?0??GetKeys@GenericPlatform@@UEAA?AV?$map@V?$basic_string@_WU?$char_traits@_W@std@@V?$allocator@_W@2@@std@@V12@U?$less@V?$basic_string@_WU?$char_traits@_W@std@@V?$allocator@_W@2@@std@@@2@V?$allocator@U?$pair@$$CBV?$basic_string@_WU?$char_traits@_W@std@@V?$allocator@_W@2@@std@@V12@@std@@@2@@std@@XZ@4HA 000000018002c710 f   GenericPlatform.obj
 0001:0002b710       ?dtor$3@?0??GetKeys@GenericPlatform@@UEAA?AV?$map@V?$basic_string@_WU?$char_traits@_W@std@@V?$allocator@_W@2@@std@@V12@U?$less@V?$basic_string@_WU?$char_traits@_W@std@@V?$allocator@_W@2@@std@@@2@V?$allocator@U?$pair@$$CBV?$basic_string@_WU?$char_traits@_W@std@@V?$allocator@_W@2@@std@@V12@@std@@@2@@std@@XZ@4HA 000000018002c710 f   GenericPlatform.obj
 0001:0002b710       ?dtor$15@?0??GetKeys@GenericPlatform@@UEAA?AV?$map@V?$basic_string@_WU?$char_traits@_W@std@@V?$allocator@_W@2@@std@@V12@U?$less@V?$basic_string@_WU?$char_traits@_W@std@@V?$allocator@_W@2@@std@@@2@V?$allocator@U?$pair@$$CBV?$basic_string@_WU?$char_traits@_W@std@@V?$allocator@_W@2@@std@@V12@@std@@@2@@std@@XZ@4HA 000000018002c710 f   GenericPlatform.obj
 0001:0002b710       ?dtor$2@?0??GetKeys@GenericPlatform@@UEAA?AV?$map@V?$basic_string@_WU?$char_traits@_W@std@@V?$allocator@_W@2@@std@@V12@U?$less@V?$basic_string@_WU?$char_traits@_W@std@@V?$allocator@_W@2@@std@@@2@V?$allocator@U?$pair@$$CBV?$basic_string@_WU?$char_traits@_W@std@@V?$allocator@_W@2@@std@@V12@@std@@@2@@std@@XZ@4HA 000000018002c710 f   GenericPlatform.obj
 0001:0002b710       ?dtor$16@?0??GetKeys@GenericPlatform@@UEAA?AV?$map@V?$basic_string@_WU?$char_traits@_W@std@@V?$allocator@_W@2@@std@@V12@U?$less@V?$basic_string@_WU?$char_traits@_W@std@@V?$allocator@_W@2@@std@@@2@V?$allocator@U?$pair@$$CBV?$basic_string@_WU?$char_traits@_W@std@@V?$allocator@_W@2@@std@@V12@@std@@@2@@std@@XZ@4HA 000000018002c710 f   GenericPlatform.obj
 0001:0002b710       ?dtor$2@?0??AddMacro@Macros@@QEAAXV?$basic_string@_WU?$char_traits@_W@std@@V?$allocator@_W@2@@std@@0@Z@4HA 000000018002c710 f   Macros.obj
 0001:0002b710       ?dtor$17@?0??GetKeys@GenericPlatform@@UEAA?AV?$map@V?$basic_string@_WU?$char_traits@_W@std@@V?$allocator@_W@2@@std@@V12@U?$less@V?$basic_string@_WU?$char_traits@_W@std@@V?$allocator@_W@2@@std@@@2@V?$allocator@U?$pair@$$CBV?$basic_string@_WU?$char_traits@_W@std@@V?$allocator@_W@2@@std@@V12@@std@@@2@@std@@XZ@4HA 000000018002c710 f   GenericPlatform.obj
 0001:0002b710       ?dtor$9@?0??GetKeys@GenericPlatform@@UEAA?AV?$map@V?$basic_string@_WU?$char_traits@_W@std@@V?$allocator@_W@2@@std@@V12@U?$less@V?$basic_string@_WU?$char_traits@_W@std@@V?$allocator@_W@2@@std@@@2@V?$allocator@U?$pair@$$CBV?$basic_string@_WU?$char_traits@_W@std@@V?$allocator@_W@2@@std@@V12@@std@@@2@@std@@XZ@4HA 000000018002c710 f   GenericPlatform.obj
 0001:0002b710       ?dtor$1@?0??GetKeys@GenericPlatform@@UEAA?AV?$map@V?$basic_string@_WU?$char_traits@_W@std@@V?$allocator@_W@2@@std@@V12@U?$less@V?$basic_string@_WU?$char_traits@_W@std@@V?$allocator@_W@2@@std@@@2@V?$allocator@U?$pair@$$CBV?$basic_string@_WU?$char_traits@_W@std@@V?$allocator@_W@2@@std@@V12@@std@@@2@@std@@XZ@4HA 000000018002c710 f   GenericPlatform.obj
 0001:0002b710       ?dtor$7@?0??GetKeys@GenericPlatform@@UEAA?AV?$map@V?$basic_string@_WU?$char_traits@_W@std@@V?$allocator@_W@2@@std@@V12@U?$less@V?$basic_string@_WU?$char_traits@_W@std@@V?$allocator@_W@2@@std@@@2@V?$allocator@U?$pair@$$CBV?$basic_string@_WU?$char_traits@_W@std@@V?$allocator@_W@2@@std@@V12@@std@@@2@@std@@XZ@4HA 000000018002c710 f   GenericPlatform.obj
 0001:0002b720       ?dtor$3@?0??GetArgsFromConfig@Helpers@@SA?AV?$list@V?$basic_string@_WU?$char_traits@_W@std@@V?$allocator@_W@2@@std@@V?$allocator@V?$basic_string@_WU?$char_traits@_W@std@@V?$allocator@_W@2@@std@@@2@@std@@PEAVIPropertyContainer@@@Z@4HA 000000018002c720 f   Helpers.obj
 0001:0002b720       ?dtor$185@?0??GetKeys@GenericPlatform@@UEAA?AV?$map@V?$basic_string@_WU?$char_traits@_W@std@@V?$allocator@_W@2@@std@@V12@U?$less@V?$basic_string@_WU?$char_traits@_W@std@@V?$allocator@_W@2@@std@@@2@V?$allocator@U?$pair@$$CBV?$basic_string@_WU?$char_traits@_W@std@@V?$allocator@_W@2@@std@@V12@@std@@@2@@std@@XZ@4HA 000000018002c720 f   GenericPlatform.obj
 0001:0002b720       ?dtor$97@?0??GetKeys@GenericPlatform@@UEAA?AV?$map@V?$basic_string@_WU?$char_traits@_W@std@@V?$allocator@_W@2@@std@@V12@U?$less@V?$basic_string@_WU?$char_traits@_W@std@@V?$allocator@_W@2@@std@@@2@V?$allocator@U?$pair@$$CBV?$basic_string@_WU?$char_traits@_W@std@@V?$allocator@_W@2@@std@@V12@@std@@@2@@std@@XZ@4HA 000000018002c720 f   GenericPlatform.obj
 0001:0002b720       ?dtor$130@?0??GetKeys@GenericPlatform@@UEAA?AV?$map@V?$basic_string@_WU?$char_traits@_W@std@@V?$allocator@_W@2@@std@@V12@U?$less@V?$basic_string@_WU?$char_traits@_W@std@@V?$allocator@_W@2@@std@@@2@V?$allocator@U?$pair@$$CBV?$basic_string@_WU?$char_traits@_W@std@@V?$allocator@_W@2@@std@@V12@@std@@@2@@std@@XZ@4HA 000000018002c720 f   GenericPlatform.obj
 0001:0002b720       ?dtor$20@?0??GetKeys@GenericPlatform@@UEAA?AV?$map@V?$basic_string@_WU?$char_traits@_W@std@@V?$allocator@_W@2@@std@@V12@U?$less@V?$basic_string@_WU?$char_traits@_W@std@@V?$allocator@_W@2@@std@@@2@V?$allocator@U?$pair@$$CBV?$basic_string@_WU?$char_traits@_W@std@@V?$allocator@_W@2@@std@@V12@@std@@@2@@std@@XZ@4HA 000000018002c720 f   GenericPlatform.obj
 0001:0002b720       ?dtor$174@?0??GetKeys@GenericPlatform@@UEAA?AV?$map@V?$basic_string@_WU?$char_traits@_W@std@@V?$allocator@_W@2@@std@@V12@U?$less@V?$basic_string@_WU?$char_traits@_W@std@@V?$allocator@_W@2@@std@@@2@V?$allocator@U?$pair@$$CBV?$basic_string@_WU?$char_traits@_W@std@@V?$allocator@_W@2@@std@@V12@@std@@@2@@std@@XZ@4HA 000000018002c720 f   GenericPlatform.obj
 0001:0002b720       ?dtor$163@?0??GetKeys@GenericPlatform@@UEAA?AV?$map@V?$basic_string@_WU?$char_traits@_W@std@@V?$allocator@_W@2@@std@@V12@U?$less@V?$basic_string@_WU?$char_traits@_W@std@@V?$allocator@_W@2@@std@@@2@V?$allocator@U?$pair@$$CBV?$basic_string@_WU?$char_traits@_W@std@@V?$allocator@_W@2@@std@@V12@@std@@@2@@std@@XZ@4HA 000000018002c720 f   GenericPlatform.obj
 0001:0002b720       ?dtor$31@?0??GetKeys@GenericPlatform@@UEAA?AV?$map@V?$basic_string@_WU?$char_traits@_W@std@@V?$allocator@_W@2@@std@@V12@U?$less@V?$basic_string@_WU?$char_traits@_W@std@@V?$allocator@_W@2@@std@@@2@V?$allocator@U?$pair@$$CBV?$basic_string@_WU?$char_traits@_W@std@@V?$allocator@_W@2@@std@@V12@@std@@@2@@std@@XZ@4HA 000000018002c720 f   GenericPlatform.obj
 0001:0002b720       ?dtor$152@?0??GetKeys@GenericPlatform@@UEAA?AV?$map@V?$basic_string@_WU?$char_traits@_W@std@@V?$allocator@_W@2@@std@@V12@U?$less@V?$basic_string@_WU?$char_traits@_W@std@@V?$allocator@_W@2@@std@@@2@V?$allocator@U?$pair@$$CBV?$basic_string@_WU?$char_traits@_W@std@@V?$allocator@_W@2@@std@@V12@@std@@@2@@std@@XZ@4HA 000000018002c720 f   GenericPlatform.obj
 0001:0002b720       ?dtor$42@?0??GetKeys@GenericPlatform@@UEAA?AV?$map@V?$basic_string@_WU?$char_traits@_W@std@@V?$allocator@_W@2@@std@@V12@U?$less@V?$basic_string@_WU?$char_traits@_W@std@@V?$allocator@_W@2@@std@@@2@V?$allocator@U?$pair@$$CBV?$basic_string@_WU?$char_traits@_W@std@@V?$allocator@_W@2@@std@@V12@@std@@@2@@std@@XZ@4HA 000000018002c720 f   GenericPlatform.obj
 0001:0002b720       ?dtor$141@?0??GetKeys@GenericPlatform@@UEAA?AV?$map@V?$basic_string@_WU?$char_traits@_W@std@@V?$allocator@_W@2@@std@@V12@U?$less@V?$basic_string@_WU?$char_traits@_W@std@@V?$allocator@_W@2@@std@@@2@V?$allocator@U?$pair@$$CBV?$basic_string@_WU?$char_traits@_W@std@@V?$allocator@_W@2@@std@@V12@@std@@@2@@std@@XZ@4HA 000000018002c720 f   GenericPlatform.obj
 0001:0002b720       ?dtor$53@?0??GetKeys@GenericPlatform@@UEAA?AV?$map@V?$basic_string@_WU?$char_traits@_W@std@@V?$allocator@_W@2@@std@@V12@U?$less@V?$basic_string@_WU?$char_traits@_W@std@@V?$allocator@_W@2@@std@@@2@V?$allocator@U?$pair@$$CBV?$basic_string@_WU?$char_traits@_W@std@@V?$allocator@_W@2@@std@@V12@@std@@@2@@std@@XZ@4HA 000000018002c720 f   GenericPlatform.obj
 0001:0002b720       ?dtor$119@?0??GetKeys@GenericPlatform@@UEAA?AV?$map@V?$basic_string@_WU?$char_traits@_W@std@@V?$allocator@_W@2@@std@@V12@U?$less@V?$basic_string@_WU?$char_traits@_W@std@@V?$allocator@_W@2@@std@@@2@V?$allocator@U?$pair@$$CBV?$basic_string@_WU?$char_traits@_W@std@@V?$allocator@_W@2@@std@@V12@@std@@@2@@std@@XZ@4HA 000000018002c720 f   GenericPlatform.obj
 0001:0002b720       ?dtor$108@?0??GetKeys@GenericPlatform@@UEAA?AV?$map@V?$basic_string@_WU?$char_traits@_W@std@@V?$allocator@_W@2@@std@@V12@U?$less@V?$basic_string@_WU?$char_traits@_W@std@@V?$allocator@_W@2@@std@@@2@V?$allocator@U?$pair@$$CBV?$basic_string@_WU?$char_traits@_W@std@@V?$allocator@_W@2@@std@@V12@@std@@@2@@std@@XZ@4HA 000000018002c720 f   GenericPlatform.obj
 0001:0002b720       ?dtor$64@?0??GetKeys@GenericPlatform@@UEAA?AV?$map@V?$basic_string@_WU?$char_traits@_W@std@@V?$allocator@_W@2@@std@@V12@U?$less@V?$basic_string@_WU?$char_traits@_W@std@@V?$allocator@_W@2@@std@@@2@V?$allocator@U?$pair@$$CBV?$basic_string@_WU?$char_traits@_W@std@@V?$allocator@_W@2@@std@@V12@@std@@@2@@std@@XZ@4HA 000000018002c720 f   GenericPlatform.obj
 0001:0002b720       ?dtor$1@?0??GetSystemJVMLibraryFileName@WindowsPlatform@@UEAA?AV?$basic_string@_WU?$char_traits@_W@std@@V?$allocator@_W@2@@std@@XZ@4HA 000000018002c720 f   WindowsPlatform.obj
 0001:0002b720       ?dtor$3@?0??AddMacro@Macros@@QEAAXV?$basic_string@_WU?$char_traits@_W@std@@V?$allocator@_W@2@@std@@0@Z@4HA 000000018002c720 f   Macros.obj
 0001:0002b720       ?dtor$75@?0??GetKeys@GenericPlatform@@UEAA?AV?$map@V?$basic_string@_WU?$char_traits@_W@std@@V?$allocator@_W@2@@std@@V12@U?$less@V?$basic_string@_WU?$char_traits@_W@std@@V?$allocator@_W@2@@std@@@2@V?$allocator@U?$pair@$$CBV?$basic_string@_WU?$char_traits@_W@std@@V?$allocator@_W@2@@std@@V12@@std@@@2@@std@@XZ@4HA 000000018002c720 f   GenericPlatform.obj
 0001:0002b720       ?dtor$196@?0??GetKeys@GenericPlatform@@UEAA?AV?$map@V?$basic_string@_WU?$char_traits@_W@std@@V?$allocator@_W@2@@std@@V12@U?$less@V?$basic_string@_WU?$char_traits@_W@std@@V?$allocator@_W@2@@std@@@2@V?$allocator@U?$pair@$$CBV?$basic_string@_WU?$char_traits@_W@std@@V?$allocator@_W@2@@std@@V12@@std@@@2@@std@@XZ@4HA 000000018002c720 f   GenericPlatform.obj
 0001:0002b720       ?dtor$86@?0??GetKeys@GenericPlatform@@UEAA?AV?$map@V?$basic_string@_WU?$char_traits@_W@std@@V?$allocator@_W@2@@std@@V12@U?$less@V?$basic_string@_WU?$char_traits@_W@std@@V?$allocator@_W@2@@std@@@2@V?$allocator@U?$pair@$$CBV?$basic_string@_WU?$char_traits@_W@std@@V?$allocator@_W@2@@std@@V12@@std@@@2@@std@@XZ@4HA 000000018002c720 f   GenericPlatform.obj
 0001:0002b730       ?dtor$2@?0??ExpandMacros@Macros@@QEAA?AV?$basic_string@_WU?$char_traits@_W@std@@V?$allocator@_W@2@@std@@V23@@Z@4HA 000000018002c730 f   Macros.obj
 0001:0002b730       ?dtor$1@?0??GetPackageAppDirectory@GenericPlatform@@UEAA?AV?$basic_string@_WU?$char_traits@_W@std@@V?$allocator@_W@2@@std@@XZ@4HA 000000018002c730 f   GenericPlatform.obj
 0001:0002b730       ?dtor$0@?0??GetPackageRootDirectory@WindowsPlatform@@UEAA?AV?$basic_string@_WU?$char_traits@_W@std@@V?$allocator@_W@2@@std@@XZ@4HA 000000018002c730 f   WindowsPlatform.obj
 0001:0002b740       ?dtor$0@?0??LoadFromFile@GenericPlatform@@UEAA?AV?$list@V?$basic_string@_WU?$char_traits@_W@std@@V?$allocator@_W@2@@std@@V?$allocator@V?$basic_string@_WU?$char_traits@_W@std@@V?$allocator@_W@2@@std@@@2@@std@@V?$basic_string@_WU?$char_traits@_W@std@@V?$allocator@_W@2@@3@@Z@4HA 000000018002c740 f   GenericPlatform.obj
 0001:0002b740       ?dtor$1@?0??SaveToFile@GenericPlatform@@UEAAXV?$basic_string@_WU?$char_traits@_W@std@@V?$allocator@_W@2@@std@@V?$list@V?$basic_string@_WU?$char_traits@_W@std@@V?$allocator@_W@2@@std@@V?$allocator@V?$basic_string@_WU?$char_traits@_W@std@@V?$allocator@_W@2@@std@@@2@@3@_N@Z@4HA 000000018002c740 f   GenericPlatform.obj
 0001:0002b750       ?dtor$1@?0??LoadFromFile@GenericPlatform@@UEAA?AV?$list@V?$basic_string@_WU?$char_traits@_W@std@@V?$allocator@_W@2@@std@@V?$allocator@V?$basic_string@_WU?$char_traits@_W@std@@V?$allocator@_W@2@@std@@@2@@std@@V?$basic_string@_WU?$char_traits@_W@std@@V?$allocator@_W@2@@3@@Z@4HA 000000018002c750 f   GenericPlatform.obj
 0001:0002b780       ?dtor$3@?0??LoadFromFile@GenericPlatform@@UEAA?AV?$list@V?$basic_string@_WU?$char_traits@_W@std@@V?$allocator@_W@2@@std@@V?$allocator@V?$basic_string@_WU?$char_traits@_W@std@@V?$allocator@_W@2@@std@@@2@@std@@V?$basic_string@_WU?$char_traits@_W@std@@V?$allocator@_W@2@@3@@Z@4HA 000000018002c780 f   GenericPlatform.obj
 0001:0002b790       ?dtor$4@?0??LoadFromFile@GenericPlatform@@UEAA?AV?$list@V?$basic_string@_WU?$char_traits@_W@std@@V?$allocator@_W@2@@std@@V?$allocator@V?$basic_string@_WU?$char_traits@_W@std@@V?$allocator@_W@2@@std@@@2@@std@@V?$basic_string@_WU?$char_traits@_W@std@@V?$allocator@_W@2@@3@@Z@4HA 000000018002c790 f   GenericPlatform.obj
 0001:0002b790       ?dtor$8@?0??SaveToFile@GenericPlatform@@UEAAXV?$basic_string@_WU?$char_traits@_W@std@@V?$allocator@_W@2@@std@@V?$list@V?$basic_string@_WU?$char_traits@_W@std@@V?$allocator@_W@2@@std@@V?$allocator@V?$basic_string@_WU?$char_traits@_W@std@@V?$allocator@_W@2@@std@@@2@@3@_N@Z@4HA 000000018002c790 f   GenericPlatform.obj
 0001:0002b7a0       ?dtor$5@?0??LoadFromFile@GenericPlatform@@UEAA?AV?$list@V?$basic_string@_WU?$char_traits@_W@std@@V?$allocator@_W@2@@std@@V?$allocator@V?$basic_string@_WU?$char_traits@_W@std@@V?$allocator@_W@2@@std@@@2@@std@@V?$basic_string@_WU?$char_traits@_W@std@@V?$allocator@_W@2@@3@@Z@4HA 000000018002c7a0 f   GenericPlatform.obj
 0001:0002b7a0       ?dtor$9@?0??SaveToFile@GenericPlatform@@UEAAXV?$basic_string@_WU?$char_traits@_W@std@@V?$allocator@_W@2@@std@@V?$list@V?$basic_string@_WU?$char_traits@_W@std@@V?$allocator@_W@2@@std@@V?$allocator@V?$basic_string@_WU?$char_traits@_W@std@@V?$allocator@_W@2@@std@@@2@@3@_N@Z@4HA 000000018002c7a0 f   GenericPlatform.obj
 0001:0002b7c0       ?dtor$6@?0??LoadFromFile@GenericPlatform@@UEAA?AV?$list@V?$basic_string@_WU?$char_traits@_W@std@@V?$allocator@_W@2@@std@@V?$allocator@V?$basic_string@_WU?$char_traits@_W@std@@V?$allocator@_W@2@@std@@@2@@std@@V?$basic_string@_WU?$char_traits@_W@std@@V?$allocator@_W@2@@3@@Z@4HA 000000018002c7c0 f   GenericPlatform.obj
 0001:0002b7c0       ?dtor$10@?0??SaveToFile@GenericPlatform@@UEAAXV?$basic_string@_WU?$char_traits@_W@std@@V?$allocator@_W@2@@std@@V?$list@V?$basic_string@_WU?$char_traits@_W@std@@V?$allocator@_W@2@@std@@V?$allocator@V?$basic_string@_WU?$char_traits@_W@std@@V?$allocator@_W@2@@std@@@2@@3@_N@Z@4HA 000000018002c7c0 f   GenericPlatform.obj
 0001:0002b7c0       ?dtor$0@?0??open@?$basic_filebuf@_WU?$char_traits@_W@std@@@std@@QEAAPEAV12@PEB_WHH@Z@4HA 000000018002c7c0 f   GenericPlatform.obj
 0001:0002b7d0       ?dtor$8@?0??LoadFromFile@GenericPlatform@@UEAA?AV?$list@V?$basic_string@_WU?$char_traits@_W@std@@V?$allocator@_W@2@@std@@V?$allocator@V?$basic_string@_WU?$char_traits@_W@std@@V?$allocator@_W@2@@std@@@2@@std@@V?$basic_string@_WU?$char_traits@_W@std@@V?$allocator@_W@2@@3@@Z@4HA 000000018002c7d0 f   GenericPlatform.obj
 0001:0002b7d0       ?dtor$12@?0??SaveToFile@GenericPlatform@@UEAAXV?$basic_string@_WU?$char_traits@_W@std@@V?$allocator@_W@2@@std@@V?$list@V?$basic_string@_WU?$char_traits@_W@std@@V?$allocator@_W@2@@std@@V?$allocator@V?$basic_string@_WU?$char_traits@_W@std@@V?$allocator@_W@2@@std@@@2@@3@_N@Z@4HA 000000018002c7d0 f   GenericPlatform.obj
 0001:0002b7d0       ?dtor$8@?0??Load@WindowsJavaUserPreferences@@UEAA_NV?$basic_string@_WU?$char_traits@_W@std@@V?$allocator@_W@2@@std@@@Z@4HA 000000018002c7d0 f   WindowsPlatform.obj
 0001:0002b7e0       ?dtor$10@?0??LoadFromFile@GenericPlatform@@UEAA?AV?$list@V?$basic_string@_WU?$char_traits@_W@std@@V?$allocator@_W@2@@std@@V?$allocator@V?$basic_string@_WU?$char_traits@_W@std@@V?$allocator@_W@2@@std@@@2@@std@@V?$basic_string@_WU?$char_traits@_W@std@@V?$allocator@_W@2@@3@@Z@4HA 000000018002c7e0 f   GenericPlatform.obj
 0001:0002b7e0       ?dtor$3@?0??SaveToFile@GenericPlatform@@UEAAXV?$basic_string@_WU?$char_traits@_W@std@@V?$allocator@_W@2@@std@@V?$list@V?$basic_string@_WU?$char_traits@_W@std@@V?$allocator@_W@2@@std@@V?$allocator@V?$basic_string@_WU?$char_traits@_W@std@@V?$allocator@_W@2@@std@@@2@@3@_N@Z@4HA 000000018002c7e0 f   GenericPlatform.obj
 0001:0002b7e0       ?dtor$2@?0??Load@WindowsJavaUserPreferences@@UEAA_NV?$basic_string@_WU?$char_traits@_W@std@@V?$allocator@_W@2@@std@@@Z@4HA 000000018002c7e0 f   WindowsPlatform.obj
 0001:0002b7f0       ?dtor$13@?0??LoadFromFile@GenericPlatform@@UEAA?AV?$list@V?$basic_string@_WU?$char_traits@_W@std@@V?$allocator@_W@2@@std@@V?$allocator@V?$basic_string@_WU?$char_traits@_W@std@@V?$allocator@_W@2@@std@@@2@@std@@V?$basic_string@_WU?$char_traits@_W@std@@V?$allocator@_W@2@@3@@Z@4HA 000000018002c7f0 f   GenericPlatform.obj
 0001:0002b820       ?dtor$14@?0??LoadFromFile@GenericPlatform@@UEAA?AV?$list@V?$basic_string@_WU?$char_traits@_W@std@@V?$allocator@_W@2@@std@@V?$allocator@V?$basic_string@_WU?$char_traits@_W@std@@V?$allocator@_W@2@@std@@@2@@std@@V?$basic_string@_WU?$char_traits@_W@std@@V?$allocator@_W@2@@3@@Z@4HA 000000018002c820 f   GenericPlatform.obj
 0001:0002b840       ?dtor$15@?0??LoadFromFile@GenericPlatform@@UEAA?AV?$list@V?$basic_string@_WU?$char_traits@_W@std@@V?$allocator@_W@2@@std@@V?$allocator@V?$basic_string@_WU?$char_traits@_W@std@@V?$allocator@_W@2@@std@@@2@@std@@V?$basic_string@_WU?$char_traits@_W@std@@V?$allocator@_W@2@@3@@Z@4HA 000000018002c840 f   GenericPlatform.obj
 0001:0002b850       ?dtor$16@?0??LoadFromFile@GenericPlatform@@UEAA?AV?$list@V?$basic_string@_WU?$char_traits@_W@std@@V?$allocator@_W@2@@std@@V?$allocator@V?$basic_string@_WU?$char_traits@_W@std@@V?$allocator@_W@2@@std@@@2@@std@@V?$basic_string@_WU?$char_traits@_W@std@@V?$allocator@_W@2@@3@@Z@4HA 000000018002c850 f   GenericPlatform.obj
 0001:0002b850       ?dtor$18@?0??SaveToFile@GenericPlatform@@UEAAXV?$basic_string@_WU?$char_traits@_W@std@@V?$allocator@_W@2@@std@@V?$list@V?$basic_string@_WU?$char_traits@_W@std@@V?$allocator@_W@2@@std@@V?$allocator@V?$basic_string@_WU?$char_traits@_W@std@@V?$allocator@_W@2@@std@@@2@@3@_N@Z@4HA 000000018002c850 f   GenericPlatform.obj
 0001:0002b860       ?dtor$0@?0??SaveToFile@GenericPlatform@@UEAAXV?$basic_string@_WU?$char_traits@_W@std@@V?$allocator@_W@2@@std@@V?$list@V?$basic_string@_WU?$char_traits@_W@std@@V?$allocator@_W@2@@std@@V?$allocator@V?$basic_string@_WU?$char_traits@_W@std@@V?$allocator@_W@2@@std@@@2@@3@_N@Z@4HA 000000018002c860 f   GenericPlatform.obj
 0001:0002b870       ?dtor$6@?0??SaveToFile@GenericPlatform@@UEAAXV?$basic_string@_WU?$char_traits@_W@std@@V?$allocator@_W@2@@std@@V?$list@V?$basic_string@_WU?$char_traits@_W@std@@V?$allocator@_W@2@@std@@V?$allocator@V?$basic_string@_WU?$char_traits@_W@std@@V?$allocator@_W@2@@std@@@2@@3@_N@Z@4HA 000000018002c870 f   GenericPlatform.obj
 0001:0002b880       ?dtor$79@?0??Load@WindowsJavaUserPreferences@@UEAA_NV?$basic_string@_WU?$char_traits@_W@std@@V?$allocator@_W@2@@std@@@Z@4HA 000000018002c880 f   WindowsPlatform.obj
 0001:0002b880       ?dtor$14@?0??SaveToFile@GenericPlatform@@UEAAXV?$basic_string@_WU?$char_traits@_W@std@@V?$allocator@_W@2@@std@@V?$list@V?$basic_string@_WU?$char_traits@_W@std@@V?$allocator@_W@2@@std@@V?$allocator@V?$basic_string@_WU?$char_traits@_W@std@@V?$allocator@_W@2@@std@@@2@@3@_N@Z@4HA 000000018002c880 f   GenericPlatform.obj
 0001:0002b890       ?dtor$15@?0??SaveToFile@GenericPlatform@@UEAAXV?$basic_string@_WU?$char_traits@_W@std@@V?$allocator@_W@2@@std@@V?$list@V?$basic_string@_WU?$char_traits@_W@std@@V?$allocator@_W@2@@std@@V?$allocator@V?$basic_string@_WU?$char_traits@_W@std@@V?$allocator@_W@2@@std@@@2@@3@_N@Z@4HA 000000018002c890 f   GenericPlatform.obj
 0001:0002b8c0       ?dtor$16@?0??SaveToFile@GenericPlatform@@UEAAXV?$basic_string@_WU?$char_traits@_W@std@@V?$allocator@_W@2@@std@@V?$list@V?$basic_string@_WU?$char_traits@_W@std@@V?$allocator@_W@2@@std@@V?$allocator@V?$basic_string@_WU?$char_traits@_W@std@@V?$allocator@_W@2@@std@@@2@@3@_N@Z@4HA 000000018002c8c0 f   GenericPlatform.obj
 0001:0002b8e0       ?dtor$17@?0??SaveToFile@GenericPlatform@@UEAAXV?$basic_string@_WU?$char_traits@_W@std@@V?$allocator@_W@2@@std@@V?$list@V?$basic_string@_WU?$char_traits@_W@std@@V?$allocator@_W@2@@std@@V?$allocator@V?$basic_string@_WU?$char_traits@_W@std@@V?$allocator@_W@2@@std@@@2@@3@_N@Z@4HA 000000018002c8e0 f   GenericPlatform.obj
 0001:0002b8f0       ?catch$0@?0??_Buyheadnode@?$_Tree_comp_alloc@V?$_Tmap_traits@V?$basic_string@_WU?$char_traits@_W@std@@V?$allocator@_W@2@@std@@V12@U?$less@V?$basic_string@_WU?$char_traits@_W@std@@V?$allocator@_W@2@@std@@@2@V?$allocator@U?$pair@$$CBV?$basic_string@_WU?$char_traits@_W@std@@V?$allocator@_W@2@@std@@V12@@std@@@2@$0A@@std@@@std@@QEAAPEAU?$_Tree_node@U?$pair@$$CBV?$basic_string@_WU?$char_traits@_W@std@@V?$allocator@_W@2@@std@@V12@@std@@PEAX@2@XZ@4HA 000000018002c8f0 f   GenericPlatform.obj
 0001:0002b8fd       __catch$?_Buyheadnode@?$_Tree_comp_alloc@V?$_Tmap_traits@V?$basic_string@_WU?$char_traits@_W@std@@V?$allocator@_W@2@@std@@V12@U?$less@V?$basic_string@_WU?$char_traits@_W@std@@V?$allocator@_W@2@@std@@@2@V?$allocator@U?$pair@$$CBV?$basic_string@_WU?$char_traits@_W@std@@V?$allocator@_W@2@@std@@V12@@std@@@2@$0A@@std@@@std@@QEAAPEAU?$_Tree_node@U?$pair@$$CBV?$basic_string@_WU?$char_traits@_W@std@@V?$allocator@_W@2@@std@@V12@@std@@PEAX@2@XZ$0 000000018002c8fd f   GenericPlatform.obj
 0001:0002b920       ?catch$0@?0??_Buynode0@?$_Tree_comp_alloc@V?$_Tmap_traits@V?$basic_string@_WU?$char_traits@_W@std@@V?$allocator@_W@2@@std@@V12@U?$less@V?$basic_string@_WU?$char_traits@_W@std@@V?$allocator@_W@2@@std@@@2@V?$allocator@U?$pair@$$CBV?$basic_string@_WU?$char_traits@_W@std@@V?$allocator@_W@2@@std@@V12@@std@@@2@$0A@@std@@@std@@QEAAPEAU?$_Tree_node@U?$pair@$$CBV?$basic_string@_WU?$char_traits@_W@std@@V?$allocator@_W@2@@std@@V12@@std@@PEAX@2@XZ@4HA 000000018002c920 f   GenericPlatform.obj
 0001:0002b92d       __catch$?_Buynode0@?$_Tree_comp_alloc@V?$_Tmap_traits@V?$basic_string@_WU?$char_traits@_W@std@@V?$allocator@_W@2@@std@@V12@U?$less@V?$basic_string@_WU?$char_traits@_W@std@@V?$allocator@_W@2@@std@@@2@V?$allocator@U?$pair@$$CBV?$basic_string@_WU?$char_traits@_W@std@@V?$allocator@_W@2@@std@@V12@@std@@@2@$0A@@std@@@std@@QEAAPEAU?$_Tree_node@U?$pair@$$CBV?$basic_string@_WU?$char_traits@_W@std@@V?$allocator@_W@2@@std@@V12@@std@@PEAX@2@XZ$0 000000018002c92d f   GenericPlatform.obj
 0001:0002b950       ?dtor$0@?0??uflow@?$basic_filebuf@_WU?$char_traits@_W@std@@@std@@MEAAGXZ@4HA 000000018002c950 f   GenericPlatform.obj
 0001:0002b960       ?catch$2@?0???$_Buynode@AEBUpiecewise_construct_t@std@@V?$tuple@$$QEAV?$basic_string@_WU?$char_traits@_W@std@@V?$allocator@_W@2@@std@@@2@V?$tuple@$$V@2@@?$_Tree_comp_alloc@V?$_Tmap_traits@V?$basic_string@_WU?$char_traits@_W@std@@V?$allocator@_W@2@@std@@V12@U?$less@V?$basic_string@_WU?$char_traits@_W@std@@V?$allocator@_W@2@@std@@@2@V?$allocator@U?$pair@$$CBV?$basic_string@_WU?$char_traits@_W@std@@V?$allocator@_W@2@@std@@V12@@std@@@2@$0A@@std@@@std@@QEAAPEAU?$_Tree_node@U?$pair@$$CBV?$basic_string@_WU?$char_traits@_W@std@@V?$allocator@_W@2@@std@@V12@@std@@PEAX@1@AEBUpiecewise_construct_t@1@$$QEAV?$tuple@$$QEAV?$basic_string@_WU?$char_traits@_W@std@@V?$allocator@_W@2@@std@@@1@$$QEAV?$tuple@$$V@1@@Z@4HA 000000018002c960 f   Helpers.obj
 0001:0002b96d       __catch$??$_Buynode@AEBUpiecewise_construct_t@std@@V?$tuple@$$QEAV?$basic_string@_WU?$char_traits@_W@std@@V?$allocator@_W@2@@std@@@2@V?$tuple@$$V@2@@?$_Tree_comp_alloc@V?$_Tmap_traits@V?$basic_string@_WU?$char_traits@_W@std@@V?$allocator@_W@2@@std@@V12@U?$less@V?$basic_string@_WU?$char_traits@_W@std@@V?$allocator@_W@2@@std@@@2@V?$allocator@U?$pair@$$CBV?$basic_string@_WU?$char_traits@_W@std@@V?$allocator@_W@2@@std@@V12@@std@@@2@$0A@@std@@@std@@QEAAPEAU?$_Tree_node@U?$pair@$$CBV?$basic_string@_WU?$char_traits@_W@std@@V?$allocator@_W@2@@std@@V12@@std@@PEAX@1@AEBUpiecewise_construct_t@1@$$QEAV?$tuple@$$QEAV?$basic_string@_WU?$char_traits@_W@std@@V?$allocator@_W@2@@std@@@1@$$QEAV?$tuple@$$V@1@@Z$0 000000018002c96d f   Helpers.obj
 0001:0002b990       ?catch$0@?0???$_Insert_hint@AEAU?$pair@$$CBV?$basic_string@_WU?$char_traits@_W@std@@V?$allocator@_W@2@@std@@V12@@std@@PEAU?$_Tree_node@U?$pair@$$CBV?$basic_string@_WU?$char_traits@_W@std@@V?$allocator@_W@2@@std@@V12@@std@@PEAX@2@@?$_Tree@V?$_Tmap_traits@V?$basic_string@_WU?$char_traits@_W@std@@V?$allocator@_W@2@@std@@V12@U?$less@V?$basic_string@_WU?$char_traits@_W@std@@V?$allocator@_W@2@@std@@@2@V?$allocator@U?$pair@$$CBV?$basic_string@_WU?$char_traits@_W@std@@V?$allocator@_W@2@@std@@V12@@std@@@2@$0A@@std@@@std@@IEAA?AV?$_Tree_iterator@V?$_Tree_val@U?$_Tree_simple_types@U?$pair@$$CBV?$basic_string@_WU?$char_traits@_W@std@@V?$allocator@_W@2@@std@@V12@@std@@@std@@@std@@@1@V?$_Tree_const_iterator@V?$_Tree_val@U?$_Tree_simple_types@U?$pair@$$CBV?$basic_string@_WU?$char_traits@_W@std@@V?$allocator@_W@2@@std@@V12@@std@@@std@@@std@@@1@AEAU?$pair@$$CBV?$basic_string@_WU?$char_traits@_W@std@@V?$allocator@_W@2@@std@@V12@@1@PEAU?$_Tree_node@U?$pair@$$CBV?$basic_string@_WU?$char_traits@_W@std@@V?$allocator@_W@2@@std@@V12@@std@@PEAX@1@@Z@4HA 000000018002c990 f   Helpers.obj
 0001:0002b99d       __catch$??$_Insert_hint@AEAU?$pair@$$CBV?$basic_string@_WU?$char_traits@_W@std@@V?$allocator@_W@2@@std@@V12@@std@@PEAU?$_Tree_node@U?$pair@$$CBV?$basic_string@_WU?$char_traits@_W@std@@V?$allocator@_W@2@@std@@V12@@std@@PEAX@2@@?$_Tree@V?$_Tmap_traits@V?$basic_string@_WU?$char_traits@_W@std@@V?$allocator@_W@2@@std@@V12@U?$less@V?$basic_string@_WU?$char_traits@_W@std@@V?$allocator@_W@2@@std@@@2@V?$allocator@U?$pair@$$CBV?$basic_string@_WU?$char_traits@_W@std@@V?$allocator@_W@2@@std@@V12@@std@@@2@$0A@@std@@@std@@IEAA?AV?$_Tree_iterator@V?$_Tree_val@U?$_Tree_simple_types@U?$pair@$$CBV?$basic_string@_WU?$char_traits@_W@std@@V?$allocator@_W@2@@std@@V12@@std@@@std@@@std@@@1@V?$_Tree_const_iterator@V?$_Tree_val@U?$_Tree_simple_types@U?$pair@$$CBV?$basic_string@_WU?$char_traits@_W@std@@V?$allocator@_W@2@@std@@V12@@std@@@std@@@std@@@1@AEAU?$pair@$$CBV?$basic_string@_WU?$char_traits@_W@std@@V?$allocator@_W@2@@std@@V12@@1@PEAU?$_Tree_node@U?$pair@$$CBV?$basic_string@_WU?$char_traits@_W@std@@V?$allocator@_W@2@@std@@V12@@std@@PEAX@1@@Z$0 000000018002c99d f   Helpers.obj
 0001:0002b9c0       ?catch$9@?0???$_Insert_nohint@AEAU?$pair@$$CBV?$basic_string@_WU?$char_traits@_W@std@@V?$allocator@_W@2@@std@@V12@@std@@PEAU?$_Tree_node@U?$pair@$$CBV?$basic_string@_WU?$char_traits@_W@std@@V?$allocator@_W@2@@std@@V12@@std@@PEAX@2@@?$_Tree@V?$_Tmap_traits@V?$basic_string@_WU?$char_traits@_W@std@@V?$allocator@_W@2@@std@@V12@U?$less@V?$basic_string@_WU?$char_traits@_W@std@@V?$allocator@_W@2@@std@@@2@V?$allocator@U?$pair@$$CBV?$basic_string@_WU?$char_traits@_W@std@@V?$allocator@_W@2@@std@@V12@@std@@@2@$0A@@std@@@std@@IEAA?AU?$pair@V?$_Tree_iterator@V?$_Tree_val@U?$_Tree_simple_types@U?$pair@$$CBV?$basic_string@_WU?$char_traits@_W@std@@V?$allocator@_W@2@@std@@V12@@std@@@std@@@std@@@std@@_N@1@_NAEAU?$pair@$$CBV?$basic_string@_WU?$char_traits@_W@std@@V?$allocator@_W@2@@std@@V12@@1@PEAU?$_Tree_node@U?$pair@$$CBV?$basic_string@_WU?$char_traits@_W@std@@V?$allocator@_W@2@@std@@V12@@std@@PEAX@1@@Z@4HA 000000018002c9c0 f   Helpers.obj
 0001:0002b9cd       __catch$??$_Insert_nohint@AEAU?$pair@$$CBV?$basic_string@_WU?$char_traits@_W@std@@V?$allocator@_W@2@@std@@V12@@std@@PEAU?$_Tree_node@U?$pair@$$CBV?$basic_string@_WU?$char_traits@_W@std@@V?$allocator@_W@2@@std@@V12@@std@@PEAX@2@@?$_Tree@V?$_Tmap_traits@V?$basic_string@_WU?$char_traits@_W@std@@V?$allocator@_W@2@@std@@V12@U?$less@V?$basic_string@_WU?$char_traits@_W@std@@V?$allocator@_W@2@@std@@@2@V?$allocator@U?$pair@$$CBV?$basic_string@_WU?$char_traits@_W@std@@V?$allocator@_W@2@@std@@V12@@std@@@2@$0A@@std@@@std@@IEAA?AU?$pair@V?$_Tree_iterator@V?$_Tree_val@U?$_Tree_simple_types@U?$pair@$$CBV?$basic_string@_WU?$char_traits@_W@std@@V?$allocator@_W@2@@std@@V12@@std@@@std@@@std@@@std@@_N@1@_NAEAU?$pair@$$CBV?$basic_string@_WU?$char_traits@_W@std@@V?$allocator@_W@2@@std@@V12@@1@PEAU?$_Tree_node@U?$pair@$$CBV?$basic_string@_WU?$char_traits@_W@std@@V?$allocator@_W@2@@std@@V12@@std@@PEAX@1@@Z$0 000000018002c9cd f   Helpers.obj
 0001:0002b9f0       ?dtor$17@?0??LoadFromFile@PropertyFile@@QEAA_NV?$basic_string@_WU?$char_traits@_W@std@@V?$allocator@_W@2@@std@@@Z@4HA 000000018002c9f0 f   PropertyFile.obj
 0001:0002b9f0       ?dtor$0@?0??AppendToIni@@YAXAEAVPropertyFile@@PEAVIniFile@@V?$basic_string@_WU?$char_traits@_W@std@@V?$allocator@_W@2@@std@@@Z@4HA 000000018002c9f0 f   Helpers.obj
 0001:0002b9f0       ?dtor$39@?0??RemoveTrailingEquals@@YA?AV?$OrderedMap@V?$basic_string@_WU?$char_traits@_W@std@@V?$allocator@_W@2@@std@@V12@@@V1@@Z@4HA 000000018002c9f0 f   JavaVirtualMachine.obj
 0001:0002b9f0       ?dtor$1@?0??SetValue@IniSectionData@@QEAA_NV?$basic_string@_WU?$char_traits@_W@std@@V?$allocator@_W@2@@std@@V23@@Z@4HA 000000018002c9f0 f   IniFile.obj
 0001:0002b9f0       ?dtor$82@?0??Load@WindowsJavaUserPreferences@@UEAA_NV?$basic_string@_WU?$char_traits@_W@std@@V?$allocator@_W@2@@std@@@Z@4HA 000000018002c9f0 f   WindowsPlatform.obj
 0001:0002b9f0       ?dtor$11@?0??CreateOrderedMapFromKeyList@@YA?AV?$OrderedMap@V?$basic_string@_WU?$char_traits@_W@std@@V?$allocator@_W@2@@std@@V12@@@AEAV1@AEAV?$vector@V?$basic_string@_WU?$char_traits@_W@std@@V?$allocator@_W@2@@std@@V?$allocator@V?$basic_string@_WU?$char_traits@_W@std@@V?$allocator@_W@2@@std@@@2@@std@@@Z@4HA 000000018002c9f0 f   Package.obj
 0001:0002ba00       ?dtor$0@?0??PromoteAppCDSState@Package@@AEAAXPEAVISectionalPropertyContainer@@@Z@4HA 000000018002ca00 f   Package.obj
 0001:0002ba00       ?dtor$3@?0??AppendToIni@@YAXAEAVPropertyFile@@PEAVIniFile@@V?$basic_string@_WU?$char_traits@_W@std@@V?$allocator@_W@2@@std@@@Z@4HA 000000018002ca00 f   Helpers.obj
 0001:0002ba00       ?dtor$2@?0??SaveJVMUserArgOverrides@Package@@AEAAXV?$OrderedMap@V?$basic_string@_WU?$char_traits@_W@std@@V?$allocator@_W@2@@std@@V12@@@@Z@4HA 000000018002ca00 f   Package.obj
 0001:0002ba10       ?dtor$4@?0??AppendToIni@@YAXAEAVPropertyFile@@PEAVIniFile@@V?$basic_string@_WU?$char_traits@_W@std@@V?$allocator@_W@2@@std@@@Z@4HA 000000018002ca10 f   Helpers.obj
 0001:0002ba10       ?dtor$3@?0??GetKeysThatAreNotDuplicates@@YA?AV?$vector@V?$basic_string@_WU?$char_traits@_W@std@@V?$allocator@_W@2@@std@@V?$allocator@V?$basic_string@_WU?$char_traits@_W@std@@V?$allocator@_W@2@@std@@@2@@std@@AEAV?$OrderedMap@V?$basic_string@_WU?$char_traits@_W@std@@V?$allocator@_W@2@@std@@V12@@@0@Z@4HA 000000018002ca10 f   Package.obj
 0001:0002ba10       ?dtor$2@?0??GetJVMUserArgsConfigFileName@Package@@QEAA?AV?$basic_string@_WU?$char_traits@_W@std@@V?$allocator@_W@2@@std@@XZ@4HA 000000018002ca10 f   Package.obj
 0001:0002ba10       ?dtor$3@?0??SaveJVMUserArgOverrides@Package@@AEAAXV?$OrderedMap@V?$basic_string@_WU?$char_traits@_W@std@@V?$allocator@_W@2@@std@@V12@@@@Z@4HA 000000018002ca10 f   Package.obj
 0001:0002ba20       ?dtor$1@?0??ConvertIdToFilePath@Helpers@@SA?AV?$basic_string@_WU?$char_traits@_W@std@@V?$allocator@_W@2@@std@@V23@@Z@4HA 000000018002ca20 f   Helpers.obj
 0001:0002ba20       ?dtor$0@?0???$_Lookup_equiv@_WV?$regex_traits@_W@std@@@std@@YA_NGPEBU?$_Sequence@_W@0@AEBV?$regex_traits@_W@0@@Z@4HA 000000018002ca20 f   WindowsPlatform.obj
 0001:0002ba30       ?dtor$0@?0??GetArgsFromConfig@Helpers@@SA?AV?$list@V?$basic_string@_WU?$char_traits@_W@std@@V?$allocator@_W@2@@std@@V?$allocator@V?$basic_string@_WU?$char_traits@_W@std@@V?$allocator@_W@2@@std@@@2@@std@@PEAVIPropertyContainer@@@Z@4HA 000000018002ca30 f   Helpers.obj
 0001:0002ba60       ?dtor$1@?0??GetArgsFromConfig@Helpers@@SA?AV?$list@V?$basic_string@_WU?$char_traits@_W@std@@V?$allocator@_W@2@@std@@V?$allocator@V?$basic_string@_WU?$char_traits@_W@std@@V?$allocator@_W@2@@std@@@2@@std@@PEAVIPropertyContainer@@@Z@4HA 000000018002ca60 f   Helpers.obj
 0001:0002ba70       ?dtor$0@?0??GetJVMArgsFromConfig@Helpers@@SA?AV?$OrderedMap@V?$basic_string@_WU?$char_traits@_W@std@@V?$allocator@_W@2@@std@@V12@@@PEAVIPropertyContainer@@@Z@4HA 000000018002ca70 f   Helpers.obj
 0001:0002baa0       ?dtor$2@?0??GetJVMArgsFromConfig@Helpers@@SA?AV?$OrderedMap@V?$basic_string@_WU?$char_traits@_W@std@@V?$allocator@_W@2@@std@@V12@@@PEAVIPropertyContainer@@@Z@4HA 000000018002caa0 f   Helpers.obj
 0001:0002baa0       ?dtor$1@?0??GetSystemJRE@WindowsPlatform@@UEAA?AV?$basic_string@_WU?$char_traits@_W@std@@V?$allocator@_W@2@@std@@XZ@4HA 000000018002caa0 f   WindowsPlatform.obj
 0001:0002baa0       ?dtor$5@?0??GetKeysThatAreNotOverridesOfDefaultValues@@YA?AV?$vector@V?$basic_string@_WU?$char_traits@_W@std@@V?$allocator@_W@2@@std@@V?$allocator@V?$basic_string@_WU?$char_traits@_W@std@@V?$allocator@_W@2@@std@@@2@@std@@AEAV?$OrderedMap@V?$basic_string@_WU?$char_traits@_W@std@@V?$allocator@_W@2@@std@@V12@@@0@Z@4HA 000000018002caa0 f   Package.obj
 0001:0002baa0       ?dtor$8@?0??GetJVMArgsFromConfig@Helpers@@SA?AV?$OrderedMap@V?$basic_string@_WU?$char_traits@_W@std@@V?$allocator@_W@2@@std@@V12@@@PEAVIPropertyContainer@@@Z@4HA 000000018002caa0 f   Helpers.obj
 0001:0002bab0       ?dtor$14@?0??GetLines@IniSectionData@@QEAA?AV?$list@V?$basic_string@_WU?$char_traits@_W@std@@V?$allocator@_W@2@@std@@V?$allocator@V?$basic_string@_WU?$char_traits@_W@std@@V?$allocator@_W@2@@std@@@2@@std@@XZ@4HA 000000018002cab0 f   IniFile.obj
 0001:0002bab0       ?dtor$4@?0??GetJVMArgsFromConfig@Helpers@@SA?AV?$OrderedMap@V?$basic_string@_WU?$char_traits@_W@std@@V?$allocator@_W@2@@std@@V12@@@PEAVIPropertyContainer@@@Z@4HA 000000018002cab0 f   Helpers.obj
 0001:0002bac0       ?dtor$9@?0??GetLines@IniSectionData@@QEAA?AV?$list@V?$basic_string@_WU?$char_traits@_W@std@@V?$allocator@_W@2@@std@@V?$allocator@V?$basic_string@_WU?$char_traits@_W@std@@V?$allocator@_W@2@@std@@@2@@std@@XZ@4HA 000000018002cac0 f   IniFile.obj
 0001:0002bac0       ?dtor$2@?0??GetKeysThatAreNotOverridesOfDefaultValues@@YA?AV?$vector@V?$basic_string@_WU?$char_traits@_W@std@@V?$allocator@_W@2@@std@@V?$allocator@V?$basic_string@_WU?$char_traits@_W@std@@V?$allocator@_W@2@@std@@@2@@std@@AEAV?$OrderedMap@V?$basic_string@_WU?$char_traits@_W@std@@V?$allocator@_W@2@@std@@V12@@@0@Z@4HA 000000018002cac0 f   Package.obj
 0001:0002bac0       ?dtor$5@?0??GetSystemJRE@WindowsPlatform@@UEAA?AV?$basic_string@_WU?$char_traits@_W@std@@V?$allocator@_W@2@@std@@XZ@4HA 000000018002cac0 f   WindowsPlatform.obj
 0001:0002bac0       ?dtor$5@?0??GetLines@IniSectionData@@QEAA?AV?$list@V?$basic_string@_WU?$char_traits@_W@std@@V?$allocator@_W@2@@std@@V?$allocator@V?$basic_string@_WU?$char_traits@_W@std@@V?$allocator@_W@2@@std@@@2@@std@@XZ@4HA 000000018002cac0 f   IniFile.obj
 0001:0002bac0       ?dtor$0@?0??ToJavaOptions@JavaOptions@@QEAAPEAUJavaVMOption@@XZ@4HA 000000018002cac0 f   JavaVirtualMachine.obj
 0001:0002bac0       ?dtor$5@?0??GetJVMArgsFromConfig@Helpers@@SA?AV?$OrderedMap@V?$basic_string@_WU?$char_traits@_W@std@@V?$allocator@_W@2@@std@@V12@@@PEAVIPropertyContainer@@@Z@4HA 000000018002cac0 f   Helpers.obj
 0001:0002bad0       ?dtor$7@?0??GetJVMArgsFromConfig@Helpers@@SA?AV?$OrderedMap@V?$basic_string@_WU?$char_traits@_W@std@@V?$allocator@_W@2@@std@@V12@@@PEAVIPropertyContainer@@@Z@4HA 000000018002cad0 f   Helpers.obj
 0001:0002bad0       ?dtor$76@?0??Initialize@Package@@QEAAXXZ@4HA 000000018002cad0 f   Package.obj
 0001:0002bae0       ?dtor$43@?0??GetJVMArgsFromConfig@Helpers@@SA?AV?$OrderedMap@V?$basic_string@_WU?$char_traits@_W@std@@V?$allocator@_W@2@@std@@V12@@@PEAVIPropertyContainer@@@Z@4HA 000000018002cae0 f   Helpers.obj
 0001:0002baf0       ?dtor$0@?0??GetJVMUserArgsFromConfig@Helpers@@SA?AV?$OrderedMap@V?$basic_string@_WU?$char_traits@_W@std@@V?$allocator@_W@2@@std@@V12@@@PEAVIPropertyContainer@@@Z@4HA 000000018002caf0 f   Helpers.obj
 0001:0002bb20       ?dtor$7@?0??ToJavaOptions@JavaOptions@@QEAAPEAUJavaVMOption@@XZ@4HA 000000018002cb20 f   JavaVirtualMachine.obj
 0001:0002bb20       ?dtor$3@?0??GetStaticMethod@JavaClass@@QEAA?AVJavaStaticMethod@@V?$basic_string@_WU?$char_traits@_W@std@@V?$allocator@_W@2@@std@@0@Z@4HA 000000018002cb20 f   Java.obj
 0001:0002bb20       ?dtor$1@?0??GetJVMUserArgsFromConfig@Helpers@@SA?AV?$OrderedMap@V?$basic_string@_WU?$char_traits@_W@std@@V?$allocator@_W@2@@std@@V12@@@PEAVIPropertyContainer@@@Z@4HA 000000018002cb20 f   Helpers.obj
 0001:0002bb30       ?dtor$6@?0??Execute@WindowsProcess@@UEAA_NV?$basic_string@_WU?$char_traits@_W@std@@V?$allocator@_W@2@@std@@V?$vector@V?$basic_string@_WU?$char_traits@_W@std@@V?$allocator@_W@2@@std@@V?$allocator@V?$basic_string@_WU?$char_traits@_W@std@@V?$allocator@_W@2@@std@@@2@@3@_N@Z@4HA 000000018002cb30 f   WindowsPlatform.obj
 0001:0002bb30       ?dtor$3@?0??Execute@WindowsProcess@@UEAA_NV?$basic_string@_WU?$char_traits@_W@std@@V?$allocator@_W@2@@std@@V?$vector@V?$basic_string@_WU?$char_traits@_W@std@@V?$allocator@_W@2@@std@@V?$allocator@V?$basic_string@_WU?$char_traits@_W@std@@V?$allocator@_W@2@@std@@@2@@3@_N@Z@4HA 000000018002cb30 f   WindowsPlatform.obj
 0001:0002bb30       ?dtor$2@?0??GetJVMUserArgsFromConfig@Helpers@@SA?AV?$OrderedMap@V?$basic_string@_WU?$char_traits@_W@std@@V?$allocator@_W@2@@std@@V12@@@PEAVIPropertyContainer@@@Z@4HA 000000018002cb30 f   Helpers.obj
 0001:0002bb30       ?dtor$37@?0??Initialize@Package@@QEAAXXZ@4HA 000000018002cb30 f   Package.obj
 0001:0002bb30       ?dtor$6@?0??SaveToFile@IniFile@@QEAA_NV?$basic_string@_WU?$char_traits@_W@std@@V?$allocator@_W@2@@std@@_N@Z@4HA 000000018002cb30 f   IniFile.obj
 0001:0002bb30       ?dtor$3@?0??Initialize@JavaStringArray@@AEAAX_K@Z@4HA 000000018002cb30 f   Java.obj
 0001:0002bb30       ?dtor$5@?0??Load@WindowsJavaUserPreferences@@UEAA_NV?$basic_string@_WU?$char_traits@_W@std@@V?$allocator@_W@2@@std@@@Z@4HA 000000018002cb30 f   WindowsPlatform.obj
 0001:0002bb30       ?dtor$3@?0??RemoveTrailingEquals@@YA?AV?$OrderedMap@V?$basic_string@_WU?$char_traits@_W@std@@V?$allocator@_W@2@@std@@V12@@@V1@@Z@4HA 000000018002cb30 f   JavaVirtualMachine.obj
 0001:0002bb30       ?dtor$8@?0??LoadFromFile@IniFile@@QEAA_NV?$basic_string@_WU?$char_traits@_W@std@@V?$allocator@_W@2@@std@@@Z@4HA 000000018002cb30 f   IniFile.obj
 0001:0002bb40       ?dtor$5@?0??LoadFromFile@IniFile@@QEAA_NV?$basic_string@_WU?$char_traits@_W@std@@V?$allocator@_W@2@@std@@@Z@4HA 000000018002cb40 f   IniFile.obj
 0001:0002bb40       ?dtor$15@?0??Load@WindowsJavaUserPreferences@@UEAA_NV?$basic_string@_WU?$char_traits@_W@std@@V?$allocator@_W@2@@std@@@Z@4HA 000000018002cb40 f   WindowsPlatform.obj
 0001:0002bb40       ?dtor$2@?0??Execute@WindowsProcess@@UEAA_NV?$basic_string@_WU?$char_traits@_W@std@@V?$allocator@_W@2@@std@@V?$vector@V?$basic_string@_WU?$char_traits@_W@std@@V?$allocator@_W@2@@std@@V?$allocator@V?$basic_string@_WU?$char_traits@_W@std@@V?$allocator@_W@2@@std@@@2@@3@_N@Z@4HA 000000018002cb40 f   WindowsPlatform.obj
 0001:0002bb40       ?dtor$23@?0??Initialize@Package@@QEAAXXZ@4HA 000000018002cb40 f   Package.obj
 0001:0002bb40       ?dtor$4@?0??GetJVMUserArgsFromConfig@Helpers@@SA?AV?$OrderedMap@V?$basic_string@_WU?$char_traits@_W@std@@V?$allocator@_W@2@@std@@V12@@@PEAVIPropertyContainer@@@Z@4HA 000000018002cb40 f   Helpers.obj
 0001:0002bb40       ?dtor$48@?0??Initialize@Package@@QEAAXXZ@4HA 000000018002cb40 f   Package.obj
 0001:0002bb40       ?dtor$8@?0??SaveToFile@IniFile@@QEAA_NV?$basic_string@_WU?$char_traits@_W@std@@V?$allocator@_W@2@@std@@_N@Z@4HA 000000018002cb40 f   IniFile.obj
 0001:0002bb50       ?dtor$7@?0??Load@WindowsJavaUserPreferences@@UEAA_NV?$basic_string@_WU?$char_traits@_W@std@@V?$allocator@_W@2@@std@@@Z@4HA 000000018002cb50 f   WindowsPlatform.obj
 0001:0002bb50       ?dtor$5@?0??GetJVMUserArgsFromConfig@Helpers@@SA?AV?$OrderedMap@V?$basic_string@_WU?$char_traits@_W@std@@V?$allocator@_W@2@@std@@V12@@@PEAVIPropertyContainer@@@Z@4HA 000000018002cb50 f   Helpers.obj
 0001:0002bb50       ?dtor$7@?0??LoadFromFile@IniFile@@QEAA_NV?$basic_string@_WU?$char_traits@_W@std@@V?$allocator@_W@2@@std@@@Z@4HA 000000018002cb50 f   IniFile.obj
 0001:0002bb50       ?dtor$3@?0??SaveToFile@IniFile@@QEAA_NV?$basic_string@_WU?$char_traits@_W@std@@V?$allocator@_W@2@@std@@_N@Z@4HA 000000018002cb50 f   IniFile.obj
 0001:0002bb60       ?dtor$6@?0??GetJVMUserArgsFromConfig@Helpers@@SA?AV?$OrderedMap@V?$basic_string@_WU?$char_traits@_W@std@@V?$allocator@_W@2@@std@@V12@@@PEAVIPropertyContainer@@@Z@4HA 000000018002cb60 f   Helpers.obj
 0001:0002bb70       ?dtor$3@?0??PromoteAppCDSState@Package@@AEAAXPEAVISectionalPropertyContainer@@@Z@4HA 000000018002cb70 f   Package.obj
 0001:0002bb70       ?dtor$1@?0??PromoteAppCDSState@Package@@AEAAXPEAVISectionalPropertyContainer@@@Z@4HA 000000018002cb70 f   Package.obj
 0001:0002bb70       ?dtor$15@?0??ReadJVMArgs@Package@@AEAAXPEAVISectionalPropertyContainer@@@Z@4HA 000000018002cb70 f   Package.obj
 0001:0002bb70       ?dtor$6@?0??ReadJVMArgs@Package@@AEAAXPEAVISectionalPropertyContainer@@@Z@4HA 000000018002cb70 f   Package.obj
 0001:0002bb70       ?dtor$7@?0??GetJVMUserArgsFromConfig@Helpers@@SA?AV?$OrderedMap@V?$basic_string@_WU?$char_traits@_W@std@@V?$allocator@_W@2@@std@@V12@@@PEAVIPropertyContainer@@@Z@4HA 000000018002cb70 f   Helpers.obj
 0001:0002bb80       ?dtor$0@?0??LoadOldConfigFile@Helpers@@SAXV?$basic_string@_WU?$char_traits@_W@std@@V?$allocator@_W@2@@std@@PEAVIniFile@@@Z@4HA 000000018002cb80 f   Helpers.obj
 0001:0002bb90       ?dtor$1@?0??LoadOldConfigFile@Helpers@@SAXV?$basic_string@_WU?$char_traits@_W@std@@V?$allocator@_W@2@@std@@PEAVIniFile@@@Z@4HA 000000018002cb90 f   Helpers.obj
 0001:0002bba0       ?dtor$5@?0??Initialize@Package@@QEAAXXZ@4HA 000000018002cba0 f   Package.obj
 0001:0002bba0       ?dtor$3@?0??LoadOldConfigFile@Helpers@@SAXV?$basic_string@_WU?$char_traits@_W@std@@V?$allocator@_W@2@@std@@PEAVIniFile@@@Z@4HA 000000018002cba0 f   Helpers.obj
 0001:0002bbb0       ?dtor$14@?0??LoadOldConfigFile@Helpers@@SAXV?$basic_string@_WU?$char_traits@_W@std@@V?$allocator@_W@2@@std@@PEAVIniFile@@@Z@4HA 000000018002cbb0 f   Helpers.obj
 0001:0002bbb0       ?dtor$2@?0??AppendValues@JavaOptions@@QEAAXV?$OrderedMap@V?$basic_string@_WU?$char_traits@_W@std@@V?$allocator@_W@2@@std@@V12@@@@Z@4HA 000000018002cbb0 f   JavaVirtualMachine.obj
 0001:0002bbb0       ?dtor$4@?0??LoadOldConfigFile@Helpers@@SAXV?$basic_string@_WU?$char_traits@_W@std@@V?$allocator@_W@2@@std@@PEAVIniFile@@@Z@4HA 000000018002cbb0 f   Helpers.obj
 0001:0002bbb0       ?dtor$23@?0??LoadOldConfigFile@Helpers@@SAXV?$basic_string@_WU?$char_traits@_W@std@@V?$allocator@_W@2@@std@@PEAVIniFile@@@Z@4HA 000000018002cbb0 f   Helpers.obj
 0001:0002bbb0       ?dtor$33@?0??LoadOldConfigFile@Helpers@@SAXV?$basic_string@_WU?$char_traits@_W@std@@V?$allocator@_W@2@@std@@PEAVIniFile@@@Z@4HA 000000018002cbb0 f   Helpers.obj
 0001:0002bbb0       ?dtor$6@?0??LoadOldConfigFile@Helpers@@SAXV?$basic_string@_WU?$char_traits@_W@std@@V?$allocator@_W@2@@std@@PEAVIniFile@@@Z@4HA 000000018002cbb0 f   Helpers.obj
 0001:0002bbb0       ?dtor$27@?0??LoadOldConfigFile@Helpers@@SAXV?$basic_string@_WU?$char_traits@_W@std@@V?$allocator@_W@2@@std@@PEAVIniFile@@@Z@4HA 000000018002cbb0 f   Helpers.obj
 0001:0002bbb0       ?dtor$8@?0??LoadOldConfigFile@Helpers@@SAXV?$basic_string@_WU?$char_traits@_W@std@@V?$allocator@_W@2@@std@@PEAVIniFile@@@Z@4HA 000000018002cbb0 f   Helpers.obj
 0001:0002bbb0       ?dtor$20@?0??LoadOldConfigFile@Helpers@@SAXV?$basic_string@_WU?$char_traits@_W@std@@V?$allocator@_W@2@@std@@PEAVIniFile@@@Z@4HA 000000018002cbb0 f   Helpers.obj
 0001:0002bbb0       ?dtor$12@?0??LoadOldConfigFile@Helpers@@SAXV?$basic_string@_WU?$char_traits@_W@std@@V?$allocator@_W@2@@std@@PEAVIniFile@@@Z@4HA 000000018002cbb0 f   Helpers.obj
 0001:0002bbb0       ?dtor$38@?0??LoadOldConfigFile@Helpers@@SAXV?$basic_string@_WU?$char_traits@_W@std@@V?$allocator@_W@2@@std@@PEAVIniFile@@@Z@4HA 000000018002cbb0 f   Helpers.obj
 0001:0002bbb0       ?dtor$21@?0??StartJVM@JavaVirtualMachine@@QEAA_NXZ@4HA 000000018002cbb0 f   JavaVirtualMachine.obj
 0001:0002bbb0       ?dtor$10@?0??LoadOldConfigFile@Helpers@@SAXV?$basic_string@_WU?$char_traits@_W@std@@V?$allocator@_W@2@@std@@PEAVIniFile@@@Z@4HA 000000018002cbb0 f   Helpers.obj
 0001:0002bbb0       ?dtor$18@?0??LoadOldConfigFile@Helpers@@SAXV?$basic_string@_WU?$char_traits@_W@std@@V?$allocator@_W@2@@std@@PEAVIniFile@@@Z@4HA 000000018002cbb0 f   Helpers.obj
 0001:0002bbc0       ?dtor$16@?0??LoadOldConfigFile@Helpers@@SAXV?$basic_string@_WU?$char_traits@_W@std@@V?$allocator@_W@2@@std@@PEAVIniFile@@@Z@4HA 000000018002cbc0 f   Helpers.obj
 0001:0002bbc0       ?dtor$32@?0??LoadOldConfigFile@Helpers@@SAXV?$basic_string@_WU?$char_traits@_W@std@@V?$allocator@_W@2@@std@@PEAVIniFile@@@Z@4HA 000000018002cbc0 f   Helpers.obj
 0001:0002bbc0       ?dtor$0@?0??StartJVM@JavaVirtualMachine@@QEAA_NXZ@4HA 000000018002cbc0 f   JavaVirtualMachine.obj
 0001:0002bbd0       ?dtor$22@?0??LoadOldConfigFile@Helpers@@SAXV?$basic_string@_WU?$char_traits@_W@std@@V?$allocator@_W@2@@std@@PEAVIniFile@@@Z@4HA 000000018002cbd0 f   Helpers.obj
 0001:0002bbe0       ?dtor$24@?0??LoadOldConfigFile@Helpers@@SAXV?$basic_string@_WU?$char_traits@_W@std@@V?$allocator@_W@2@@std@@PEAVIniFile@@@Z@4HA 000000018002cbe0 f   Helpers.obj
 0001:0002bbf0       ?dtor$26@?0??LoadOldConfigFile@Helpers@@SAXV?$basic_string@_WU?$char_traits@_W@std@@V?$allocator@_W@2@@std@@PEAVIniFile@@@Z@4HA 000000018002cbf0 f   Helpers.obj
 0001:0002bc00       ?dtor$4@?0??SaveJVMUserArgOverrides@Package@@AEAAXV?$OrderedMap@V?$basic_string@_WU?$char_traits@_W@std@@V?$allocator@_W@2@@std@@V12@@@@Z@4HA 000000018002cc00 f   Package.obj
 0001:0002bc00       ?dtor$28@?0??LoadOldConfigFile@Helpers@@SAXV?$basic_string@_WU?$char_traits@_W@std@@V?$allocator@_W@2@@std@@PEAVIniFile@@@Z@4HA 000000018002cc00 f   Helpers.obj
 0001:0002bc00       ?dtor$39@?0??LoadOldConfigFile@Helpers@@SAXV?$basic_string@_WU?$char_traits@_W@std@@V?$allocator@_W@2@@std@@PEAVIniFile@@@Z@4HA 000000018002cc00 f   Helpers.obj
 0001:0002bc10       ?dtor$30@?0??LoadOldConfigFile@Helpers@@SAXV?$basic_string@_WU?$char_traits@_W@std@@V?$allocator@_W@2@@std@@PEAVIniFile@@@Z@4HA 000000018002cc10 f   Helpers.obj
 0001:0002bc20       ?dtor$31@?0??LoadOldConfigFile@Helpers@@SAXV?$basic_string@_WU?$char_traits@_W@std@@V?$allocator@_W@2@@std@@PEAVIniFile@@@Z@4HA 000000018002cc20 f   Helpers.obj
 0001:0002bc30       ?dtor$29@?0??StartJVM@JavaVirtualMachine@@QEAA_NXZ@4HA 000000018002cc30 f   JavaVirtualMachine.obj
 0001:0002bc30       ?dtor$34@?0??LoadOldConfigFile@Helpers@@SAXV?$basic_string@_WU?$char_traits@_W@std@@V?$allocator@_W@2@@std@@PEAVIniFile@@@Z@4HA 000000018002cc30 f   Helpers.obj
 0001:0002bc40       ?dtor$77@?0??LoadOldConfigFile@Helpers@@SAXV?$basic_string@_WU?$char_traits@_W@std@@V?$allocator@_W@2@@std@@PEAVIniFile@@@Z@4HA 000000018002cc40 f   Helpers.obj
 0001:0002bc50       ?dtor$78@?0??LoadOldConfigFile@Helpers@@SAXV?$basic_string@_WU?$char_traits@_W@std@@V?$allocator@_W@2@@std@@PEAVIniFile@@@Z@4HA 000000018002cc50 f   Helpers.obj
 0001:0002bc60       ?dtor$85@?0??LoadOldConfigFile@Helpers@@SAXV?$basic_string@_WU?$char_traits@_W@std@@V?$allocator@_W@2@@std@@PEAVIniFile@@@Z@4HA 000000018002cc60 f   Helpers.obj
 0001:0002bc60       ?dtor$7@?0??SaveJVMUserArgOverrides@Package@@AEAAXV?$OrderedMap@V?$basic_string@_WU?$char_traits@_W@std@@V?$allocator@_W@2@@std@@V12@@@@Z@4HA 000000018002cc60 f   Package.obj
 0001:0002bc70       ?dtor$86@?0??LoadOldConfigFile@Helpers@@SAXV?$basic_string@_WU?$char_traits@_W@std@@V?$allocator@_W@2@@std@@PEAVIniFile@@@Z@4HA 000000018002cc70 f   Helpers.obj
 0001:0002bc70       ?dtor$8@?0??SaveJVMUserArgOverrides@Package@@AEAAXV?$OrderedMap@V?$basic_string@_WU?$char_traits@_W@std@@V?$allocator@_W@2@@std@@V12@@@@Z@4HA 000000018002cc70 f   Package.obj
 0001:0002bc80       ?dtor$0@?0??MapToNameValueList@Helpers@@SA?AV?$list@V?$basic_string@_WU?$char_traits@_W@std@@V?$allocator@_W@2@@std@@V?$allocator@V?$basic_string@_WU?$char_traits@_W@std@@V?$allocator@_W@2@@std@@@2@@std@@V?$OrderedMap@V?$basic_string@_WU?$char_traits@_W@std@@V?$allocator@_W@2@@std@@V12@@@@Z@4HA 000000018002cc80 f   Helpers.obj
 0001:0002bc90       ?dtor$1@?0??MapToNameValueList@Helpers@@SA?AV?$list@V?$basic_string@_WU?$char_traits@_W@std@@V?$allocator@_W@2@@std@@V?$allocator@V?$basic_string@_WU?$char_traits@_W@std@@V?$allocator@_W@2@@std@@@2@@std@@V?$OrderedMap@V?$basic_string@_WU?$char_traits@_W@std@@V?$allocator@_W@2@@std@@V12@@@@Z@4HA 000000018002cc90 f   Helpers.obj
 0001:0002bcc0       ?dtor$2@?0??MapToNameValueList@Helpers@@SA?AV?$list@V?$basic_string@_WU?$char_traits@_W@std@@V?$allocator@_W@2@@std@@V?$allocator@V?$basic_string@_WU?$char_traits@_W@std@@V?$allocator@_W@2@@std@@@2@@std@@V?$OrderedMap@V?$basic_string@_WU?$char_traits@_W@std@@V?$allocator@_W@2@@std@@V12@@@@Z@4HA 000000018002ccc0 f   Helpers.obj
 0001:0002bcd0       ?dtor$10@?0??MapToNameValueList@Helpers@@SA?AV?$list@V?$basic_string@_WU?$char_traits@_W@std@@V?$allocator@_W@2@@std@@V?$allocator@V?$basic_string@_WU?$char_traits@_W@std@@V?$allocator@_W@2@@std@@@2@@std@@V?$OrderedMap@V?$basic_string@_WU?$char_traits@_W@std@@V?$allocator@_W@2@@std@@V12@@@@Z@4HA 000000018002ccd0 f   Helpers.obj
 0001:0002bd00       ?catch$0@?0???$_Insert_range@V?$_List_iterator@V?$_List_val@U?$_List_simple_types@V?$basic_string@_WU?$char_traits@_W@std@@V?$allocator@_W@2@@std@@@std@@@std@@@std@@@?$list@V?$basic_string@_WU?$char_traits@_W@std@@V?$allocator@_W@2@@std@@V?$allocator@V?$basic_string@_WU?$char_traits@_W@std@@V?$allocator@_W@2@@std@@@2@@std@@QEAAXV?$_List_unchecked_const_iterator@V?$_List_val@U?$_List_simple_types@V?$basic_string@_WU?$char_traits@_W@std@@V?$allocator@_W@2@@std@@@std@@@std@@U_Iterator_base0@2@@1@V?$_List_iterator@V?$_List_val@U?$_List_simple_types@V?$basic_string@_WU?$char_traits@_W@std@@V?$allocator@_W@2@@std@@@std@@@std@@@1@1Uforward_iterator_tag@1@@Z@4HA 000000018002cd00 f   IniFile.obj
 0001:0002bd00       ?catch$0@?0???$_Insert_range@V?$_List_const_iterator@V?$_List_val@U?$_List_simple_types@V?$basic_string@_WU?$char_traits@_W@std@@V?$allocator@_W@2@@std@@@std@@@std@@@std@@@?$list@V?$basic_string@_WU?$char_traits@_W@std@@V?$allocator@_W@2@@std@@V?$allocator@V?$basic_string@_WU?$char_traits@_W@std@@V?$allocator@_W@2@@std@@@2@@std@@QEAAXV?$_List_unchecked_const_iterator@V?$_List_val@U?$_List_simple_types@V?$basic_string@_WU?$char_traits@_W@std@@V?$allocator@_W@2@@std@@@std@@@std@@U_Iterator_base0@2@@1@V?$_List_const_iterator@V?$_List_val@U?$_List_simple_types@V?$basic_string@_WU?$char_traits@_W@std@@V?$allocator@_W@2@@std@@@std@@@std@@@1@1Uforward_iterator_tag@1@@Z@4HA 000000018002cd00 f   IniFile.obj
 0001:0002bd12       __catch$??$_Insert_range@V?$_List_iterator@V?$_List_val@U?$_List_simple_types@V?$basic_string@_WU?$char_traits@_W@std@@V?$allocator@_W@2@@std@@@std@@@std@@@std@@@?$list@V?$basic_string@_WU?$char_traits@_W@std@@V?$allocator@_W@2@@std@@V?$allocator@V?$basic_string@_WU?$char_traits@_W@std@@V?$allocator@_W@2@@std@@@2@@std@@QEAAXV?$_List_unchecked_const_iterator@V?$_List_val@U?$_List_simple_types@V?$basic_string@_WU?$char_traits@_W@std@@V?$allocator@_W@2@@std@@@std@@@std@@U_Iterator_base0@2@@1@V?$_List_iterator@V?$_List_val@U?$_List_simple_types@V?$basic_string@_WU?$char_traits@_W@std@@V?$allocator@_W@2@@std@@@std@@@std@@@1@1Uforward_iterator_tag@1@@Z$0 000000018002cd12 f   IniFile.obj
 0001:0002bd12       __catch$??$_Insert_range@V?$_List_const_iterator@V?$_List_val@U?$_List_simple_types@V?$basic_string@_WU?$char_traits@_W@std@@V?$allocator@_W@2@@std@@@std@@@std@@@std@@@?$list@V?$basic_string@_WU?$char_traits@_W@std@@V?$allocator@_W@2@@std@@V?$allocator@V?$basic_string@_WU?$char_traits@_W@std@@V?$allocator@_W@2@@std@@@2@@std@@QEAAXV?$_List_unchecked_const_iterator@V?$_List_val@U?$_List_simple_types@V?$basic_string@_WU?$char_traits@_W@std@@V?$allocator@_W@2@@std@@@std@@@std@@U_Iterator_base0@2@@1@V?$_List_const_iterator@V?$_List_val@U?$_List_simple_types@V?$basic_string@_WU?$char_traits@_W@std@@V?$allocator@_W@2@@std@@@std@@@std@@@1@1Uforward_iterator_tag@1@@Z$0 000000018002cd12 f   IniFile.obj
 0001:0002bd50       ?catch$2@?0???0?$list@V?$basic_string@_WU?$char_traits@_W@std@@V?$allocator@_W@2@@std@@V?$allocator@V?$basic_string@_WU?$char_traits@_W@std@@V?$allocator@_W@2@@std@@@2@@std@@QEAA@AEBV01@@Z@4HA 000000018002cd50 f   IniFile.obj
 0001:0002bd5d       __catch$??0?$list@V?$basic_string@_WU?$char_traits@_W@std@@V?$allocator@_W@2@@std@@V?$allocator@V?$basic_string@_WU?$char_traits@_W@std@@V?$allocator@_W@2@@std@@@2@@std@@QEAA@AEBV01@@Z$0 000000018002cd5d f   IniFile.obj
 0001:0002bd70       ?dtor$0@?0???0?$list@V?$basic_string@_WU?$char_traits@_W@std@@V?$allocator@_W@2@@std@@V?$allocator@V?$basic_string@_WU?$char_traits@_W@std@@V?$allocator@_W@2@@std@@@2@@std@@QEAA@AEBV01@@Z@4HA 000000018002cd70 f   IniFile.obj
 0001:0002bd80       ?dtor$0@?0???0IniFile@@QEAA@XZ@4HA 000000018002cd80 f   IniFile.obj
 0001:0002bd90       ?dtor$1@?0??Append@?$OrderedMap@V?$basic_string@_WU?$char_traits@_W@std@@V?$allocator@_W@2@@std@@PEAVIniSectionData@@@@QEAAXV?$basic_string@_WU?$char_traits@_W@std@@V?$allocator@_W@2@@std@@PEAVIniSectionData@@@Z@4HA 000000018002cd90 f   IniFile.obj
 0001:0002bdb0       ?dtor$0@?0??Format@PlatformString@@SA?AV?$basic_string@_WU?$char_traits@_W@std@@V?$allocator@_W@2@@std@@V23@ZZ@4HA 000000018002cdb0 f   PlatformString.obj
 0001:0002bdb0       ?dtor$0@?0??Append@IniFile@@QEAAXV?$basic_string@_WU?$char_traits@_W@std@@V?$allocator@_W@2@@std@@0V23@@Z@4HA 000000018002cdb0 f   IniFile.obj
 0001:0002bdb0       ?dtor$0@?0??GetBundledJVMLibraryFileName@WindowsPlatform@@UEAA?AV?$basic_string@_WU?$char_traits@_W@std@@V?$allocator@_W@2@@std@@V23@@Z@4HA 000000018002cdb0 f   WindowsPlatform.obj
 0001:0002bdb0       ?dtor$44@?0??RemoveTrailingEquals@@YA?AV?$OrderedMap@V?$basic_string@_WU?$char_traits@_W@std@@V?$allocator@_W@2@@std@@V12@@@V1@@Z@4HA 000000018002cdb0 f   JavaVirtualMachine.obj
 0001:0002bdc0       ?dtor$8@?0??StartJVM@JavaVirtualMachine@@QEAA_NXZ@4HA 000000018002cdc0 f   JavaVirtualMachine.obj
 0001:0002bdc0       ?dtor$10@?0??StartJVM@JavaVirtualMachine@@QEAA_NXZ@4HA 000000018002cdc0 f   JavaVirtualMachine.obj
 0001:0002bdc0       ?dtor$24@?0??StartJVM@JavaVirtualMachine@@QEAA_NXZ@4HA 000000018002cdc0 f   JavaVirtualMachine.obj
 0001:0002bdc0       ?dtor$12@?0??StartJVM@JavaVirtualMachine@@QEAA_NXZ@4HA 000000018002cdc0 f   JavaVirtualMachine.obj
 0001:0002bdc0       ?dtor$5@?0??AppendValue@JavaOptions@@QEAAXV?$basic_string@_WU?$char_traits@_W@std@@V?$allocator@_W@2@@std@@V23@@Z@4HA 000000018002cdc0 f   JavaVirtualMachine.obj
 0001:0002bdc0       ?dtor$36@?0??StartJVM@JavaVirtualMachine@@QEAA_NXZ@4HA 000000018002cdc0 f   JavaVirtualMachine.obj
 0001:0002bdc0       ?dtor$7@?0??SetValue@IniFile@@QEAA_NV?$basic_string@_WU?$char_traits@_W@std@@V?$allocator@_W@2@@std@@0V23@@Z@4HA 000000018002cdc0 f   IniFile.obj
 0001:0002bdc0       ?dtor$4@?0??SetValue@IniFile@@QEAA_NV?$basic_string@_WU?$char_traits@_W@std@@V?$allocator@_W@2@@std@@0V23@@Z@4HA 000000018002cdc0 f   IniFile.obj
 0001:0002bdc0       ?dtor$9@?0??Initialize@JavaStringArray@@AEAAX_K@Z@4HA 000000018002cdc0 f   Java.obj
 0001:0002bdc0       ?dtor$27@?0??StartJVM@JavaVirtualMachine@@QEAA_NXZ@4HA 000000018002cdc0 f   JavaVirtualMachine.obj
 0001:0002bdc0       ?dtor$12@?0??GetKeysThatAreNotOverridesOfDefaultValues@@YA?AV?$vector@V?$basic_string@_WU?$char_traits@_W@std@@V?$allocator@_W@2@@std@@V?$allocator@V?$basic_string@_WU?$char_traits@_W@std@@V?$allocator@_W@2@@std@@@2@@std@@AEAV?$OrderedMap@V?$basic_string@_WU?$char_traits@_W@std@@V?$allocator@_W@2@@std@@V12@@@0@Z@4HA 000000018002cdc0 f   Package.obj
 0001:0002bdc0       ?dtor$2@?0??AppendValue@JavaOptions@@QEAAXV?$basic_string@_WU?$char_traits@_W@std@@V?$allocator@_W@2@@std@@V23@@Z@4HA 000000018002cdc0 f   JavaVirtualMachine.obj
 0001:0002bdc0       ?dtor$43@?0??StartJVM@JavaVirtualMachine@@QEAA_NXZ@4HA 000000018002cdc0 f   JavaVirtualMachine.obj
 0001:0002bdc0       ?dtor$5@?0???0Exception@@QEAA@V?$basic_string@_WU?$char_traits@_W@std@@V?$allocator@_W@2@@std@@@Z@4HA 000000018002cdc0 f   Java.obj
 0001:0002bdc0       ?dtor$5@?0??Append@IniFile@@QEAAXV?$basic_string@_WU?$char_traits@_W@std@@V?$allocator@_W@2@@std@@0V23@@Z@4HA 000000018002cdc0 f   IniFile.obj
 0001:0002bdc0       ?dtor$3@?0???0JavaException@@QEAA@PEAUJNIEnv_@@V?$basic_string@_WU?$char_traits@_W@std@@V?$allocator@_W@2@@std@@@Z@4HA 000000018002cdc0 f   Java.obj
 0001:0002bdc0       ?dtor$21@?0??GetKeysThatAreNotOverridesOfDefaultValues@@YA?AV?$vector@V?$basic_string@_WU?$char_traits@_W@std@@V?$allocator@_W@2@@std@@V?$allocator@V?$basic_string@_WU?$char_traits@_W@std@@V?$allocator@_W@2@@std@@@2@@std@@AEAV?$OrderedMap@V?$basic_string@_WU?$char_traits@_W@std@@V?$allocator@_W@2@@std@@V12@@@0@Z@4HA 000000018002cdc0 f   Package.obj
 0001:0002bdd0       ?dtor$7@?0??Append@IniFile@@QEAAXV?$basic_string@_WU?$char_traits@_W@std@@V?$allocator@_W@2@@std@@0V23@@Z@4HA 000000018002cdd0 f   IniFile.obj
 0001:0002bdf0       ?dtor$11@?0??Append@IniFile@@QEAAXV?$basic_string@_WU?$char_traits@_W@std@@V?$allocator@_W@2@@std@@0V23@@Z@4HA 000000018002cdf0 f   IniFile.obj
 0001:0002be00       ?dtor$0@?0??AppendSection@IniFile@@QEAAXV?$basic_string@_WU?$char_traits@_W@std@@V?$allocator@_W@2@@std@@V?$OrderedMap@V?$basic_string@_WU?$char_traits@_W@std@@V?$allocator@_W@2@@std@@V12@@@@Z@4HA 000000018002ce00 f   IniFile.obj
 0001:0002be10       ?dtor$16@?0??CreateOrderedMapFromKeyList@@YA?AV?$OrderedMap@V?$basic_string@_WU?$char_traits@_W@std@@V?$allocator@_W@2@@std@@V12@@@AEAV1@AEAV?$vector@V?$basic_string@_WU?$char_traits@_W@std@@V?$allocator@_W@2@@std@@V?$allocator@V?$basic_string@_WU?$char_traits@_W@std@@V?$allocator@_W@2@@std@@@2@@std@@@Z@4HA 000000018002ce10 f   Package.obj
 0001:0002be10       ?dtor$1@?0??AppendSection@IniFile@@QEAAXV?$basic_string@_WU?$char_traits@_W@std@@V?$allocator@_W@2@@std@@V?$OrderedMap@V?$basic_string@_WU?$char_traits@_W@std@@V?$allocator@_W@2@@std@@V12@@@@Z@4HA 000000018002ce10 f   IniFile.obj
 0001:0002be10       ?dtor$1@?0??SetValue@IniFile@@QEAA_NV?$basic_string@_WU?$char_traits@_W@std@@V?$allocator@_W@2@@std@@0V23@@Z@4HA 000000018002ce10 f   IniFile.obj
 0001:0002be10       ?dtor$2@?0??ToJavaOptions@JavaOptions@@QEAAPEAUJavaVMOption@@XZ@4HA 000000018002ce10 f   JavaVirtualMachine.obj
 0001:0002be10       ?dtor$1@?0??SetValue@PropertyFile@@QEAA_NV?$basic_string@_WU?$char_traits@_W@std@@V?$allocator@_W@2@@std@@V23@@Z@4HA 000000018002ce10 f   PropertyFile.obj
 0001:0002be20       ?dtor$5@?0??AppendSection@IniFile@@QEAAXV?$basic_string@_WU?$char_traits@_W@std@@V?$allocator@_W@2@@std@@V?$OrderedMap@V?$basic_string@_WU?$char_traits@_W@std@@V?$allocator@_W@2@@std@@V12@@@@Z@4HA 000000018002ce20 f   IniFile.obj
 0001:0002be20       ?dtor$1@?0??GetConfigFile@WindowsPlatform@@UEAAPEAVISectionalPropertyContainer@@V?$basic_string@_WU?$char_traits@_W@std@@V?$allocator@_W@2@@std@@@Z@4HA 000000018002ce20 f   WindowsPlatform.obj
 0001:0002be40       ?dtor$8@?0??AppendSection@IniFile@@QEAAXV?$basic_string@_WU?$char_traits@_W@std@@V?$allocator@_W@2@@std@@V?$OrderedMap@V?$basic_string@_WU?$char_traits@_W@std@@V?$allocator@_W@2@@std@@V12@@@@Z@4HA 000000018002ce40 f   IniFile.obj
 0001:0002be50       ?dtor$9@?0??AppendSection@IniFile@@QEAAXV?$basic_string@_WU?$char_traits@_W@std@@V?$allocator@_W@2@@std@@V?$OrderedMap@V?$basic_string@_WU?$char_traits@_W@std@@V?$allocator@_W@2@@std@@V12@@@@Z@4HA 000000018002ce50 f   IniFile.obj
 0001:0002be60       ?dtor$10@?0??AppendSection@IniFile@@QEAAXV?$basic_string@_WU?$char_traits@_W@std@@V?$allocator@_W@2@@std@@V?$OrderedMap@V?$basic_string@_WU?$char_traits@_W@std@@V?$allocator@_W@2@@std@@V12@@@@Z@4HA 000000018002ce60 f   IniFile.obj
 0001:0002be70       ?dtor$11@?0??AppendSection@IniFile@@QEAAXV?$basic_string@_WU?$char_traits@_W@std@@V?$allocator@_W@2@@std@@V?$OrderedMap@V?$basic_string@_WU?$char_traits@_W@std@@V?$allocator@_W@2@@std@@V12@@@@Z@4HA 000000018002ce70 f   IniFile.obj
 0001:0002be80       ?dtor$0@?0??GetLines@IniSectionData@@QEAA?AV?$list@V?$basic_string@_WU?$char_traits@_W@std@@V?$allocator@_W@2@@std@@V?$allocator@V?$basic_string@_WU?$char_traits@_W@std@@V?$allocator@_W@2@@std@@@2@@std@@XZ@4HA 000000018002ce80 f   IniFile.obj
 0001:0002beb0       ?dtor$1@?0??GetLines@IniSectionData@@QEAA?AV?$list@V?$basic_string@_WU?$char_traits@_W@std@@V?$allocator@_W@2@@std@@V?$allocator@V?$basic_string@_WU?$char_traits@_W@std@@V?$allocator@_W@2@@std@@@2@@std@@XZ@4HA 000000018002ceb0 f   IniFile.obj
 0001:0002bec0       ?dtor$59@?0??Initialize@Package@@QEAAXXZ@4HA 000000018002cec0 f   Package.obj
 0001:0002bec0       ?dtor$71@?0??Initialize@Package@@QEAAXXZ@4HA 000000018002cec0 f   Package.obj
 0001:0002bec0       start_launcher$dtor$12     000000018002cec0 f   main.obj
 0001:0002bec0       start_launcher$dtor$2      000000018002cec0 f   main.obj
 0001:0002bec0       ?dtor$2@?0??GetLines@IniSectionData@@QEAA?AV?$list@V?$basic_string@_WU?$char_traits@_W@std@@V?$allocator@_W@2@@std@@V?$allocator@V?$basic_string@_WU?$char_traits@_W@std@@V?$allocator@_W@2@@std@@@2@@std@@XZ@4HA 000000018002cec0 f   IniFile.obj
 0001:0002bec0       start_launcher$dtor$13     000000018002cec0 f   main.obj
 0001:0002bec0       ?dtor$78@?0??Initialize@Package@@QEAAXXZ@4HA 000000018002cec0 f   Package.obj
 0001:0002bec0       ?dtor$63@?0??Initialize@Package@@QEAAXXZ@4HA 000000018002cec0 f   Package.obj
 0001:0002bec0       ?dtor$9@?0??Initialize@Macros@@SAXXZ@4HA 000000018002cec0 f   Macros.obj
 0001:0002bec0       ?dtor$40@?0??Initialize@Package@@QEAAXXZ@4HA 000000018002cec0 f   Package.obj
 0001:0002bec0       ?dtor$6@?0??GetSystemJRE@WindowsPlatform@@UEAA?AV?$basic_string@_WU?$char_traits@_W@std@@V?$allocator@_W@2@@std@@XZ@4HA 000000018002cec0 f   WindowsPlatform.obj
 0001:0002bec0       ?dtor$54@?0??Initialize@Package@@QEAAXXZ@4HA 000000018002cec0 f   Package.obj
 0001:0002bec0       ?dtor$8@?0??Initialize@Package@@QEAAXXZ@4HA 000000018002cec0 f   Package.obj
 0001:0002bec0       ?dtor$12@?0??Initialize@Package@@QEAAXXZ@4HA 000000018002cec0 f   Package.obj
 0001:0002bec0       ?dtor$19@?0??Initialize@Package@@QEAAXXZ@4HA 000000018002cec0 f   Package.obj
 0001:0002bec0       ?dtor$69@?0??Initialize@Package@@QEAAXXZ@4HA 000000018002cec0 f   Package.obj
 0001:0002bec0       ?dtor$44@?0??Initialize@Package@@QEAAXXZ@4HA 000000018002cec0 f   Package.obj
 0001:0002bec0       ?dtor$27@?0??Initialize@Package@@QEAAXXZ@4HA 000000018002cec0 f   Package.obj
 0001:0002bed0       ?dtor$4@?0??ToJavaOptions@JavaOptions@@QEAAPEAUJavaVMOption@@XZ@4HA 000000018002ced0 f   JavaVirtualMachine.obj
 0001:0002bed0       ?dtor$11@?0??GetSystemJRE@WindowsPlatform@@UEAA?AV?$basic_string@_WU?$char_traits@_W@std@@V?$allocator@_W@2@@std@@XZ@4HA 000000018002ced0 f   WindowsPlatform.obj
 0001:0002bed0       ?dtor$3@?0??GetLines@IniSectionData@@QEAA?AV?$list@V?$basic_string@_WU?$char_traits@_W@std@@V?$allocator@_W@2@@std@@V?$allocator@V?$basic_string@_WU?$char_traits@_W@std@@V?$allocator@_W@2@@std@@@2@@std@@XZ@4HA 000000018002ced0 f   IniFile.obj
 0001:0002bed0       start_launcher$dtor$17     000000018002ced0 f   main.obj
 0001:0002bed0       ?dtor$50@?0??Initialize@Package@@QEAAXXZ@4HA 000000018002ced0 f   Package.obj
 0001:0002bed0       ?dtor$43@?0??Initialize@Package@@QEAAXXZ@4HA 000000018002ced0 f   Package.obj
 0001:0002bed0       start_launcher$dtor$8      000000018002ced0 f   main.obj
 0001:0002bed0       ?dtor$35@?0??Initialize@Package@@QEAAXXZ@4HA 000000018002ced0 f   Package.obj
 0001:0002bed0       ?dtor$53@?0??Initialize@Package@@QEAAXXZ@4HA 000000018002ced0 f   Package.obj
 0001:0002bed0       ?dtor$7@?0??GetSystemJRE@WindowsPlatform@@UEAA?AV?$basic_string@_WU?$char_traits@_W@std@@V?$allocator@_W@2@@std@@XZ@4HA 000000018002ced0 f   WindowsPlatform.obj
 0001:0002bed0       ?dtor$28@?0??Initialize@Package@@QEAAXXZ@4HA 000000018002ced0 f   Package.obj
 0001:0002bed0       ?dtor$15@?0??Initialize@Macros@@SAXXZ@4HA 000000018002ced0 f   Macros.obj
 0001:0002bed0       ?dtor$9@?0??Initialize@Package@@QEAAXXZ@4HA 000000018002ced0 f   Package.obj
 0001:0002bed0       ?dtor$77@?0??Initialize@Package@@QEAAXXZ@4HA 000000018002ced0 f   Package.obj
 0001:0002bed0       ?dtor$39@?0??Initialize@Package@@QEAAXXZ@4HA 000000018002ced0 f   Package.obj
 0001:0002bed0       ?dtor$25@?0??Initialize@Package@@QEAAXXZ@4HA 000000018002ced0 f   Package.obj
 0001:0002bed0       ?dtor$13@?0??Initialize@Package@@QEAAXXZ@4HA 000000018002ced0 f   Package.obj
 0001:0002bed0       ?dtor$18@?0??Initialize@Package@@QEAAXXZ@4HA 000000018002ced0 f   Package.obj
 0001:0002bee0       ?dtor$19@?0??GetLines@IniSectionData@@QEAA?AV?$list@V?$basic_string@_WU?$char_traits@_W@std@@V?$allocator@_W@2@@std@@V?$allocator@V?$basic_string@_WU?$char_traits@_W@std@@V?$allocator@_W@2@@std@@@2@@std@@XZ@4HA 000000018002cee0 f   IniFile.obj
 0001:0002bee0       ?dtor$1@?0??GetStaticMethod@JavaClass@@QEAA?AVJavaStaticMethod@@V?$basic_string@_WU?$char_traits@_W@std@@V?$allocator@_W@2@@std@@0@Z@4HA 000000018002cee0 f   Java.obj
 0001:0002bef0       ?dtor$48@?0??GetLines@IniSectionData@@QEAA?AV?$list@V?$basic_string@_WU?$char_traits@_W@std@@V?$allocator@_W@2@@std@@V?$allocator@V?$basic_string@_WU?$char_traits@_W@std@@V?$allocator@_W@2@@std@@@2@@std@@XZ@4HA 000000018002cef0 f   IniFile.obj
 0001:0002bf20       ?dtor$3@?0??GetSection@IniFile@@UEAA_NV?$basic_string@_WU?$char_traits@_W@std@@V?$allocator@_W@2@@std@@AEAV?$OrderedMap@V?$basic_string@_WU?$char_traits@_W@std@@V?$allocator@_W@2@@std@@V12@@@@Z@4HA 000000018002cf20 f   IniFile.obj
 0001:0002bf30       ?dtor$5@?0??GetSection@IniFile@@UEAA_NV?$basic_string@_WU?$char_traits@_W@std@@V?$allocator@_W@2@@std@@AEAV?$OrderedMap@V?$basic_string@_WU?$char_traits@_W@std@@V?$allocator@_W@2@@std@@V12@@@@Z@4HA 000000018002cf30 f   IniFile.obj
 0001:0002bf40       ?dtor$6@?0??GetSection@IniFile@@UEAA_NV?$basic_string@_WU?$char_traits@_W@std@@V?$allocator@_W@2@@std@@AEAV?$OrderedMap@V?$basic_string@_WU?$char_traits@_W@std@@V?$allocator@_W@2@@std@@V12@@@@Z@4HA 000000018002cf40 f   IniFile.obj
 0001:0002bf50       ?dtor$0@?0???0Exception@@QEAA@V?$basic_string@_WU?$char_traits@_W@std@@V?$allocator@_W@2@@std@@@Z@4HA 000000018002cf50 f   Java.obj
 0001:0002bf50       ?dtor$0@?0??ReadString@Registry@@QEAA?AV?$basic_string@_WU?$char_traits@_W@std@@V?$allocator@_W@2@@std@@V23@@Z@4HA 000000018002cf50 f   WindowsPlatform.obj
 0001:0002bf50       ?dtor$0@?0??GetValue@IniFile@@UEAA_NV?$basic_string@_WU?$char_traits@_W@std@@V?$allocator@_W@2@@std@@0AEAV23@@Z@4HA 000000018002cf50 f   IniFile.obj
 0001:0002bf50       ?dtor$10@?0??LoadFromFile@IniFile@@QEAA_NV?$basic_string@_WU?$char_traits@_W@std@@V?$allocator@_W@2@@std@@@Z@4HA 000000018002cf50 f   IniFile.obj
 0001:0002bf50       ?dtor$12@?0??ReadJVMArgs@Package@@AEAAXPEAVISectionalPropertyContainer@@@Z@4HA 000000018002cf50 f   Package.obj
 0001:0002bf50       ?dtor$0@?0??AddMacro@Macros@@QEAAXV?$basic_string@_WU?$char_traits@_W@std@@V?$allocator@_W@2@@std@@0@Z@4HA 000000018002cf50 f   Macros.obj
 0001:0002bf60       ?dtor$0@?0??SaveToFile@IniFile@@QEAA_NV?$basic_string@_WU?$char_traits@_W@std@@V?$allocator@_W@2@@std@@_N@Z@4HA 000000018002cf60 f   IniFile.obj
 0001:0002bf60       ?dtor$0@?0??Load@WindowsJavaUserPreferences@@UEAA_NV?$basic_string@_WU?$char_traits@_W@std@@V?$allocator@_W@2@@std@@@Z@4HA 000000018002cf60 f   WindowsPlatform.obj
 0001:0002bf60       ?dtor$18@?0??AppendValues@JavaOptions@@QEAAXV?$OrderedMap@V?$basic_string@_WU?$char_traits@_W@std@@V?$allocator@_W@2@@std@@V12@@@@Z@4HA 000000018002cf60 f   JavaVirtualMachine.obj
 0001:0002bf60       ?dtor$0@?0??LoadFromFile@IniFile@@QEAA_NV?$basic_string@_WU?$char_traits@_W@std@@V?$allocator@_W@2@@std@@@Z@4HA 000000018002cf60 f   IniFile.obj
 0001:0002bf60       ?dtor$19@?0??LoadFromFile@PropertyFile@@QEAA_NV?$basic_string@_WU?$char_traits@_W@std@@V?$allocator@_W@2@@std@@@Z@4HA 000000018002cf60 f   PropertyFile.obj
 0001:0002bf70       ?dtor$2@?0??LoadFromFile@IniFile@@QEAA_NV?$basic_string@_WU?$char_traits@_W@std@@V?$allocator@_W@2@@std@@@Z@4HA 000000018002cf70 f   IniFile.obj
 0001:0002bf70       ?dtor$0@?0??SetCommandLineArguments@Package@@QEAAXHQEAPEA_W@Z@4HA 000000018002cf70 f   Package.obj
 0001:0002bf80       ?dtor$13@?0??Initialize@JavaStringArray@@AEAAX_K@Z@4HA 000000018002cf80 f   Java.obj
 0001:0002bf80       ?dtor$6@?0??Load@WindowsJavaUserPreferences@@UEAA_NV?$basic_string@_WU?$char_traits@_W@std@@V?$allocator@_W@2@@std@@@Z@4HA 000000018002cf80 f   WindowsPlatform.obj
 0001:0002bf80       ?dtor$4@?0??RemoveTrailingEquals@@YA?AV?$OrderedMap@V?$basic_string@_WU?$char_traits@_W@std@@V?$allocator@_W@2@@std@@V12@@@V1@@Z@4HA 000000018002cf80 f   JavaVirtualMachine.obj
 0001:0002bf80       ?dtor$4@?0??Execute@WindowsProcess@@UEAA_NV?$basic_string@_WU?$char_traits@_W@std@@V?$allocator@_W@2@@std@@V?$vector@V?$basic_string@_WU?$char_traits@_W@std@@V?$allocator@_W@2@@std@@V?$allocator@V?$basic_string@_WU?$char_traits@_W@std@@V?$allocator@_W@2@@std@@@2@@3@_N@Z@4HA 000000018002cf80 f   WindowsPlatform.obj
 0001:0002bf80       ?dtor$4@?0??LoadFromFile@IniFile@@QEAA_NV?$basic_string@_WU?$char_traits@_W@std@@V?$allocator@_W@2@@std@@@Z@4HA 000000018002cf80 f   IniFile.obj
 0001:0002bf90       ?dtor$14@?0??SaveToFile@IniFile@@QEAA_NV?$basic_string@_WU?$char_traits@_W@std@@V?$allocator@_W@2@@std@@_N@Z@4HA 000000018002cf90 f   IniFile.obj
 0001:0002bf90       ?dtor$17@?0??CreateOrderedMapFromKeyList@@YA?AV?$OrderedMap@V?$basic_string@_WU?$char_traits@_W@std@@V?$allocator@_W@2@@std@@V12@@@AEAV1@AEAV?$vector@V?$basic_string@_WU?$char_traits@_W@std@@V?$allocator@_W@2@@std@@V?$allocator@V?$basic_string@_WU?$char_traits@_W@std@@V?$allocator@_W@2@@std@@@2@@std@@@Z@4HA 000000018002cf90 f   Package.obj
 0001:0002bf90       ?dtor$1@?0??AppendValue@JavaOptions@@QEAAXV?$basic_string@_WU?$char_traits@_W@std@@V?$allocator@_W@2@@std@@V23@@Z@4HA 000000018002cf90 f   JavaVirtualMachine.obj
 0001:0002bf90       ?dtor$46@?0??RemoveTrailingEquals@@YA?AV?$OrderedMap@V?$basic_string@_WU?$char_traits@_W@std@@V?$allocator@_W@2@@std@@V12@@@V1@@Z@4HA 000000018002cf90 f   JavaVirtualMachine.obj
 0001:0002bf90       ?dtor$11@?0??LoadFromFile@IniFile@@QEAA_NV?$basic_string@_WU?$char_traits@_W@std@@V?$allocator@_W@2@@std@@@Z@4HA 000000018002cf90 f   IniFile.obj
 0001:0002bf90       ?dtor$1@?0??Load@Library@@QEAA_NAEBV?$basic_string@_WU?$char_traits@_W@std@@V?$allocator@_W@2@@std@@@Z@4HA 000000018002cf90 f   Platform.obj
 0001:0002bf90       ?dtor$18@?0??MergeJVMDefaultsWithOverrides@Package@@AEAAXXZ@4HA 000000018002cf90 f   Package.obj
 0001:0002bf90       ?dtor$0@?0??SetValue@IniSectionData@@QEAA_NV?$basic_string@_WU?$char_traits@_W@std@@V?$allocator@_W@2@@std@@V23@@Z@4HA 000000018002cf90 f   IniFile.obj
 0001:0002bf90       ?dtor$14@?0??AppendValues@JavaOptions@@QEAAXV?$OrderedMap@V?$basic_string@_WU?$char_traits@_W@std@@V?$allocator@_W@2@@std@@V12@@@@Z@4HA 000000018002cf90 f   JavaVirtualMachine.obj
 0001:0002bfa0       ?dtor$1@?0??SaveToFile@IniFile@@QEAA_NV?$basic_string@_WU?$char_traits@_W@std@@V?$allocator@_W@2@@std@@_N@Z@4HA 000000018002cfa0 f   IniFile.obj
 0001:0002bfa0       ?dtor$2@?0??LoadFromFile@PropertyFile@@QEAA_NV?$basic_string@_WU?$char_traits@_W@std@@V?$allocator@_W@2@@std@@@Z@4HA 000000018002cfa0 f   PropertyFile.obj
 0001:0002bfb0       ?dtor$2@?0??SaveToFile@IniFile@@QEAA_NV?$basic_string@_WU?$char_traits@_W@std@@V?$allocator@_W@2@@std@@_N@Z@4HA 000000018002cfb0 f   IniFile.obj
 0001:0002bfc0       ?dtor$7@?0??SaveToFile@IniFile@@QEAA_NV?$basic_string@_WU?$char_traits@_W@std@@V?$allocator@_W@2@@std@@_N@Z@4HA 000000018002cfc0 f   IniFile.obj
 0001:0002bfd0       ?dtor$9@?0??SaveToFile@IniFile@@QEAA_NV?$basic_string@_WU?$char_traits@_W@std@@V?$allocator@_W@2@@std@@_N@Z@4HA 000000018002cfd0 f   IniFile.obj
 0001:0002bfe0       ?dtor$19@?0??SaveToFile@IniFile@@QEAA_NV?$basic_string@_WU?$char_traits@_W@std@@V?$allocator@_W@2@@std@@_N@Z@4HA 000000018002cfe0 f   IniFile.obj
 0001:0002c010       ?dtor$22@?0??CreateOrderedMapFromKeyList@@YA?AV?$OrderedMap@V?$basic_string@_WU?$char_traits@_W@std@@V?$allocator@_W@2@@std@@V12@@@AEAV1@AEAV?$vector@V?$basic_string@_WU?$char_traits@_W@std@@V?$allocator@_W@2@@std@@V?$allocator@V?$basic_string@_WU?$char_traits@_W@std@@V?$allocator@_W@2@@std@@@2@@std@@@Z@4HA 000000018002d010 f   Package.obj
 0001:0002c010       ?dtor$0@?0??SetValue@IniFile@@QEAA_NV?$basic_string@_WU?$char_traits@_W@std@@V?$allocator@_W@2@@std@@0V23@@Z@4HA 000000018002d010 f   IniFile.obj
 0001:0002c010       ?dtor$0@?0??SetValue@PropertyFile@@QEAA_NV?$basic_string@_WU?$char_traits@_W@std@@V?$allocator@_W@2@@std@@V23@@Z@4HA 000000018002d010 f   PropertyFile.obj
 0001:0002c020       ?dtor$1@?0???0JavaException@@QEAA@AEBV0@@Z@4HA 000000018002d020 f   Java.obj
 0001:0002c020       ?dtor$1@?0???0FileNotFoundException@@QEAA@AEBV0@@Z@4HA 000000018002d020 f   main.obj
 0001:0002c020       ?dtor$0@?0???0Exception@@QEAA@AEBV0@@Z@4HA 000000018002d020 f   Java.obj
 0001:0002c030       ?dtor$1@?0???0Exception@@QEAA@V?$basic_string@_WU?$char_traits@_W@std@@V?$allocator@_W@2@@std@@@Z@4HA 000000018002d030 f   Java.obj
 0001:0002c040       ?dtor$2@?0???0Exception@@QEAA@V?$basic_string@_WU?$char_traits@_W@std@@V?$allocator@_W@2@@std@@@Z@4HA 000000018002d040 f   Java.obj
 0001:0002c050       ?dtor$1@?0???0JavaClass@@QEAA@PEAUJNIEnv_@@V?$basic_string@_WU?$char_traits@_W@std@@V?$allocator@_W@2@@std@@@Z@4HA 000000018002d050 f   Java.obj
 0001:0002c060       ?dtor$2@?0??GetStaticMethod@JavaClass@@QEAA?AVJavaStaticMethod@@V?$basic_string@_WU?$char_traits@_W@std@@V?$allocator@_W@2@@std@@0@Z@4HA 000000018002d060 f   Java.obj
 0001:0002c060       ?dtor$2@?0???0JavaClass@@QEAA@PEAUJNIEnv_@@V?$basic_string@_WU?$char_traits@_W@std@@V?$allocator@_W@2@@std@@@Z@4HA 000000018002d060 f   Java.obj
 0001:0002c070       ?dtor$2@?0???0JavaException@@QEAA@PEAUJNIEnv_@@V?$basic_string@_WU?$char_traits@_W@std@@V?$allocator@_W@2@@std@@@Z@4HA 000000018002d070 f   Java.obj
 0001:0002c080       ?dtor$4@?0???0JavaException@@QEAA@PEAUJNIEnv_@@V?$basic_string@_WU?$char_traits@_W@std@@V?$allocator@_W@2@@std@@@Z@4HA 000000018002d080 f   Java.obj
 0001:0002c090       ?dtor$5@?0???0JavaException@@QEAA@PEAUJNIEnv_@@V?$basic_string@_WU?$char_traits@_W@std@@V?$allocator@_W@2@@std@@@Z@4HA 000000018002d090 f   Java.obj
 0001:0002c0a0       ?dtor$0@?0???0JavaStringArray@@QEAA@PEAUJNIEnv_@@V?$list@V?$basic_string@_WU?$char_traits@_W@std@@V?$allocator@_W@2@@std@@V?$allocator@V?$basic_string@_WU?$char_traits@_W@std@@V?$allocator@_W@2@@std@@@2@@std@@@Z@4HA 000000018002d0a0 f   Java.obj
 0001:0002c0b0       ?dtor$1@?0??Initialize@JavaStringArray@@AEAAX_K@Z@4HA 000000018002d0b0 f   Java.obj
 0001:0002c0c0       ?dtor$7@?0??Initialize@JavaStringArray@@AEAAX_K@Z@4HA 000000018002d0c0 f   Java.obj
 0001:0002c0d0       ?dtor$10@?0??Initialize@JavaStringArray@@AEAAX_K@Z@4HA 000000018002d0d0 f   Java.obj
 0001:0002c0e0       ?dtor$0@?0???0JavaUserPreferences@@QEAA@XZ@4HA 000000018002d0e0 f   JavaUserPreferences.obj
 0001:0002c0f0       ?dtor$0@?0??CreateInstance@JavaUserPreferences@@SAPEAV1@XZ@4HA 000000018002d0f0 f   JavaUserPreferences.obj
 0001:0002c110       ?dtor$1@?0??GetJVMUserArgs@Package@@QEAA?AV?$OrderedMap@V?$basic_string@_WU?$char_traits@_W@std@@V?$allocator@_W@2@@std@@V12@@@XZ@4HA 000000018002d110 f   Package.obj
 0001:0002c110       ?dtor$1@?0??GetJVMArgs@Package@@QEAA?AV?$OrderedMap@V?$basic_string@_WU?$char_traits@_W@std@@V?$allocator@_W@2@@std@@V12@@@XZ@4HA 000000018002d110 f   Package.obj
 0001:0002c110       ?dtor$1@?0??GetData@JavaUserPreferences@@QEAA?AV?$OrderedMap@V?$basic_string@_WU?$char_traits@_W@std@@V?$allocator@_W@2@@std@@V12@@@XZ@4HA 000000018002d110 f   JavaUserPreferences.obj
 0001:0002c110       ?dtor$1@?0??GetDefaultJVMUserArgs@Package@@QEAA?AV?$OrderedMap@V?$basic_string@_WU?$char_traits@_W@std@@V?$allocator@_W@2@@std@@V12@@@XZ@4HA 000000018002d110 f   Package.obj
 0001:0002c120       ?dtor$2@?0??GetJVMArgs@Package@@QEAA?AV?$OrderedMap@V?$basic_string@_WU?$char_traits@_W@std@@V?$allocator@_W@2@@std@@V12@@@XZ@4HA 000000018002d120 f   Package.obj
 0001:0002c120       ?dtor$2@?0??GetJVMUserArgs@Package@@QEAA?AV?$OrderedMap@V?$basic_string@_WU?$char_traits@_W@std@@V?$allocator@_W@2@@std@@V12@@@XZ@4HA 000000018002d120 f   Package.obj
 0001:0002c120       ?dtor$2@?0??GetData@JavaUserPreferences@@QEAA?AV?$OrderedMap@V?$basic_string@_WU?$char_traits@_W@std@@V?$allocator@_W@2@@std@@V12@@@XZ@4HA 000000018002d120 f   JavaUserPreferences.obj
 0001:0002c120       ?dtor$2@?0??GetDefaultJVMUserArgs@Package@@QEAA?AV?$OrderedMap@V?$basic_string@_WU?$char_traits@_W@std@@V?$allocator@_W@2@@std@@V12@@@XZ@4HA 000000018002d120 f   Package.obj
 0001:0002c130       ?catch$2@?0???$_Buynode@AEBUJavaOptionItem@@@?$_List_buy@UJavaOptionItem@@V?$allocator@UJavaOptionItem@@@std@@@std@@QEAAPEAU?$_List_node@UJavaOptionItem@@PEAX@1@PEAU21@0AEBUJavaOptionItem@@@Z@4HA 000000018002d130 f   JavaVirtualMachine.obj
 0001:0002c13d       __catch$??$_Buynode@AEBUJavaOptionItem@@@?$_List_buy@UJavaOptionItem@@V?$allocator@UJavaOptionItem@@@std@@@std@@QEAAPEAU?$_List_node@UJavaOptionItem@@PEAX@1@PEAU21@0AEBUJavaOptionItem@@@Z$0 000000018002d13d f   JavaVirtualMachine.obj
 0001:0002c160       ?dtor$24@?0??CreateOrderedMapFromKeyList@@YA?AV?$OrderedMap@V?$basic_string@_WU?$char_traits@_W@std@@V?$allocator@_W@2@@std@@V12@@@AEAV1@AEAV?$vector@V?$basic_string@_WU?$char_traits@_W@std@@V?$allocator@_W@2@@std@@V?$allocator@V?$basic_string@_WU?$char_traits@_W@std@@V?$allocator@_W@2@@std@@@2@@std@@@Z@4HA 000000018002d160 f   Package.obj
 0001:0002c160       ?dtor$19@?0??AppendValues@JavaOptions@@QEAAXV?$OrderedMap@V?$basic_string@_WU?$char_traits@_W@std@@V?$allocator@_W@2@@std@@V12@@@@Z@4HA 000000018002d160 f   JavaVirtualMachine.obj
 0001:0002c160       ?dtor$12@?0??LoadFromFile@PropertyFile@@QEAA_NV?$basic_string@_WU?$char_traits@_W@std@@V?$allocator@_W@2@@std@@@Z@4HA 000000018002d160 f   PropertyFile.obj
 0001:0002c160       ?dtor$16@?0??AppendValues@JavaOptions@@QEAAXV?$OrderedMap@V?$basic_string@_WU?$char_traits@_W@std@@V?$allocator@_W@2@@std@@V12@@@@Z@4HA 000000018002d160 f   JavaVirtualMachine.obj
 0001:0002c160       ?dtor$0@?0??AppendValue@JavaOptions@@QEAAXV?$basic_string@_WU?$char_traits@_W@std@@V?$allocator@_W@2@@std@@V23@@Z@4HA 000000018002d160 f   JavaVirtualMachine.obj
 0001:0002c160       ?dtor$24@?0??MergeJVMDefaultsWithOverrides@Package@@AEAAXXZ@4HA 000000018002d160 f   Package.obj
 0001:0002c170       ?dtor$6@?0??AppendValue@JavaOptions@@QEAAXV?$basic_string@_WU?$char_traits@_W@std@@V?$allocator@_W@2@@std@@V23@@Z@4HA 000000018002d170 f   JavaVirtualMachine.obj
 0001:0002c180       ?dtor$0@?0??AppendValues@JavaOptions@@QEAAXV?$OrderedMap@V?$basic_string@_WU?$char_traits@_W@std@@V?$allocator@_W@2@@std@@V12@@@@Z@4HA 000000018002d180 f   JavaVirtualMachine.obj
 0001:0002c190       ?dtor$37@?0??StartJVM@JavaVirtualMachine@@QEAA_NXZ@4HA 000000018002d190 f   JavaVirtualMachine.obj
 0001:0002c190       ?dtor$3@?0??AppendValues@JavaOptions@@QEAAXV?$OrderedMap@V?$basic_string@_WU?$char_traits@_W@std@@V?$allocator@_W@2@@std@@V12@@@@Z@4HA 000000018002d190 f   JavaVirtualMachine.obj
 0001:0002c190       ?dtor$20@?0??StartJVM@JavaVirtualMachine@@QEAA_NXZ@4HA 000000018002d190 f   JavaVirtualMachine.obj
 0001:0002c190       ?dtor$35@?0??StartJVM@JavaVirtualMachine@@QEAA_NXZ@4HA 000000018002d190 f   JavaVirtualMachine.obj
 0001:0002c190       ?dtor$4@?0??StartJVM@JavaVirtualMachine@@QEAA_NXZ@4HA 000000018002d190 f   JavaVirtualMachine.obj
 0001:0002c1a0       ?dtor$7@?0??AppendValues@JavaOptions@@QEAAXV?$OrderedMap@V?$basic_string@_WU?$char_traits@_W@std@@V?$allocator@_W@2@@std@@V12@@@@Z@4HA 000000018002d1a0 f   JavaVirtualMachine.obj
 0001:0002c1d0       ?dtor$26@?0??MergeJVMDefaultsWithOverrides@Package@@AEAAXXZ@4HA 000000018002d1d0 f   Package.obj
 0001:0002c1d0       ?dtor$9@?0??AppendValues@JavaOptions@@QEAAXV?$OrderedMap@V?$basic_string@_WU?$char_traits@_W@std@@V?$allocator@_W@2@@std@@V12@@@@Z@4HA 000000018002d1d0 f   JavaVirtualMachine.obj
 0001:0002c1e0       ?dtor$20@?0??AppendValues@JavaOptions@@QEAAXV?$OrderedMap@V?$basic_string@_WU?$char_traits@_W@std@@V?$allocator@_W@2@@std@@V12@@@@Z@4HA 000000018002d1e0 f   JavaVirtualMachine.obj
 0001:0002c1f0       ?dtor$0@?0??RemoveTrailingEquals@@YA?AV?$OrderedMap@V?$basic_string@_WU?$char_traits@_W@std@@V?$allocator@_W@2@@std@@V12@@@V1@@Z@4HA 000000018002d1f0 f   JavaVirtualMachine.obj
 0001:0002c200       ?dtor$1@?0??RemoveTrailingEquals@@YA?AV?$OrderedMap@V?$basic_string@_WU?$char_traits@_W@std@@V?$allocator@_W@2@@std@@V12@@@V1@@Z@4HA 000000018002d200 f   JavaVirtualMachine.obj
 0001:0002c230       ?dtor$2@?0??RemoveTrailingEquals@@YA?AV?$OrderedMap@V?$basic_string@_WU?$char_traits@_W@std@@V?$allocator@_W@2@@std@@V12@@@V1@@Z@4HA 000000018002d230 f   JavaVirtualMachine.obj
 0001:0002c240       ?dtor$14@?0??LoadFromFile@PropertyFile@@QEAA_NV?$basic_string@_WU?$char_traits@_W@std@@V?$allocator@_W@2@@std@@@Z@4HA 000000018002d240 f   PropertyFile.obj
 0001:0002c240       ?dtor$17@?0??RemoveTrailingEquals@@YA?AV?$OrderedMap@V?$basic_string@_WU?$char_traits@_W@std@@V?$allocator@_W@2@@std@@V12@@@V1@@Z@4HA 000000018002d240 f   JavaVirtualMachine.obj
 0001:0002c240       ?dtor$74@?0??Load@WindowsJavaUserPreferences@@UEAA_NV?$basic_string@_WU?$char_traits@_W@std@@V?$allocator@_W@2@@std@@@Z@4HA 000000018002d240 f   WindowsPlatform.obj
 0001:0002c240       ?dtor$18@?0??LoadFromFile@PropertyFile@@QEAA_NV?$basic_string@_WU?$char_traits@_W@std@@V?$allocator@_W@2@@std@@@Z@4HA 000000018002d240 f   PropertyFile.obj
 0001:0002c250       ?dtor$32@?0??RemoveTrailingEquals@@YA?AV?$OrderedMap@V?$basic_string@_WU?$char_traits@_W@std@@V?$allocator@_W@2@@std@@V12@@@V1@@Z@4HA 000000018002d250 f   JavaVirtualMachine.obj
 0001:0002c280       ?dtor$40@?0??RemoveTrailingEquals@@YA?AV?$OrderedMap@V?$basic_string@_WU?$char_traits@_W@std@@V?$allocator@_W@2@@std@@V12@@@V1@@Z@4HA 000000018002d280 f   JavaVirtualMachine.obj
 0001:0002c2a0       ?dtor$43@?0??RemoveTrailingEquals@@YA?AV?$OrderedMap@V?$basic_string@_WU?$char_traits@_W@std@@V?$allocator@_W@2@@std@@V12@@@V1@@Z@4HA 000000018002d2a0 f   JavaVirtualMachine.obj
 0001:0002c2a0       ?dtor$13@?0??Load@WindowsJavaUserPreferences@@UEAA_NV?$basic_string@_WU?$char_traits@_W@std@@V?$allocator@_W@2@@std@@@Z@4HA 000000018002d2a0 f   WindowsPlatform.obj
 0001:0002c2b0       ?dtor$47@?0??RemoveTrailingEquals@@YA?AV?$OrderedMap@V?$basic_string@_WU?$char_traits@_W@std@@V?$allocator@_W@2@@std@@V12@@@V1@@Z@4HA 000000018002d2b0 f   JavaVirtualMachine.obj
 0001:0002c2c0       ?catch$194@?0??StartJVM@JavaVirtualMachine@@QEAA_NXZ@4HA 000000018002d2c0 f   JavaVirtualMachine.obj
 0001:0002c2cd       __catch$?StartJVM@JavaVirtualMachine@@QEAA_NXZ$0 000000018002d2cd f   JavaVirtualMachine.obj
 0001:0002c310       ?dtor$1@?0??StartJVM@JavaVirtualMachine@@QEAA_NXZ@4HA 000000018002d310 f   JavaVirtualMachine.obj
 0001:0002c320       ?dtor$18@?0??StartJVM@JavaVirtualMachine@@QEAA_NXZ@4HA 000000018002d320 f   JavaVirtualMachine.obj
 0001:0002c320       ?dtor$5@?0??StartJVM@JavaVirtualMachine@@QEAA_NXZ@4HA 000000018002d320 f   JavaVirtualMachine.obj
 0001:0002c320       ?dtor$23@?0??MergeJVMDefaultsWithOverrides@Package@@AEAAXXZ@4HA 000000018002d320 f   Package.obj
 0001:0002c330       ?dtor$2@?0??CreateOrderedMapFromKeyList@@YA?AV?$OrderedMap@V?$basic_string@_WU?$char_traits@_W@std@@V?$allocator@_W@2@@std@@V12@@@AEAV1@AEAV?$vector@V?$basic_string@_WU?$char_traits@_W@std@@V?$allocator@_W@2@@std@@V?$allocator@V?$basic_string@_WU?$char_traits@_W@std@@V?$allocator@_W@2@@std@@@2@@std@@@Z@4HA 000000018002d330 f   Package.obj
 0001:0002c330       ?dtor$2@?0??MergeJVMDefaultsWithOverrides@Package@@AEAAXXZ@4HA 000000018002d330 f   Package.obj
 0001:0002c330       ?dtor$34@?0??StartJVM@JavaVirtualMachine@@QEAA_NXZ@4HA 000000018002d330 f   JavaVirtualMachine.obj
 0001:0002c330       ?dtor$7@?0??StartJVM@JavaVirtualMachine@@QEAA_NXZ@4HA 000000018002d330 f   JavaVirtualMachine.obj
 0001:0002c340       ?dtor$17@?0??StartJVM@JavaVirtualMachine@@QEAA_NXZ@4HA 000000018002d340 f   JavaVirtualMachine.obj
 0001:0002c340       ?dtor$3@?0??MergeJVMDefaultsWithOverrides@Package@@AEAAXXZ@4HA 000000018002d340 f   Package.obj
 0001:0002c340       ?dtor$21@?0??CreateOrderedMapFromKeyList@@YA?AV?$OrderedMap@V?$basic_string@_WU?$char_traits@_W@std@@V?$allocator@_W@2@@std@@V12@@@AEAV1@AEAV?$vector@V?$basic_string@_WU?$char_traits@_W@std@@V?$allocator@_W@2@@std@@V?$allocator@V?$basic_string@_WU?$char_traits@_W@std@@V?$allocator@_W@2@@std@@@2@@std@@@Z@4HA 000000018002d340 f   Package.obj
 0001:0002c350       ?dtor$19@?0??StartJVM@JavaVirtualMachine@@QEAA_NXZ@4HA 000000018002d350 f   JavaVirtualMachine.obj
 0001:0002c360       ?dtor$32@?0??StartJVM@JavaVirtualMachine@@QEAA_NXZ@4HA 000000018002d360 f   JavaVirtualMachine.obj
 0001:0002c370       ?dtor$42@?0??StartJVM@JavaVirtualMachine@@QEAA_NXZ@4HA 000000018002d370 f   JavaVirtualMachine.obj
 0001:0002c380       ?dtor$45@?0??StartJVM@JavaVirtualMachine@@QEAA_NXZ@4HA 000000018002d380 f   JavaVirtualMachine.obj
 0001:0002c390       ?dtor$85@?0??StartJVM@JavaVirtualMachine@@QEAA_NXZ@4HA 000000018002d390 f   JavaVirtualMachine.obj
 0001:0002c3c0       ?catch$0@?0??_Buynode0@?$_List_alloc@U?$_List_base_types@UJavaOptionItem@@V?$allocator@UJavaOptionItem@@@std@@@std@@@std@@QEAAPEAU?$_List_node@UJavaOptionItem@@PEAX@2@PEAU32@0@Z@4HA 000000018002d3c0 f   JavaVirtualMachine.obj
 0001:0002c3cd       __catch$?_Buynode0@?$_List_alloc@U?$_List_base_types@UJavaOptionItem@@V?$allocator@UJavaOptionItem@@@std@@@std@@@std@@QEAAPEAU?$_List_node@UJavaOptionItem@@PEAX@2@PEAU32@0@Z$0 000000018002d3cd f   JavaVirtualMachine.obj
 0001:0002c3f0       ?dtor$1@?0??ExpandMacros@Macros@@QEAA?AV?$basic_string@_WU?$char_traits@_W@std@@V?$allocator@_W@2@@std@@V23@@Z@4HA 000000018002d3f0 f   Macros.obj
 0001:0002c420       ?dtor$0@?0??GetInstance@Macros@@SAAEAV1@XZ@4HA 000000018002d420 f   Macros.obj
 0001:0002c420       ?dtor$18@?0??Initialize@Macros@@SAXXZ@4HA 000000018002d420 f   Macros.obj
 0001:0002c430       ?catch$20@?0???$_Emplace_reallocate@V?$basic_string@_WU?$char_traits@_W@std@@V?$allocator@_W@2@@std@@@?$vector@V?$basic_string@_WU?$char_traits@_W@std@@V?$allocator@_W@2@@std@@V?$allocator@V?$basic_string@_WU?$char_traits@_W@std@@V?$allocator@_W@2@@std@@@2@@std@@QEAAPEAV?$basic_string@_WU?$char_traits@_W@std@@V?$allocator@_W@2@@1@QEAV21@$$QEAV21@@Z@4HA 000000018002d430 f   main.obj
 0001:0002c43e       __catch$??$_Emplace_reallocate@V?$basic_string@_WU?$char_traits@_W@std@@V?$allocator@_W@2@@std@@@?$vector@V?$basic_string@_WU?$char_traits@_W@std@@V?$allocator@_W@2@@std@@V?$allocator@V?$basic_string@_WU?$char_traits@_W@std@@V?$allocator@_W@2@@std@@@2@@std@@QEAAPEAV?$basic_string@_WU?$char_traits@_W@std@@V?$allocator@_W@2@@1@QEAV21@$$QEAV21@@Z$0 000000018002d43e f   main.obj
 0001:0002c480       ?catch$5@?0???0?$vector@V?$basic_string@_WU?$char_traits@_W@std@@V?$allocator@_W@2@@std@@V?$allocator@V?$basic_string@_WU?$char_traits@_W@std@@V?$allocator@_W@2@@std@@@2@@std@@QEAA@AEBV01@@Z@4HA 000000018002d480 f   main.obj
 0001:0002c48d       __catch$??0?$vector@V?$basic_string@_WU?$char_traits@_W@std@@V?$allocator@_W@2@@std@@V?$allocator@V?$basic_string@_WU?$char_traits@_W@std@@V?$allocator@_W@2@@std@@@2@@std@@QEAA@AEBV01@@Z$0 000000018002d48d f   main.obj
 0001:0002c4a0       ?dtor$0@?0???0?$vector@V?$basic_string@_WU?$char_traits@_W@std@@V?$allocator@_W@2@@std@@V?$allocator@V?$basic_string@_WU?$char_traits@_W@std@@V?$allocator@_W@2@@std@@@2@@std@@QEAA@AEBV01@@Z@4HA 000000018002d4a0 f   main.obj
 0001:0002c4b0       start_launcher$catch$72    000000018002d4b0 f   main.obj
 0001:0002c4bd       __catch$start_launcher$0   000000018002d4bd f   main.obj
 0001:0002c500       start_launcher$dtor$10     000000018002d500 f   main.obj
 0001:0002c510       start_launcher$dtor$11     000000018002d510 f   main.obj
 0001:0002c520       start_launcher$dtor$14     000000018002d520 f   main.obj
 0001:0002c520       ?dtor$0@?0??Execute@WindowsProcess@@UEAA_NV?$basic_string@_WU?$char_traits@_W@std@@V?$allocator@_W@2@@std@@V?$vector@V?$basic_string@_WU?$char_traits@_W@std@@V?$allocator@_W@2@@std@@V?$allocator@V?$basic_string@_WU?$char_traits@_W@std@@V?$allocator@_W@2@@std@@@2@@3@_N@Z@4HA 000000018002d520 f   WindowsPlatform.obj
 0001:0002c530       ?dtor$0@?0???0Messages@@AEAA@XZ@4HA 000000018002d530 f   Messages.obj
 0001:0002c540       ?dtor$0@?0??GetInstance@Messages@@SAAEAV1@XZ@4HA 000000018002d540 f   Messages.obj
 0001:0002c550       ?catch$4@?0???$_Reusenode@AEBV?$basic_string@_WU?$char_traits@_W@std@@V?$allocator@_W@2@@std@@@?$list@V?$basic_string@_WU?$char_traits@_W@std@@V?$allocator@_W@2@@std@@V?$allocator@V?$basic_string@_WU?$char_traits@_W@std@@V?$allocator@_W@2@@std@@@2@@std@@QEAAXV?$_List_iterator@V?$_List_val@U?$_List_simple_types@V?$basic_string@_WU?$char_traits@_W@std@@V?$allocator@_W@2@@std@@@std@@@std@@@1@AEBV?$basic_string@_WU?$char_traits@_W@std@@V?$allocator@_W@2@@1@@Z@4HA 000000018002d550 f   Package.obj
 0001:0002c55f       __catch$??$_Reusenode@AEBV?$basic_string@_WU?$char_traits@_W@std@@V?$allocator@_W@2@@std@@@?$list@V?$basic_string@_WU?$char_traits@_W@std@@V?$allocator@_W@2@@std@@V?$allocator@V?$basic_string@_WU?$char_traits@_W@std@@V?$allocator@_W@2@@std@@@2@@std@@QEAAXV?$_List_iterator@V?$_List_val@U?$_List_simple_types@V?$basic_string@_WU?$char_traits@_W@std@@V?$allocator@_W@2@@std@@@std@@@std@@@1@AEBV?$basic_string@_WU?$char_traits@_W@std@@V?$allocator@_W@2@@1@@Z$0 000000018002d55f f   Package.obj
 0001:0002c590       ?catch$4@?0???$assign@V?$_List_const_iterator@V?$_List_val@U?$_List_simple_types@V?$basic_string@_WU?$char_traits@_W@std@@V?$allocator@_W@2@@std@@@std@@@std@@@std@@X@?$list@V?$basic_string@_WU?$char_traits@_W@std@@V?$allocator@_W@2@@std@@V?$allocator@V?$basic_string@_WU?$char_traits@_W@std@@V?$allocator@_W@2@@std@@@2@@std@@QEAAXV?$_List_const_iterator@V?$_List_val@U?$_List_simple_types@V?$basic_string@_WU?$char_traits@_W@std@@V?$allocator@_W@2@@std@@@std@@@std@@@1@0@Z@4HA 000000018002d590 f   Package.obj
 0001:0002c59d       __catch$??$assign@V?$_List_const_iterator@V?$_List_val@U?$_List_simple_types@V?$basic_string@_WU?$char_traits@_W@std@@V?$allocator@_W@2@@std@@@std@@@std@@@std@@X@?$list@V?$basic_string@_WU?$char_traits@_W@std@@V?$allocator@_W@2@@std@@V?$allocator@V?$basic_string@_WU?$char_traits@_W@std@@V?$allocator@_W@2@@std@@@2@@std@@QEAAXV?$_List_const_iterator@V?$_List_val@U?$_List_simple_types@V?$basic_string@_WU?$char_traits@_W@std@@V?$allocator@_W@2@@std@@@std@@@std@@@1@0@Z$0 000000018002d59d f   Package.obj
 0001:0002c5b0       ?dtor$0@?0???0PackageBootFields@@QEAA@XZ@4HA 000000018002d5b0 f   Package.obj
 0001:0002c5c0       ?dtor$0@?0??CreateOrderedMapFromKeyList@@YA?AV?$OrderedMap@V?$basic_string@_WU?$char_traits@_W@std@@V?$allocator@_W@2@@std@@V12@@@AEAV1@AEAV?$vector@V?$basic_string@_WU?$char_traits@_W@std@@V?$allocator@_W@2@@std@@V?$allocator@V?$basic_string@_WU?$char_traits@_W@std@@V?$allocator@_W@2@@std@@@2@@std@@@Z@4HA 000000018002d5c0 f   Package.obj
 0001:0002c5f0       ?dtor$18@?0??CreateOrderedMapFromKeyList@@YA?AV?$OrderedMap@V?$basic_string@_WU?$char_traits@_W@std@@V?$allocator@_W@2@@std@@V12@@@AEAV1@AEAV?$vector@V?$basic_string@_WU?$char_traits@_W@std@@V?$allocator@_W@2@@std@@V?$allocator@V?$basic_string@_WU?$char_traits@_W@std@@V?$allocator@_W@2@@std@@@2@@std@@@Z@4HA 000000018002d5f0 f   Package.obj
 0001:0002c610       ?dtor$25@?0??CreateOrderedMapFromKeyList@@YA?AV?$OrderedMap@V?$basic_string@_WU?$char_traits@_W@std@@V?$allocator@_W@2@@std@@V12@@@AEAV1@AEAV?$vector@V?$basic_string@_WU?$char_traits@_W@std@@V?$allocator@_W@2@@std@@V?$allocator@V?$basic_string@_WU?$char_traits@_W@std@@V?$allocator@_W@2@@std@@@2@@std@@@Z@4HA 000000018002d610 f   Package.obj
 0001:0002c620       ?dtor$0@?0??GetInstance@Package@@SAAEAV1@XZ@4HA 000000018002d620 f   Package.obj
 0001:0002c630       ?dtor$1@?0??GetInstance@Package@@SAAEAV1@XZ@4HA 000000018002d630 f   Package.obj
 0001:0002c640       ?dtor$2@?0??GetInstance@Package@@SAAEAV1@XZ@4HA 000000018002d640 f   Package.obj
 0001:0002c650       ?dtor$3@?0??GetInstance@Package@@SAAEAV1@XZ@4HA 000000018002d650 f   Package.obj
 0001:0002c660       ?dtor$4@?0??GetInstance@Package@@SAAEAV1@XZ@4HA 000000018002d660 f   Package.obj
 0001:0002c680       ?dtor$5@?0??GetInstance@Package@@SAAEAV1@XZ@4HA 000000018002d680 f   Package.obj
 0001:0002c6a0       ?dtor$0@?0??GetKeysThatAreNotDuplicates@@YA?AV?$vector@V?$basic_string@_WU?$char_traits@_W@std@@V?$allocator@_W@2@@std@@V?$allocator@V?$basic_string@_WU?$char_traits@_W@std@@V?$allocator@_W@2@@std@@@2@@std@@AEAV?$OrderedMap@V?$basic_string@_WU?$char_traits@_W@std@@V?$allocator@_W@2@@std@@V12@@@0@Z@4HA 000000018002d6a0 f   Package.obj
 0001:0002c6d0       ?dtor$1@?0??GetKeysThatAreNotDuplicates@@YA?AV?$vector@V?$basic_string@_WU?$char_traits@_W@std@@V?$allocator@_W@2@@std@@V?$allocator@V?$basic_string@_WU?$char_traits@_W@std@@V?$allocator@_W@2@@std@@@2@@std@@AEAV?$OrderedMap@V?$basic_string@_WU?$char_traits@_W@std@@V?$allocator@_W@2@@std@@V12@@@0@Z@4HA 000000018002d6d0 f   Package.obj
 0001:0002c6e0       ?catch$42@?0??GetKeysThatAreNotOverridesOfDefaultValues@@YA?AV?$vector@V?$basic_string@_WU?$char_traits@_W@std@@V?$allocator@_W@2@@std@@V?$allocator@V?$basic_string@_WU?$char_traits@_W@std@@V?$allocator@_W@2@@std@@@2@@std@@AEAV?$OrderedMap@V?$basic_string@_WU?$char_traits@_W@std@@V?$allocator@_W@2@@std@@V12@@@0@Z@4HA 000000018002d6e0 f   Package.obj
 0001:0002c6ed       __catch$?GetKeysThatAreNotOverridesOfDefaultValues@@YA?AV?$vector@V?$basic_string@_WU?$char_traits@_W@std@@V?$allocator@_W@2@@std@@V?$allocator@V?$basic_string@_WU?$char_traits@_W@std@@V?$allocator@_W@2@@std@@@2@@std@@AEAV?$OrderedMap@V?$basic_string@_WU?$char_traits@_W@std@@V?$allocator@_W@2@@std@@V12@@@0@Z$0 000000018002d6ed f   Package.obj
 0001:0002c700       ?dtor$0@?0??GetKeysThatAreNotOverridesOfDefaultValues@@YA?AV?$vector@V?$basic_string@_WU?$char_traits@_W@std@@V?$allocator@_W@2@@std@@V?$allocator@V?$basic_string@_WU?$char_traits@_W@std@@V?$allocator@_W@2@@std@@@2@@std@@AEAV?$OrderedMap@V?$basic_string@_WU?$char_traits@_W@std@@V?$allocator@_W@2@@std@@V12@@@0@Z@4HA 000000018002d700 f   Package.obj
 0001:0002c730       ?dtor$1@?0??GetKeysThatAreNotOverridesOfDefaultValues@@YA?AV?$vector@V?$basic_string@_WU?$char_traits@_W@std@@V?$allocator@_W@2@@std@@V?$allocator@V?$basic_string@_WU?$char_traits@_W@std@@V?$allocator@_W@2@@std@@@2@@std@@AEAV?$OrderedMap@V?$basic_string@_WU?$char_traits@_W@std@@V?$allocator@_W@2@@std@@V12@@@0@Z@4HA 000000018002d730 f   Package.obj
 0001:0002c740       ?dtor$0@?0??Initialize@Package@@QEAAXXZ@4HA 000000018002d740 f   Package.obj
 0001:0002c760       ?dtor$7@?0??Initialize@Package@@QEAAXXZ@4HA 000000018002d760 f   Package.obj
 0001:0002c770       ?dtor$45@?0??Initialize@Package@@QEAAXXZ@4HA 000000018002d770 f   Package.obj
 0001:0002c770       ?dtor$41@?0??Initialize@Package@@QEAAXXZ@4HA 000000018002d770 f   Package.obj
 0001:0002c770       ?dtor$29@?0??Initialize@Package@@QEAAXXZ@4HA 000000018002d770 f   Package.obj
 0001:0002c770       ?dtor$55@?0??Initialize@Package@@QEAAXXZ@4HA 000000018002d770 f   Package.obj
 0001:0002c770       ?dtor$14@?0??Initialize@Package@@QEAAXXZ@4HA 000000018002d770 f   Package.obj
 0001:0002c770       ?dtor$82@?0??Initialize@Package@@QEAAXXZ@4HA 000000018002d770 f   Package.obj
 0001:0002c770       ?dtor$81@?0??Initialize@Package@@QEAAXXZ@4HA 000000018002d770 f   Package.obj
 0001:0002c770       ?dtor$79@?0??Initialize@Package@@QEAAXXZ@4HA 000000018002d770 f   Package.obj
 0001:0002c770       ?dtor$10@?0??Initialize@Package@@QEAAXXZ@4HA 000000018002d770 f   Package.obj
 0001:0002c770       ?dtor$20@?0??Initialize@Package@@QEAAXXZ@4HA 000000018002d770 f   Package.obj
 0001:0002c780       ?dtor$58@?0??Initialize@Package@@QEAAXXZ@4HA 000000018002d780 f   Package.obj
 0001:0002c790       ?dtor$67@?0??Initialize@Package@@QEAAXXZ@4HA 000000018002d790 f   Package.obj
 0001:0002c7a0       ?dtor$73@?0??Initialize@Package@@QEAAXXZ@4HA 000000018002d7a0 f   Package.obj
 0001:0002c7b0       ?dtor$75@?0??Initialize@Package@@QEAAXXZ@4HA 000000018002d7b0 f   Package.obj
 0001:0002c7c0       ?dtor$0@?0??MergeJVMDefaultsWithOverrides@Package@@AEAAXXZ@4HA 000000018002d7c0 f   Package.obj
 0001:0002c7c0       ?dtor$12@?0??Load@WindowsJavaUserPreferences@@UEAA_NV?$basic_string@_WU?$char_traits@_W@std@@V?$allocator@_W@2@@std@@@Z@4HA 000000018002d7c0 f   WindowsPlatform.obj
 0001:0002c7d0       ?dtor$1@?0??MergeJVMDefaultsWithOverrides@Package@@AEAAXXZ@4HA 000000018002d7d0 f   Package.obj
 0001:0002c7e0       ?dtor$8@?0??MergeJVMDefaultsWithOverrides@Package@@AEAAXXZ@4HA 000000018002d7e0 f   Package.obj
 0001:0002c7f0       ?dtor$9@?0??MergeJVMDefaultsWithOverrides@Package@@AEAAXXZ@4HA 000000018002d7f0 f   Package.obj
 0001:0002c800       ?dtor$13@?0??MergeJVMDefaultsWithOverrides@Package@@AEAAXXZ@4HA 000000018002d800 f   Package.obj
 0001:0002c810       ?dtor$19@?0??MergeJVMDefaultsWithOverrides@Package@@AEAAXXZ@4HA 000000018002d810 f   Package.obj
 0001:0002c820       ?dtor$20@?0??MergeJVMDefaultsWithOverrides@Package@@AEAAXXZ@4HA 000000018002d820 f   Package.obj
 0001:0002c840       ?dtor$27@?0??MergeJVMDefaultsWithOverrides@Package@@AEAAXXZ@4HA 000000018002d840 f   Package.obj
 0001:0002c850       ?dtor$4@?0??PromoteAppCDSState@Package@@AEAAXPEAVISectionalPropertyContainer@@@Z@4HA 000000018002d850 f   Package.obj
 0001:0002c880       ?dtor$0@?0??ReadJVMArgs@Package@@AEAAXPEAVISectionalPropertyContainer@@@Z@4HA 000000018002d880 f   Package.obj
 0001:0002c890       ?dtor$0@?0??SaveJVMUserArgOverrides@Package@@AEAAXV?$OrderedMap@V?$basic_string@_WU?$char_traits@_W@std@@V?$allocator@_W@2@@std@@V12@@@@Z@4HA 000000018002d890 f   Package.obj
 0001:0002c8a0       ?dtor$1@?0??SaveJVMUserArgOverrides@Package@@AEAAXV?$OrderedMap@V?$basic_string@_WU?$char_traits@_W@std@@V?$allocator@_W@2@@std@@V12@@@@Z@4HA 000000018002d8a0 f   Package.obj
 0001:0002c8b0       ?dtor$1@?0??SetCommandLineArguments@Package@@QEAAXHQEAPEA_W@Z@4HA 000000018002d8b0 f   Package.obj
 0001:0002c8c0       ?dtor$0@?0??SetJVMUserArgOverrides@Package@@QEAAXV?$OrderedMap@V?$basic_string@_WU?$char_traits@_W@std@@V?$allocator@_W@2@@std@@V12@@@@Z@4HA 000000018002d8c0 f   Package.obj
 0001:0002c8d0       ?dtor$1@?0??SetJVMUserArgOverrides@Package@@QEAAXV?$OrderedMap@V?$basic_string@_WU?$char_traits@_W@std@@V?$allocator@_W@2@@std@@V12@@@@Z@4HA 000000018002d8d0 f   Package.obj
 0001:0002c8e0       ?dtor$2@?0??SetJVMUserArgOverrides@Package@@QEAAXV?$OrderedMap@V?$basic_string@_WU?$char_traits@_W@std@@V?$allocator@_W@2@@std@@V12@@@@Z@4HA 000000018002d8e0 f   Package.obj
 0001:0002c8f0       ?dtor$3@?0??SetJVMUserArgOverrides@Package@@QEAAXV?$OrderedMap@V?$basic_string@_WU?$char_traits@_W@std@@V?$allocator@_W@2@@std@@V12@@@@Z@4HA 000000018002d8f0 f   Package.obj
 0001:0002c900       ?dtor$4@?0??SetJVMUserArgOverrides@Package@@QEAAXV?$OrderedMap@V?$basic_string@_WU?$char_traits@_W@std@@V?$allocator@_W@2@@std@@V12@@@@Z@4HA 000000018002d900 f   Package.obj
 0001:0002c910       ?dtor$7@?0??SetJVMUserArgOverrides@Package@@QEAAXV?$OrderedMap@V?$basic_string@_WU?$char_traits@_W@std@@V?$allocator@_W@2@@std@@V12@@@@Z@4HA 000000018002d910 f   Package.obj
 0001:0002c920       ?dtor$8@?0??SetJVMUserArgOverrides@Package@@QEAAXV?$OrderedMap@V?$basic_string@_WU?$char_traits@_W@std@@V?$allocator@_W@2@@std@@V12@@@@Z@4HA 000000018002d920 f   Package.obj
 0001:0002c930       ?dtor$11@?0??SetJVMUserArgOverrides@Package@@QEAAXV?$OrderedMap@V?$basic_string@_WU?$char_traits@_W@std@@V?$allocator@_W@2@@std@@V12@@@@Z@4HA 000000018002d930 f   Package.obj
 0001:0002c940       ?dtor$12@?0??SetJVMUserArgOverrides@Package@@QEAAXV?$OrderedMap@V?$basic_string@_WU?$char_traits@_W@std@@V?$allocator@_W@2@@std@@V12@@@@Z@4HA 000000018002d940 f   Package.obj
 0001:0002c950       ?dtor$32@?0??SetJVMUserArgOverrides@Package@@QEAAXV?$OrderedMap@V?$basic_string@_WU?$char_traits@_W@std@@V?$allocator@_W@2@@std@@V12@@@@Z@4HA 000000018002d950 f   Package.obj
 0001:0002c960       ?dtor$33@?0??SetJVMUserArgOverrides@Package@@QEAAXV?$OrderedMap@V?$basic_string@_WU?$char_traits@_W@std@@V?$allocator@_W@2@@std@@V12@@@@Z@4HA 000000018002d960 f   Package.obj
 0001:0002c970       ?dtor$0@?0??GetInstance@Platform@@SAAEAV1@XZ@4HA 000000018002d970 f   Platform.obj
 0001:0002c980       ?dtor$0@?0??GetProcAddress@Library@@IEAAPEAXV?$basic_string@DU?$char_traits@D@std@@V?$allocator@D@2@@std@@@Z@4HA 000000018002d980 f   Platform.obj
 0001:0002c990       ?dtor$0@?0???0PlatformString@@QEAA@_K@Z@4HA 000000018002d990 f   PlatformString.obj
 0001:0002c9a0       ?dtor$1@?0???0PlatformString@@QEAA@_K@Z@4HA 000000018002d9a0 f   PlatformString.obj
 0001:0002c9b0       ?dtor$3@?0???0PlatformString@@QEAA@_K@Z@4HA 000000018002d9b0 f   PlatformString.obj
 0001:0002c9e0       ?dtor$4@?0???0PlatformString@@QEAA@_K@Z@4HA 000000018002d9e0 f   PlatformString.obj
 0001:0002ca00       ?dtor$9@?0???0PlatformString@@QEAA@_K@Z@4HA 000000018002da00 f   PlatformString.obj
 0001:0002ca30       ?dtor$1@?0??Format@PlatformString@@SA?AV?$basic_string@_WU?$char_traits@_W@std@@V?$allocator@_W@2@@std@@V23@ZZ@4HA 000000018002da30 f   PlatformString.obj
 0001:0002ca30       ?dtor$0@?0??GetAppDataDirectory@WindowsPlatform@@UEAA?AV?$basic_string@_WU?$char_traits@_W@std@@V?$allocator@_W@2@@std@@XZ@4HA 000000018002da30 f   WindowsPlatform.obj
 0001:0002ca60       ?dtor$0@?0??toUnicodeString@PlatformString@@QEAA?AV?$basic_string@_WU?$char_traits@_W@std@@V?$allocator@_W@2@@std@@XZ@4HA 000000018002da60 f   PlatformString.obj
 0001:0002ca90       ?dtor$0@?0???0PropertyFile@@QEAA@XZ@4HA 000000018002da90 f   PropertyFile.obj
 0001:0002caa0       ?dtor$0@?0??LoadFromFile@PropertyFile@@QEAA_NV?$basic_string@_WU?$char_traits@_W@std@@V?$allocator@_W@2@@std@@@Z@4HA 000000018002daa0 f   PropertyFile.obj
 0001:0002cab0       ?dtor$3@?0??LoadFromFile@PropertyFile@@QEAA_NV?$basic_string@_WU?$char_traits@_W@std@@V?$allocator@_W@2@@std@@@Z@4HA 000000018002dab0 f   PropertyFile.obj
 0001:0002cac0       ?dtor$4@?0??LoadFromFile@PropertyFile@@QEAA_NV?$basic_string@_WU?$char_traits@_W@std@@V?$allocator@_W@2@@std@@@Z@4HA 000000018002dac0 f   PropertyFile.obj
 0001:0002cad0       ?dtor$5@?0??LoadFromFile@PropertyFile@@QEAA_NV?$basic_string@_WU?$char_traits@_W@std@@V?$allocator@_W@2@@std@@@Z@4HA 000000018002dad0 f   PropertyFile.obj
 0001:0002cae0       ?dtor$11@?0??LoadFromFile@PropertyFile@@QEAA_NV?$basic_string@_WU?$char_traits@_W@std@@V?$allocator@_W@2@@std@@@Z@4HA 000000018002dae0 f   PropertyFile.obj
 0001:0002caf0       ?dtor$13@?0??LoadFromFile@PropertyFile@@QEAA_NV?$basic_string@_WU?$char_traits@_W@std@@V?$allocator@_W@2@@std@@@Z@4HA 000000018002daf0 f   PropertyFile.obj
 0001:0002cb10       ?dtor$16@?0??LoadFromFile@PropertyFile@@QEAA_NV?$basic_string@_WU?$char_traits@_W@std@@V?$allocator@_W@2@@std@@@Z@4HA 000000018002db10 f   PropertyFile.obj
 0001:0002cb20       ?dtor$20@?0??LoadFromFile@PropertyFile@@QEAA_NV?$basic_string@_WU?$char_traits@_W@std@@V?$allocator@_W@2@@std@@@Z@4HA 000000018002db20 f   PropertyFile.obj
 0001:0002cb30       ?dtor$10@?0???$_Lookup_equiv@_WV?$regex_traits@_W@std@@@std@@YA_NGPEBU?$_Sequence@_W@0@AEBV?$regex_traits@_W@0@@Z@4HA 000000018002db30 f   WindowsPlatform.obj
 0001:0002cb60       ?dtor$11@?0???$_Lookup_equiv@_WV?$regex_traits@_W@std@@@std@@YA_NGPEBU?$_Sequence@_W@0@AEBV?$regex_traits@_W@0@@Z@4HA 000000018002db60 f   WindowsPlatform.obj
 0001:0002cb70       ?catch$0@?0???$_Range_construct_or_tidy@PEB_W@?$vector@_WV?$allocator@_W@std@@@std@@AEAAXPEB_W0Uforward_iterator_tag@1@@Z@4HA 000000018002db70 f   WindowsPlatform.obj
 0001:0002cb70       ?catch$0@?0???$_Range_construct_or_tidy@PEA_W@?$vector@_WV?$allocator@_W@std@@@std@@AEAAXPEA_W0Uforward_iterator_tag@1@@Z@4HA 000000018002db70 f   WindowsPlatform.obj
 0001:0002cb7d       __catch$??$_Range_construct_or_tidy@PEB_W@?$vector@_WV?$allocator@_W@std@@@std@@AEAAXPEB_W0Uforward_iterator_tag@1@@Z$0 000000018002db7d f   WindowsPlatform.obj
 0001:0002cb7d       __catch$??$_Range_construct_or_tidy@PEA_W@?$vector@_WV?$allocator@_W@std@@@std@@AEAAXPEA_W0Uforward_iterator_tag@1@@Z$0 000000018002db7d f   WindowsPlatform.obj
 0001:0002cb90       ?dtor$0@?0???$_Regex_search1@V?$_String_const_iterator@V?$_String_val@U?$_Simple_types@_W@std@@@std@@@std@@V?$allocator@V?$sub_match@V?$_String_const_iterator@V?$_String_val@U?$_Simple_types@_W@std@@@std@@@std@@@std@@@2@_WV?$regex_traits@_W@2@V12@@std@@YA_NV?$_String_const_iterator@V?$_String_val@U?$_Simple_types@_W@std@@@std@@@0@0PEAV?$match_results@V?$_String_const_iterator@V?$_String_val@U?$_Simple_types@_W@std@@@std@@@std@@V?$allocator@V?$sub_match@V?$_String_const_iterator@V?$_String_val@U?$_Simple_types@_W@std@@@std@@@std@@@std@@@2@@0@AEBV?$basic_regex@_WV?$regex_traits@_W@std@@@0@W4match_flag_type@regex_constants@0@0@Z@4HA 000000018002db90 f   WindowsPlatform.obj
 0001:0002cba0       ?dtor$1@?0???$_Regex_search1@V?$_String_const_iterator@V?$_String_val@U?$_Simple_types@_W@std@@@std@@@std@@V?$allocator@V?$sub_match@V?$_String_const_iterator@V?$_String_val@U?$_Simple_types@_W@std@@@std@@@std@@@std@@@2@_WV?$regex_traits@_W@2@V12@@std@@YA_NV?$_String_const_iterator@V?$_String_val@U?$_Simple_types@_W@std@@@std@@@0@0PEAV?$match_results@V?$_String_const_iterator@V?$_String_val@U?$_Simple_types@_W@std@@@std@@@std@@V?$allocator@V?$sub_match@V?$_String_const_iterator@V?$_String_val@U?$_Simple_types@_W@std@@@std@@@std@@@std@@@2@@0@AEBV?$basic_regex@_WV?$regex_traits@_W@std@@@0@W4match_flag_type@regex_constants@0@0@Z@4HA 000000018002dba0 f   WindowsPlatform.obj
 0001:0002cbb0       ?dtor$2@?0???$_Regex_search1@V?$_String_const_iterator@V?$_String_val@U?$_Simple_types@_W@std@@@std@@@std@@V?$allocator@V?$sub_match@V?$_String_const_iterator@V?$_String_val@U?$_Simple_types@_W@std@@@std@@@std@@@std@@@2@_WV?$regex_traits@_W@2@V12@@std@@YA_NV?$_String_const_iterator@V?$_String_val@U?$_Simple_types@_W@std@@@std@@@0@0PEAV?$match_results@V?$_String_const_iterator@V?$_String_val@U?$_Simple_types@_W@std@@@std@@@std@@V?$allocator@V?$sub_match@V?$_String_const_iterator@V?$_String_val@U?$_Simple_types@_W@std@@@std@@@std@@@std@@@2@@0@AEBV?$basic_regex@_WV?$regex_traits@_W@std@@@0@W4match_flag_type@regex_constants@0@0@Z@4HA 000000018002dbb0 f   WindowsPlatform.obj
 0001:0002cbc0       ?dtor$3@?0???$_Regex_search1@V?$_String_const_iterator@V?$_String_val@U?$_Simple_types@_W@std@@@std@@@std@@V?$allocator@V?$sub_match@V?$_String_const_iterator@V?$_String_val@U?$_Simple_types@_W@std@@@std@@@std@@@std@@@2@_WV?$regex_traits@_W@2@V12@@std@@YA_NV?$_String_const_iterator@V?$_String_val@U?$_Simple_types@_W@std@@@std@@@0@0PEAV?$match_results@V?$_String_const_iterator@V?$_String_val@U?$_Simple_types@_W@std@@@std@@@std@@V?$allocator@V?$sub_match@V?$_String_const_iterator@V?$_String_val@U?$_Simple_types@_W@std@@@std@@@std@@@std@@@2@@0@AEBV?$basic_regex@_WV?$regex_traits@_W@std@@@0@W4match_flag_type@regex_constants@0@0@Z@4HA 000000018002dbc0 f   WindowsPlatform.obj
 0001:0002cbe0       ?catch$0@?0???$_Resize@V<lambda_1e23b6a92ca70a0ab38016e3322b0015>@@@?$vector@V?$sub_match@V?$_String_const_iterator@V?$_String_val@U?$_Simple_types@_W@std@@@std@@@std@@@std@@V?$allocator@V?$sub_match@V?$_String_const_iterator@V?$_String_val@U?$_Simple_types@_W@std@@@std@@@std@@@std@@@2@@std@@AEAAX_KV<lambda_1e23b6a92ca70a0ab38016e3322b0015>@@@Z@4HA 000000018002dbe0 f   WindowsPlatform.obj
 0001:0002cbed       __catch$??$_Resize@V<lambda_1e23b6a92ca70a0ab38016e3322b0015>@@@?$vector@V?$sub_match@V?$_String_const_iterator@V?$_String_val@U?$_Simple_types@_W@std@@@std@@@std@@@std@@V?$allocator@V?$sub_match@V?$_String_const_iterator@V?$_String_val@U?$_Simple_types@_W@std@@@std@@@std@@@std@@@2@@std@@AEAAX_KV<lambda_1e23b6a92ca70a0ab38016e3322b0015>@@@Z$0 000000018002dbed f   WindowsPlatform.obj
 0001:0002cc10       ?catch$0@?0???$_Resize@V<lambda_2aa502090c117147aa783e21f2063a98>@@@?$vector@U_Loop_vals_t@std@@V?$allocator@U_Loop_vals_t@std@@@2@@std@@AEAAX_KV<lambda_2aa502090c117147aa783e21f2063a98>@@@Z@4HA 000000018002dc10 f   WindowsPlatform.obj
 0001:0002cc1d       __catch$??$_Resize@V<lambda_2aa502090c117147aa783e21f2063a98>@@@?$vector@U_Loop_vals_t@std@@V?$allocator@U_Loop_vals_t@std@@@2@@std@@AEAAX_KV<lambda_2aa502090c117147aa783e21f2063a98>@@@Z$0 000000018002dc1d f   WindowsPlatform.obj
 0001:0002cc40       ?catch$0@?0???$_Resize@V<lambda_98c5e27e47c2b2f36c078c0d04062b98>@@@?$vector@U_Grp_t@?$_Tgt_state_t@V?$_String_const_iterator@V?$_String_val@U?$_Simple_types@_W@std@@@std@@@std@@@std@@V?$allocator@U_Grp_t@?$_Tgt_state_t@V?$_String_const_iterator@V?$_String_val@U?$_Simple_types@_W@std@@@std@@@std@@@std@@@3@@std@@AEAAX_KV<lambda_98c5e27e47c2b2f36c078c0d04062b98>@@@Z@4HA 000000018002dc40 f   WindowsPlatform.obj
 0001:0002cc4d       __catch$??$_Resize@V<lambda_98c5e27e47c2b2f36c078c0d04062b98>@@@?$vector@U_Grp_t@?$_Tgt_state_t@V?$_String_const_iterator@V?$_String_val@U?$_Simple_types@_W@std@@@std@@@std@@@std@@V?$allocator@U_Grp_t@?$_Tgt_state_t@V?$_String_const_iterator@V?$_String_val@U?$_Simple_types@_W@std@@@std@@@std@@@std@@@3@@std@@AEAAX_KV<lambda_98c5e27e47c2b2f36c078c0d04062b98>@@@Z$0 000000018002dc4d f   WindowsPlatform.obj
 0001:0002cc70       ?catch$0@?0???$_Resize@V<lambda_f5f77627601f5a8a55cdb6434a10ac65>@@@?$vector@IV?$allocator@I@std@@@std@@AEAAX_KV<lambda_f5f77627601f5a8a55cdb6434a10ac65>@@@Z@4HA 000000018002dc70 f   WindowsPlatform.obj
 0001:0002cc7d       __catch$??$_Resize@V<lambda_f5f77627601f5a8a55cdb6434a10ac65>@@@?$vector@IV?$allocator@I@std@@@std@@AEAAX_KV<lambda_f5f77627601f5a8a55cdb6434a10ac65>@@@Z$0 000000018002dc7d f   WindowsPlatform.obj
 0001:0002cca0       ?dtor$0@?0???$transform_primary@PEB_W@?$_Regex_traits@_W@std@@QEBA?AV?$basic_string@_WU?$char_traits@_W@std@@V?$allocator@_W@2@@1@PEB_W0@Z@4HA 000000018002dca0 f   WindowsPlatform.obj
 0001:0002cca0       ?dtor$0@?0???$transform_primary@V?$_String_iterator@V?$_String_val@U?$_Simple_types@_W@std@@@std@@@std@@@?$_Regex_traits@_W@std@@QEBA?AV?$basic_string@_WU?$char_traits@_W@std@@V?$allocator@_W@2@@1@V?$_String_iterator@V?$_String_val@U?$_Simple_types@_W@std@@@std@@@1@0@Z@4HA 000000018002dca0 f   WindowsPlatform.obj
 0001:0002ccd0       ?dtor$1@?0???$transform_primary@PEB_W@?$_Regex_traits@_W@std@@QEBA?AV?$basic_string@_WU?$char_traits@_W@std@@V?$allocator@_W@2@@1@PEB_W0@Z@4HA 000000018002dcd0 f   WindowsPlatform.obj
 0001:0002ccd0       ?dtor$1@?0???$transform_primary@V?$_String_iterator@V?$_String_val@U?$_Simple_types@_W@std@@@std@@@std@@@?$_Regex_traits@_W@std@@QEBA?AV?$basic_string@_WU?$char_traits@_W@std@@V?$allocator@_W@2@@1@V?$_String_iterator@V?$_String_val@U?$_Simple_types@_W@std@@@std@@@1@0@Z@4HA 000000018002dcd0 f   WindowsPlatform.obj
 0001:0002cce0       ?dtor$0@?0???$use_facet@V?$collate@_W@std@@@std@@YAAEBV?$collate@_W@0@AEBVlocale@0@@Z@4HA 000000018002dce0 f   WindowsPlatform.obj
 0001:0002ccf0       ?dtor$1@?0???$use_facet@V?$collate@_W@std@@@std@@YAAEBV?$collate@_W@0@AEBVlocale@0@@Z@4HA 000000018002dcf0 f   WindowsPlatform.obj
 0001:0002cd00       ?dtor$3@?0???$use_facet@V?$collate@_W@std@@@std@@YAAEBV?$collate@_W@0@AEBVlocale@0@@Z@4HA 000000018002dd00 f   WindowsPlatform.obj
 0001:0002cd20       ?dtor$4@?0???$use_facet@V?$collate@_W@std@@@std@@YAAEBV?$collate@_W@0@AEBVlocale@0@@Z@4HA 000000018002dd20 f   WindowsPlatform.obj
 0001:0002cd50       ?dtor$5@?0???$use_facet@V?$collate@_W@std@@@std@@YAAEBV?$collate@_W@0@AEBVlocale@0@@Z@4HA 000000018002dd50 f   WindowsPlatform.obj
 0001:0002cd80       ?dtor$6@?0???$use_facet@V?$collate@_W@std@@@std@@YAAEBV?$collate@_W@0@AEBVlocale@0@@Z@4HA 000000018002dd80 f   WindowsPlatform.obj
 0001:0002cd90       ?catch$0@?0???0?$vector@IV?$allocator@I@std@@@std@@QEAA@AEBV01@@Z@4HA 000000018002dd90 f   WindowsPlatform.obj
 0001:0002cd9d       __catch$??0?$vector@IV?$allocator@I@std@@@std@@QEAA@AEBV01@@Z$0 000000018002dd9d f   WindowsPlatform.obj
 0001:0002cdb0       ?catch$0@?0???0?$vector@IV?$allocator@I@std@@@std@@QEAA@_KAEBIAEBV?$allocator@I@1@@Z@4HA 000000018002ddb0 f   WindowsPlatform.obj
 0001:0002cdbd       __catch$??0?$vector@IV?$allocator@I@std@@@std@@QEAA@_KAEBIAEBV?$allocator@I@1@@Z$0 000000018002ddbd f   WindowsPlatform.obj
 0001:0002cdd0       ?catch$0@?0???0?$vector@U_Grp_t@?$_Tgt_state_t@V?$_String_const_iterator@V?$_String_val@U?$_Simple_types@_W@std@@@std@@@std@@@std@@V?$allocator@U_Grp_t@?$_Tgt_state_t@V?$_String_const_iterator@V?$_String_val@U?$_Simple_types@_W@std@@@std@@@std@@@std@@@3@@std@@QEAA@AEBV01@@Z@4HA 000000018002ddd0 f   WindowsPlatform.obj
 0001:0002cddd       __catch$??0?$vector@U_Grp_t@?$_Tgt_state_t@V?$_String_const_iterator@V?$_String_val@U?$_Simple_types@_W@std@@@std@@@std@@@std@@V?$allocator@U_Grp_t@?$_Tgt_state_t@V?$_String_const_iterator@V?$_String_val@U?$_Simple_types@_W@std@@@std@@@std@@@std@@@3@@std@@QEAA@AEBV01@@Z$0 000000018002dddd f   WindowsPlatform.obj
 0001:0002cdf0       ?dtor$0@?0???0WindowsPlatform@@QEAA@XZ@4HA 000000018002ddf0 f   WindowsPlatform.obj
 0001:0002ce20       ?dtor$1@?0??Execute@WindowsProcess@@UEAA_NV?$basic_string@_WU?$char_traits@_W@std@@V?$allocator@_W@2@@std@@V?$vector@V?$basic_string@_WU?$char_traits@_W@std@@V?$allocator@_W@2@@std@@V?$allocator@V?$basic_string@_WU?$char_traits@_W@std@@V?$allocator@_W@2@@std@@@2@@3@_N@Z@4HA 000000018002de20 f   WindowsPlatform.obj
 0001:0002ce30       ?dtor$0@?0??FilterList@@YA?AV?$vector@V?$basic_string@_WU?$char_traits@_W@std@@V?$allocator@_W@2@@std@@V?$allocator@V?$basic_string@_WU?$char_traits@_W@std@@V?$allocator@_W@2@@std@@@2@@std@@AEAV12@V?$basic_regex@_WV?$regex_traits@_W@std@@@2@@Z@4HA 000000018002de30 f   WindowsPlatform.obj
 0001:0002ce40       ?dtor$1@?0??FilterList@@YA?AV?$vector@V?$basic_string@_WU?$char_traits@_W@std@@V?$allocator@_W@2@@std@@V?$allocator@V?$basic_string@_WU?$char_traits@_W@std@@V?$allocator@_W@2@@std@@@2@@std@@AEAV12@V?$basic_regex@_WV?$regex_traits@_W@std@@@2@@Z@4HA 000000018002de40 f   WindowsPlatform.obj
 0001:0002ce70       ?dtor$3@?0??FilterList@@YA?AV?$vector@V?$basic_string@_WU?$char_traits@_W@std@@V?$allocator@_W@2@@std@@V?$allocator@V?$basic_string@_WU?$char_traits@_W@std@@V?$allocator@_W@2@@std@@@2@@std@@AEAV12@V?$basic_regex@_WV?$regex_traits@_W@std@@@2@@Z@4HA 000000018002de70 f   WindowsPlatform.obj
 0001:0002ce80       ?dtor$0@?0??FilterOutRuntimeDependenciesForPlatform@WindowsPlatform@@UEAA?AV?$vector@V?$basic_string@_WU?$char_traits@_W@std@@V?$allocator@_W@2@@std@@V?$allocator@V?$basic_string@_WU?$char_traits@_W@std@@V?$allocator@_W@2@@std@@@2@@std@@V23@@Z@4HA 000000018002de80 f   WindowsPlatform.obj
 0001:0002ce90       ?dtor$1@?0??FilterOutRuntimeDependenciesForPlatform@WindowsPlatform@@UEAA?AV?$vector@V?$basic_string@_WU?$char_traits@_W@std@@V?$allocator@_W@2@@std@@V?$allocator@V?$basic_string@_WU?$char_traits@_W@std@@V?$allocator@_W@2@@std@@@2@@std@@V23@@Z@4HA 000000018002de90 f   WindowsPlatform.obj
 0001:0002cec0       ?dtor$3@?0??FilterOutRuntimeDependenciesForPlatform@WindowsPlatform@@UEAA?AV?$vector@V?$basic_string@_WU?$char_traits@_W@std@@V?$allocator@_W@2@@std@@V?$allocator@V?$basic_string@_WU?$char_traits@_W@std@@V?$allocator@_W@2@@std@@@2@@std@@V23@@Z@4HA 000000018002dec0 f   WindowsPlatform.obj
 0001:0002ced0       ?dtor$5@?0??FilterOutRuntimeDependenciesForPlatform@WindowsPlatform@@UEAA?AV?$vector@V?$basic_string@_WU?$char_traits@_W@std@@V?$allocator@_W@2@@std@@V?$allocator@V?$basic_string@_WU?$char_traits@_W@std@@V?$allocator@_W@2@@std@@@2@@std@@V23@@Z@4HA 000000018002ded0 f   WindowsPlatform.obj
 0001:0002cee0       ?dtor$6@?0??FilterOutRuntimeDependenciesForPlatform@WindowsPlatform@@UEAA?AV?$vector@V?$basic_string@_WU?$char_traits@_W@std@@V?$allocator@_W@2@@std@@V?$allocator@V?$basic_string@_WU?$char_traits@_W@std@@V?$allocator@_W@2@@std@@@2@@std@@V23@@Z@4HA 000000018002dee0 f   WindowsPlatform.obj
 0001:0002cef0       ?dtor$8@?0??FilterOutRuntimeDependenciesForPlatform@WindowsPlatform@@UEAA?AV?$vector@V?$basic_string@_WU?$char_traits@_W@std@@V?$allocator@_W@2@@std@@V?$allocator@V?$basic_string@_WU?$char_traits@_W@std@@V?$allocator@_W@2@@std@@@2@@std@@V23@@Z@4HA 000000018002def0 f   WindowsPlatform.obj
 0001:0002cf00       ?dtor$9@?0??FilterOutRuntimeDependenciesForPlatform@WindowsPlatform@@UEAA?AV?$vector@V?$basic_string@_WU?$char_traits@_W@std@@V?$allocator@_W@2@@std@@V?$allocator@V?$basic_string@_WU?$char_traits@_W@std@@V?$allocator@_W@2@@std@@@2@@std@@V23@@Z@4HA 000000018002df00 f   WindowsPlatform.obj
 0001:0002cf10       ?dtor$10@?0??FilterOutRuntimeDependenciesForPlatform@WindowsPlatform@@UEAA?AV?$vector@V?$basic_string@_WU?$char_traits@_W@std@@V?$allocator@_W@2@@std@@V?$allocator@V?$basic_string@_WU?$char_traits@_W@std@@V?$allocator@_W@2@@std@@@2@@std@@V23@@Z@4HA 000000018002df10 f   WindowsPlatform.obj
 0001:0002cf20       ?dtor$13@?0??FilterOutRuntimeDependenciesForPlatform@WindowsPlatform@@UEAA?AV?$vector@V?$basic_string@_WU?$char_traits@_W@std@@V?$allocator@_W@2@@std@@V?$allocator@V?$basic_string@_WU?$char_traits@_W@std@@V?$allocator@_W@2@@std@@@2@@std@@V23@@Z@4HA 000000018002df20 f   WindowsPlatform.obj
 0001:0002cf30       ?dtor$14@?0??FilterOutRuntimeDependenciesForPlatform@WindowsPlatform@@UEAA?AV?$vector@V?$basic_string@_WU?$char_traits@_W@std@@V?$allocator@_W@2@@std@@V?$allocator@V?$basic_string@_WU?$char_traits@_W@std@@V?$allocator@_W@2@@std@@@2@@std@@V23@@Z@4HA 000000018002df30 f   WindowsPlatform.obj
 0001:0002cf40       ?dtor$17@?0??FilterOutRuntimeDependenciesForPlatform@WindowsPlatform@@UEAA?AV?$vector@V?$basic_string@_WU?$char_traits@_W@std@@V?$allocator@_W@2@@std@@V?$allocator@V?$basic_string@_WU?$char_traits@_W@std@@V?$allocator@_W@2@@std@@@2@@std@@V23@@Z@4HA 000000018002df40 f   WindowsPlatform.obj
 0001:0002cf50       ?dtor$19@?0??FilterOutRuntimeDependenciesForPlatform@WindowsPlatform@@UEAA?AV?$vector@V?$basic_string@_WU?$char_traits@_W@std@@V?$allocator@_W@2@@std@@V?$allocator@V?$basic_string@_WU?$char_traits@_W@std@@V?$allocator@_W@2@@std@@@2@@std@@V23@@Z@4HA 000000018002df50 f   WindowsPlatform.obj
 0001:0002cf60       ?dtor$21@?0??FilterOutRuntimeDependenciesForPlatform@WindowsPlatform@@UEAA?AV?$vector@V?$basic_string@_WU?$char_traits@_W@std@@V?$allocator@_W@2@@std@@V?$allocator@V?$basic_string@_WU?$char_traits@_W@std@@V?$allocator@_W@2@@std@@@2@@std@@V23@@Z@4HA 000000018002df60 f   WindowsPlatform.obj
 0001:0002cf70       ?dtor$22@?0??FilterOutRuntimeDependenciesForPlatform@WindowsPlatform@@UEAA?AV?$vector@V?$basic_string@_WU?$char_traits@_W@std@@V?$allocator@_W@2@@std@@V?$allocator@V?$basic_string@_WU?$char_traits@_W@std@@V?$allocator@_W@2@@std@@@2@@std@@V23@@Z@4HA 000000018002df70 f   WindowsPlatform.obj
 0001:0002cf80       ?dtor$23@?0??FilterOutRuntimeDependenciesForPlatform@WindowsPlatform@@UEAA?AV?$vector@V?$basic_string@_WU?$char_traits@_W@std@@V?$allocator@_W@2@@std@@V?$allocator@V?$basic_string@_WU?$char_traits@_W@std@@V?$allocator@_W@2@@std@@@2@@std@@V23@@Z@4HA 000000018002df80 f   WindowsPlatform.obj
 0001:0002cf90       ?dtor$3@?0??GetBundledJVMLibraryFileName@WindowsPlatform@@UEAA?AV?$basic_string@_WU?$char_traits@_W@std@@V?$allocator@_W@2@@std@@V23@@Z@4HA 000000018002df90 f   WindowsPlatform.obj
 0001:0002cfc0       ?dtor$0@?0??GetImports@WindowsLibrary@@QEAA?AV?$vector@V?$basic_string@_WU?$char_traits@_W@std@@V?$allocator@_W@2@@std@@V?$allocator@V?$basic_string@_WU?$char_traits@_W@std@@V?$allocator@_W@2@@std@@@2@@std@@XZ@4HA 000000018002dfc0 f   WindowsPlatform.obj
 0001:0002cff0       ?dtor$2@?0??GetImports@WindowsLibrary@@QEAA?AV?$vector@V?$basic_string@_WU?$char_traits@_W@std@@V?$allocator@_W@2@@std@@V?$allocator@V?$basic_string@_WU?$char_traits@_W@std@@V?$allocator@_W@2@@std@@@2@@std@@XZ@4HA 000000018002dff0 f   WindowsPlatform.obj
 0001:0002d000       ?dtor$3@?0??GetImports@WindowsLibrary@@QEAA?AV?$vector@V?$basic_string@_WU?$char_traits@_W@std@@V?$allocator@_W@2@@std@@V?$allocator@V?$basic_string@_WU?$char_traits@_W@std@@V?$allocator@_W@2@@std@@@2@@std@@XZ@4HA 000000018002e000 f   WindowsPlatform.obj
 0001:0002d010       ?dtor$4@?0??GetImports@WindowsLibrary@@QEAA?AV?$vector@V?$basic_string@_WU?$char_traits@_W@std@@V?$allocator@_W@2@@std@@V?$allocator@V?$basic_string@_WU?$char_traits@_W@std@@V?$allocator@_W@2@@std@@@2@@std@@XZ@4HA 000000018002e010 f   WindowsPlatform.obj
 0001:0002d020       ?dtor$10@?0??GetImports@WindowsLibrary@@QEAA?AV?$vector@V?$basic_string@_WU?$char_traits@_W@std@@V?$allocator@_W@2@@std@@V?$allocator@V?$basic_string@_WU?$char_traits@_W@std@@V?$allocator@_W@2@@std@@@2@@std@@XZ@4HA 000000018002e020 f   WindowsPlatform.obj
 0001:0002d050       ?dtor$0@?0??GetImportsSection@WindowsLibrary@@CA?AV?$vector@V?$basic_string@_WU?$char_traits@_W@std@@V?$allocator@_W@2@@std@@V?$allocator@V?$basic_string@_WU?$char_traits@_W@std@@V?$allocator@_W@2@@std@@@2@@std@@KPEAU_IMAGE_NT_HEADERS64@@@Z@4HA 000000018002e050 f   WindowsPlatform.obj
 0001:0002d080       ?dtor$1@?0??GetImportsSection@WindowsLibrary@@CA?AV?$vector@V?$basic_string@_WU?$char_traits@_W@std@@V?$allocator@_W@2@@std@@V?$allocator@V?$basic_string@_WU?$char_traits@_W@std@@V?$allocator@_W@2@@std@@@2@@std@@KPEAU_IMAGE_NT_HEADERS64@@@Z@4HA 000000018002e080 f   WindowsPlatform.obj
 0001:0002d090       ?dtor$0@?0??GetKeys@Registry@@QEAA?AV?$list@V?$basic_string@_WU?$char_traits@_W@std@@V?$allocator@_W@2@@std@@V?$allocator@V?$basic_string@_WU?$char_traits@_W@std@@V?$allocator@_W@2@@std@@@2@@std@@XZ@4HA 000000018002e090 f   WindowsPlatform.obj
 0001:0002d0c0       ?dtor$1@?0??GetKeys@Registry@@QEAA?AV?$list@V?$basic_string@_WU?$char_traits@_W@std@@V?$allocator@_W@2@@std@@V?$allocator@V?$basic_string@_WU?$char_traits@_W@std@@V?$allocator@_W@2@@std@@@2@@std@@XZ@4HA 000000018002e0c0 f   WindowsPlatform.obj
 0001:0002d0d0       ?dtor$1@?0??GetLibraryImports@WindowsPlatform@@UEAA?AV?$vector@V?$basic_string@_WU?$char_traits@_W@std@@V?$allocator@_W@2@@std@@V?$allocator@V?$basic_string@_WU?$char_traits@_W@std@@V?$allocator@_W@2@@std@@@2@@std@@V?$basic_string@_WU?$char_traits@_W@std@@V?$allocator@_W@2@@3@@Z@4HA 000000018002e0d0 f   WindowsPlatform.obj
 0001:0002d100       ?dtor$0@?0??GetModuleFileNameW@WindowsPlatform@@UEAA?AV?$basic_string@_WU?$char_traits@_W@std@@V?$allocator@_W@2@@std@@XZ@4HA 000000018002e100 f   WindowsPlatform.obj
 0001:0002d130       ?dtor$1@?0??GetModuleFileNameW@WindowsPlatform@@UEAA?AV?$basic_string@_WU?$char_traits@_W@std@@V?$allocator@_W@2@@std@@XZ@4HA 000000018002e130 f   WindowsPlatform.obj
 0001:0002d140       ?dtor$2@?0??GetSystemJRE@WindowsPlatform@@UEAA?AV?$basic_string@_WU?$char_traits@_W@std@@V?$allocator@_W@2@@std@@XZ@4HA 000000018002e140 f   WindowsPlatform.obj
 0001:0002d150       ?dtor$9@?0??Load@WindowsJavaUserPreferences@@UEAA_NV?$basic_string@_WU?$char_traits@_W@std@@V?$allocator@_W@2@@std@@@Z@4HA 000000018002e150 f   WindowsPlatform.obj
 0001:0002d160       ?dtor$11@?0??Load@WindowsJavaUserPreferences@@UEAA_NV?$basic_string@_WU?$char_traits@_W@std@@V?$allocator@_W@2@@std@@@Z@4HA 000000018002e160 f   WindowsPlatform.obj
 0001:0002d170       ?dtor$23@?0??Load@WindowsJavaUserPreferences@@UEAA_NV?$basic_string@_WU?$char_traits@_W@std@@V?$allocator@_W@2@@std@@@Z@4HA 000000018002e170 f   WindowsPlatform.obj
 0001:0002d1a0       ?dtor$76@?0??Load@WindowsJavaUserPreferences@@UEAA_NV?$basic_string@_WU?$char_traits@_W@std@@V?$allocator@_W@2@@std@@@Z@4HA 000000018002e1a0 f   WindowsPlatform.obj
 0001:0002d1c0       ?dtor$83@?0??Load@WindowsJavaUserPreferences@@UEAA_NV?$basic_string@_WU?$char_traits@_W@std@@V?$allocator@_W@2@@std@@@Z@4HA 000000018002e1c0 f   WindowsPlatform.obj
 0001:0002d1d0       ?dtor$1@?0??ReadString@Registry@@QEAA?AV?$basic_string@_WU?$char_traits@_W@std@@V?$allocator@_W@2@@std@@V23@@Z@4HA 000000018002e1d0 f   WindowsPlatform.obj
 0001:0002d200       ?dtor$2@?0??ReadString@Registry@@QEAA?AV?$basic_string@_WU?$char_traits@_W@std@@V?$allocator@_W@2@@std@@V23@@Z@4HA 000000018002e200 f   WindowsPlatform.obj
 0001:0002d210       ?dtor$3@?0??_Add_equiv@?$_Builder@PEB_W_WV?$regex_traits@_W@std@@@std@@QEAAXPEB_W0_J@Z@4HA 000000018002e210 f   WindowsPlatform.obj
 0001:0002d240       ?dtor$4@?0??_Add_equiv@?$_Builder@PEB_W_WV?$regex_traits@_W@std@@@std@@QEAAXPEB_W0_J@Z@4HA 000000018002e240 f   WindowsPlatform.obj
 0001:0002d250       ?catch$2@?0??_Begin_assert_group@?$_Builder@PEB_W_WV?$regex_traits@_W@std@@@std@@QEAAPEAV_Node_base@2@_N@Z@4HA 000000018002e250 f   WindowsPlatform.obj
 0001:0002d25d       __catch$?_Begin_assert_group@?$_Builder@PEB_W_WV?$regex_traits@_W@std@@@std@@QEAAPEAV_Node_base@2@_N@Z$0 000000018002e25d f   WindowsPlatform.obj
 0001:0002d280       ?catch$0@?0??_Compile@?$_Parser@PEB_W_WV?$regex_traits@_W@std@@@std@@QEAAPEAV_Root_node@2@XZ@4HA 000000018002e280 f   WindowsPlatform.obj
 0001:0002d28d       __catch$?_Compile@?$_Parser@PEB_W_WV?$regex_traits@_W@std@@@std@@QEAAPEAV_Root_node@2@XZ$0 000000018002e28d f   WindowsPlatform.obj
 0001:0002d2b0       ?dtor$1@?0??_Do_rep0@?$_Matcher@V?$_String_const_iterator@V?$_String_val@U?$_Simple_types@_W@std@@@std@@@std@@_WV?$regex_traits@_W@2@V12@@std@@AEAA_NPEAV_Node_rep@2@_N@Z@4HA 000000018002e2b0 f   WindowsPlatform.obj
 0001:0002d2b0       ?dtor$0@?0??_Do_if@?$_Matcher@V?$_String_const_iterator@V?$_String_val@U?$_Simple_types@_W@std@@@std@@@std@@_WV?$regex_traits@_W@2@V12@@std@@AEAA_NPEAV_Node_if@2@@Z@4HA 000000018002e2b0 f   WindowsPlatform.obj
 0001:0002d2c0       ?dtor$1@?0??_Do_if@?$_Matcher@V?$_String_const_iterator@V?$_String_val@U?$_Simple_types@_W@std@@@std@@@std@@_WV?$regex_traits@_W@2@V12@@std@@AEAA_NPEAV_Node_if@2@@Z@4HA 000000018002e2c0 f   WindowsPlatform.obj
 0001:0002d2c0       ?dtor$0@?0??_Do_rep0@?$_Matcher@V?$_String_const_iterator@V?$_String_val@U?$_Simple_types@_W@std@@@std@@@std@@_WV?$regex_traits@_W@2@V12@@std@@AEAA_NPEAV_Node_rep@2@_N@Z@4HA 000000018002e2c0 f   WindowsPlatform.obj
 0001:0002d2d0       ?dtor$7@?0??_Do_rep0@?$_Matcher@V?$_String_const_iterator@V?$_String_val@U?$_Simple_types@_W@std@@@std@@@std@@_WV?$regex_traits@_W@2@V12@@std@@AEAA_NPEAV_Node_rep@2@_N@Z@4HA 000000018002e2d0 f   WindowsPlatform.obj
 0001:0002d2d0       ?dtor$2@?0??_Do_if@?$_Matcher@V?$_String_const_iterator@V?$_String_val@U?$_Simple_types@_W@std@@@std@@@std@@_WV?$regex_traits@_W@2@V12@@std@@AEAA_NPEAV_Node_if@2@@Z@4HA 000000018002e2d0 f   WindowsPlatform.obj
 0001:0002d2e0       ?dtor$2@?0??_Do_rep0@?$_Matcher@V?$_String_const_iterator@V?$_String_val@U?$_Simple_types@_W@std@@@std@@@std@@_WV?$regex_traits@_W@2@V12@@std@@AEAA_NPEAV_Node_rep@2@_N@Z@4HA 000000018002e2e0 f   WindowsPlatform.obj
 0001:0002d2e0       ?dtor$7@?0??_Do_if@?$_Matcher@V?$_String_const_iterator@V?$_String_val@U?$_Simple_types@_W@std@@@std@@@std@@_WV?$regex_traits@_W@2@V12@@std@@AEAA_NPEAV_Node_if@2@@Z@4HA 000000018002e2e0 f   WindowsPlatform.obj
 0001:0002d2f0       ?dtor$0@?0??_Do_rep@?$_Matcher@V?$_String_const_iterator@V?$_String_val@U?$_Simple_types@_W@std@@@std@@@std@@_WV?$regex_traits@_W@2@V12@@std@@AEAA_NPEAV_Node_rep@2@_NH@Z@4HA 000000018002e2f0 f   WindowsPlatform.obj
 0001:0002d300       ?dtor$1@?0??_Do_rep@?$_Matcher@V?$_String_const_iterator@V?$_String_val@U?$_Simple_types@_W@std@@@std@@@std@@_WV?$regex_traits@_W@2@V12@@std@@AEAA_NPEAV_Node_rep@2@_NH@Z@4HA 000000018002e300 f   WindowsPlatform.obj
 0001:0002d310       ?dtor$0@?0??_Match_pat@?$_Matcher@V?$_String_const_iterator@V?$_String_val@U?$_Simple_types@_W@std@@@std@@@std@@_WV?$regex_traits@_W@2@V12@@std@@AEAA_NPEAV_Node_base@2@@Z@4HA 000000018002e310 f   WindowsPlatform.obj
 0001:0002d320       ?dtor$0@?0??do_transform@?$collate@_W@std@@MEBA?AV?$basic_string@_WU?$char_traits@_W@std@@V?$allocator@_W@2@@2@PEB_W0@Z@4HA 000000018002e320 f   WindowsPlatform.obj
 0001:0002d350       ?dtor$0@?0??name@locale@std@@QEBA?AV?$basic_string@DU?$char_traits@D@std@@V?$allocator@D@2@@2@XZ@4HA 000000018002e350 f   WindowsPlatform.obj
 0001:0002d376       __scrt_is_nonwritable_in_current_image$filt$0 000000018002e376 f   MSVCRT:utility.obj
 0001:0002d38e       ?fin$0@?0??dllmain_crt_process_attach@@YAHQEAUHINSTANCE__@@QEAX@Z@4HA 000000018002e38e f   MSVCRT:dll_dllmain.obj
 0001:0002d3a5       ?fin$0@?0??dllmain_crt_process_detach@@YAH_N@Z@4HA 000000018002e3a5 f   MSVCRT:dll_dllmain.obj
 0001:0002d3c1       ?filt$0@?0??dllmain_dispatch@@YAHQEAUHINSTANCE__@@KQEAX@Z@4HA 000000018002e3c1 f   MSVCRT:dll_dllmain.obj
 0001:0002d400       ??__Finstance@?1??GetInstance@Macros@@SAAEAV1@XZ@YAXXZ 000000018002e400 f   Macros.obj
 0001:0002d470       ??__Finstance@?1??GetInstance@Messages@@SAAEAV1@XZ@YAXXZ 000000018002e470 f   Messages.obj
 0001:0002d480       ??__Finstance@?1??GetInstance@Package@@SAAEAV1@XZ@YAXXZ 000000018002e480 f   Package.obj
 0001:0002d4d0       ??__Finstance@?1??GetInstance@Platform@@SAAEAV1@XZ@YAXXZ 000000018002e4d0 f   Platform.obj
 0001:0002d500       ??__F?FJob@WindowsProcess@@0VWindowsJob@@A@@YAXXZ 000000018002e500 f   WindowsPlatform.obj
 0001:0002d514       ??__F_Fac_tidy_reg@std@@YAXXZ 000000018002e514 f   msvcprt:locale0_implib.obj
 0002:00000640       ?_Fac_tidy_reg$initializer$@std@@3P6AXXZEA 000000018002f640     msvcprt:locale0_implib.obj
 0002:00000648       ??FJob$initializer$@WindowsProcess@@0P6AXXZEA@@3P6AXXZEA 000000018002f648     WindowsPlatform.obj
 0002:00000660       ?__scrt_initialize_tss_var@@3P6AHXZEA 000000018002f660     MSVCRT:thread_safe_statics.obj
 0002:000006a0       ?piecewise_construct@std@@3Upiecewise_construct_t@1@B 000000018002f6a0     Exports.obj
 0002:000006a8       $cppxdata$?_Buyheadnode@?$_Tree_comp_alloc@V?$_Tmap_traits@V?$basic_string@_WU?$char_traits@_W@std@@V?$allocator@_W@2@@std@@PEAU?$pair@V?$basic_string@_WU?$char_traits@_W@std@@V?$allocator@_W@2@@std@@V12@@@U?$less@V?$basic_string@_WU?$char_traits@_W@std@@V?$allocator@_W@2@@std@@@2@V?$allocator@U?$pair@$$CBV?$basic_string@_WU?$char_traits@_W@std@@V?$allocator@_W@2@@std@@PEAU?$pair@V?$basic_string@_WU?$char_traits@_W@std@@V?$allocator@_W@2@@std@@V12@@@@std@@@2@$0A@@std@@@std@@QEAAPEAU?$_Tree_node@U?$pair@$$CBV?$basic_string@_WU?$char_traits@_W@std@@V?$allocator@_W@2@@std@@PEAU?$pair@V?$basic_string@_WU?$char_traits@_W@std@@V?$allocator@_W@2@@std@@V12@@@@std@@PEAX@2@XZ 000000018002f6a8     Exports.obj
 0002:000006a8       $cppxdata$?_Buyheadnode@?$_Tree_comp_alloc@V?$_Tmap_traits@V?$basic_string@_WU?$char_traits@_W@std@@V?$allocator@_W@2@@std@@PEAU?$pair@V?$basic_string@_WU?$char_traits@_W@std@@V?$allocator@_W@2@@std@@PEAVIniSectionData@@@@U?$less@V?$basic_string@_WU?$char_traits@_W@std@@V?$allocator@_W@2@@std@@@2@V?$allocator@U?$pair@$$CBV?$basic_string@_WU?$char_traits@_W@std@@V?$allocator@_W@2@@std@@PEAU?$pair@V?$basic_string@_WU?$char_traits@_W@std@@V?$allocator@_W@2@@std@@PEAVIniSectionData@@@@@std@@@2@$0A@@std@@@std@@QEAAPEAU?$_Tree_node@U?$pair@$$CBV?$basic_string@_WU?$char_traits@_W@std@@V?$allocator@_W@2@@std@@PEAU?$pair@V?$basic_string@_WU?$char_traits@_W@std@@V?$allocator@_W@2@@std@@PEAVIniSectionData@@@@@std@@PEAX@2@XZ 000000018002f6a8     IniFile.obj
 0002:000006d0       $cppxdata$?_Buynode0@?$_Tree_comp_alloc@V?$_Tmap_traits@V?$basic_string@_WU?$char_traits@_W@std@@V?$allocator@_W@2@@std@@PEAU?$pair@V?$basic_string@_WU?$char_traits@_W@std@@V?$allocator@_W@2@@std@@V12@@@U?$less@V?$basic_string@_WU?$char_traits@_W@std@@V?$allocator@_W@2@@std@@@2@V?$allocator@U?$pair@$$CBV?$basic_string@_WU?$char_traits@_W@std@@V?$allocator@_W@2@@std@@PEAU?$pair@V?$basic_string@_WU?$char_traits@_W@std@@V?$allocator@_W@2@@std@@V12@@@@std@@@2@$0A@@std@@@std@@QEAAPEAU?$_Tree_node@U?$pair@$$CBV?$basic_string@_WU?$char_traits@_W@std@@V?$allocator@_W@2@@std@@PEAU?$pair@V?$basic_string@_WU?$char_traits@_W@std@@V?$allocator@_W@2@@std@@V12@@@@std@@PEAX@2@XZ 000000018002f6d0     Exports.obj
 0002:000006d0       $cppxdata$?_Buynode0@?$_Tree_comp_alloc@V?$_Tmap_traits@V?$basic_string@_WU?$char_traits@_W@std@@V?$allocator@_W@2@@std@@PEAU?$pair@V?$basic_string@_WU?$char_traits@_W@std@@V?$allocator@_W@2@@std@@PEAVIniSectionData@@@@U?$less@V?$basic_string@_WU?$char_traits@_W@std@@V?$allocator@_W@2@@std@@@2@V?$allocator@U?$pair@$$CBV?$basic_string@_WU?$char_traits@_W@std@@V?$allocator@_W@2@@std@@PEAU?$pair@V?$basic_string@_WU?$char_traits@_W@std@@V?$allocator@_W@2@@std@@PEAVIniSectionData@@@@@std@@@2@$0A@@std@@@std@@QEAAPEAU?$_Tree_node@U?$pair@$$CBV?$basic_string@_WU?$char_traits@_W@std@@V?$allocator@_W@2@@std@@PEAU?$pair@V?$basic_string@_WU?$char_traits@_W@std@@V?$allocator@_W@2@@std@@PEAVIniSectionData@@@@@std@@PEAX@2@XZ 000000018002f6d0     IniFile.obj
 0002:000006f8       $cppxdata$?clear@?$_Tree@V?$_Tmap_traits@V?$basic_string@_WU?$char_traits@_W@std@@V?$allocator@_W@2@@std@@PEAU?$pair@V?$basic_string@_WU?$char_traits@_W@std@@V?$allocator@_W@2@@std@@V12@@@U?$less@V?$basic_string@_WU?$char_traits@_W@std@@V?$allocator@_W@2@@std@@@2@V?$allocator@U?$pair@$$CBV?$basic_string@_WU?$char_traits@_W@std@@V?$allocator@_W@2@@std@@PEAU?$pair@V?$basic_string@_WU?$char_traits@_W@std@@V?$allocator@_W@2@@std@@V12@@@@std@@@2@$0A@@std@@@std@@QEAAXXZ 000000018002f6f8     Exports.obj
 0002:000006f8       $cppxdata$?clear@?$_Tree@V?$_Tmap_traits@V?$basic_string@_WU?$char_traits@_W@std@@V?$allocator@_W@2@@std@@PEAU?$pair@V?$basic_string@_WU?$char_traits@_W@std@@V?$allocator@_W@2@@std@@PEAVIniSectionData@@@@U?$less@V?$basic_string@_WU?$char_traits@_W@std@@V?$allocator@_W@2@@std@@@2@V?$allocator@U?$pair@$$CBV?$basic_string@_WU?$char_traits@_W@std@@V?$allocator@_W@2@@std@@PEAU?$pair@V?$basic_string@_WU?$char_traits@_W@std@@V?$allocator@_W@2@@std@@PEAVIniSectionData@@@@@std@@@2@$0A@@std@@@std@@QEAAXXZ 000000018002f6f8     IniFile.obj
 0002:00000720       $cppxdata$??0?$OrderedMap@V?$basic_string@_WU?$char_traits@_W@std@@V?$allocator@_W@2@@std@@V12@@@QEAA@AEBV0@@Z 000000018002f720     Exports.obj
 0002:00000748       $cppxdata$?GetKeys@?$OrderedMap@V?$basic_string@_WU?$char_traits@_W@std@@V?$allocator@_W@2@@std@@PEAVIniSectionData@@@@QEAA?AV?$vector@V?$basic_string@_WU?$char_traits@_W@std@@V?$allocator@_W@2@@std@@V?$allocator@V?$basic_string@_WU?$char_traits@_W@std@@V?$allocator@_W@2@@std@@@2@@std@@XZ 000000018002f748     IniFile.obj
 0002:00000748       $cppxdata$?GetKeys@?$OrderedMap@V?$basic_string@_WU?$char_traits@_W@std@@V?$allocator@_W@2@@std@@V12@@@QEAA?AV?$vector@V?$basic_string@_WU?$char_traits@_W@std@@V?$allocator@_W@2@@std@@V?$allocator@V?$basic_string@_WU?$char_traits@_W@std@@V?$allocator@_W@2@@std@@@2@@std@@XZ 000000018002f748     Exports.obj
 0002:00000770       $cppxdata$?Append@?$OrderedMap@V?$basic_string@_WU?$char_traits@_W@std@@V?$allocator@_W@2@@std@@V12@@@QEAAXAEBV1@@Z 000000018002f770     Exports.obj
 0002:00000798       $cppxdata$?Append@?$OrderedMap@V?$basic_string@_WU?$char_traits@_W@std@@V?$allocator@_W@2@@std@@V12@@@QEAAXV?$basic_string@_WU?$char_traits@_W@std@@V?$allocator@_W@2@@std@@0@Z 000000018002f798     Exports.obj
 0002:000007c0       $cppxdata$?GetValue@?$OrderedMap@V?$basic_string@_WU?$char_traits@_W@std@@V?$allocator@_W@2@@std@@V12@@@QEAA_NV?$basic_string@_WU?$char_traits@_W@std@@V?$allocator@_W@2@@std@@AEAV23@@Z 000000018002f7c0     Exports.obj
 0002:000007e8       $cppxdata$?MapKeysToJObjectArray@UserJVMArgsExports@@CAPEAV_jobjectArray@@PEAUJNIEnv_@@V?$OrderedMap@V?$basic_string@_WU?$char_traits@_W@std@@V?$allocator@_W@2@@std@@V12@@@@Z 000000018002f7e8     Exports.obj
 0002:00000810       $cppxdata$?_getUserJvmOptionDefaultValue@UserJVMArgsExports@@SAPEAV_jstring@@PEAUJNIEnv_@@PEAV2@@Z 000000018002f810     Exports.obj
 0002:00000838       $cppxdata$?_getUserJvmOptionDefaultKeys@UserJVMArgsExports@@SAPEAV_jobjectArray@@PEAUJNIEnv_@@@Z 000000018002f838     Exports.obj
 0002:00000860       $cppxdata$?_getUserJvmOptionValue@UserJVMArgsExports@@SAPEAV_jstring@@PEAUJNIEnv_@@PEAV2@@Z 000000018002f860     Exports.obj
 0002:00000888       $cppxdata$?_setUserJvmKeysAndValues@UserJVMArgsExports@@SAXPEAUJNIEnv_@@PEAV_jobjectArray@@1@Z 000000018002f888     Exports.obj
 0002:000008b0       $cppxdata$?_getUserJvmOptionKeys@UserJVMArgsExports@@SAPEAV_jobjectArray@@PEAUJNIEnv_@@@Z 000000018002f8b0     Exports.obj
 0002:000008d8       $cppxdata$??$_Emplace_reallocate@AEBQEAVLibrary@@@?$vector@PEAVLibrary@@V?$allocator@PEAVLibrary@@@std@@@std@@QEAAPEAPEAVLibrary@@QEAPEAV2@AEBQEAV2@@Z 000000018002f8d8     Platform.obj
 0002:000008d8       $cppxdata$??$_Emplace_reallocate@AEBQEAU?$pair@V?$basic_string@_WU?$char_traits@_W@std@@V?$allocator@_W@2@@std@@PEAVIniSectionData@@@@@?$vector@PEAU?$pair@V?$basic_string@_WU?$char_traits@_W@std@@V?$allocator@_W@2@@std@@PEAVIniSectionData@@@@V?$allocator@PEAU?$pair@V?$basic_string@_WU?$char_traits@_W@std@@V?$allocator@_W@2@@std@@PEAVIniSectionData@@@@@std@@@std@@QEAAPEAPEAU?$pair@V?$basic_string@_WU?$char_traits@_W@std@@V?$allocator@_W@2@@std@@PEAVIniSectionData@@@@QEAPEAU2@AEBQEAU2@@Z 000000018002f8d8     IniFile.obj
 0002:000008d8       $cppxdata$??$_Emplace_reallocate@AEBQEAU?$pair@V?$basic_string@_WU?$char_traits@_W@std@@V?$allocator@_W@2@@std@@V12@@@@?$vector@PEAU?$pair@V?$basic_string@_WU?$char_traits@_W@std@@V?$allocator@_W@2@@std@@V12@@@V?$allocator@PEAU?$pair@V?$basic_string@_WU?$char_traits@_W@std@@V?$allocator@_W@2@@std@@V12@@@@std@@@std@@QEAAPEAPEAU?$pair@V?$basic_string@_WU?$char_traits@_W@std@@V?$allocator@_W@2@@std@@V12@@@QEAPEAU2@AEBQEAU2@@Z 000000018002f8d8     Exports.obj
 0002:00000900       $cppxdata$??$_Emplace_reallocate@AEBV?$basic_string@_WU?$char_traits@_W@std@@V?$allocator@_W@2@@std@@@?$vector@V?$basic_string@_WU?$char_traits@_W@std@@V?$allocator@_W@2@@std@@V?$allocator@V?$basic_string@_WU?$char_traits@_W@std@@V?$allocator@_W@2@@std@@@2@@std@@QEAAPEAV?$basic_string@_WU?$char_traits@_W@std@@V?$allocator@_W@2@@1@QEAV21@AEBV21@@Z 000000018002f900     Exports.obj
 0002:00000928       $cppxdata$??$_Buynode@U?$pair@V?$basic_string@_WU?$char_traits@_W@std@@V?$allocator@_W@2@@std@@PEAU?$pair@V?$basic_string@_WU?$char_traits@_W@std@@V?$allocator@_W@2@@std@@PEAVIniSectionData@@@@@std@@@?$_Tree_comp_alloc@V?$_Tmap_traits@V?$basic_string@_WU?$char_traits@_W@std@@V?$allocator@_W@2@@std@@PEAU?$pair@V?$basic_string@_WU?$char_traits@_W@std@@V?$allocator@_W@2@@std@@PEAVIniSectionData@@@@U?$less@V?$basic_string@_WU?$char_traits@_W@std@@V?$allocator@_W@2@@std@@@2@V?$allocator@U?$pair@$$CBV?$basic_string@_WU?$char_traits@_W@std@@V?$allocator@_W@2@@std@@PEAU?$pair@V?$basic_string@_WU?$char_traits@_W@std@@V?$allocator@_W@2@@std@@PEAVIniSectionData@@@@@std@@@2@$0A@@std@@@std@@QEAAPEAU?$_Tree_node@U?$pair@$$CBV?$basic_string@_WU?$char_traits@_W@std@@V?$allocator@_W@2@@std@@PEAU?$pair@V?$basic_string@_WU?$char_traits@_W@std@@V?$allocator@_W@2@@std@@PEAVIniSectionData@@@@@std@@PEAX@1@$$QEAU?$pair@V?$basic_string@_WU?$char_traits@_W@std@@V?$allocator@_W@2@@std@@PEAU?$pair@V?$basic_string@_WU?$char_traits@_W@std@@V?$allocator@_W@2@@std@@PEAVIniSectionData@@@@@1@@Z 000000018002f928     IniFile.obj
 0002:00000928       $cppxdata$??$_Buynode@U?$pair@V?$basic_string@_WU?$char_traits@_W@std@@V?$allocator@_W@2@@std@@PEAU?$pair@V?$basic_string@_WU?$char_traits@_W@std@@V?$allocator@_W@2@@std@@V12@@@@std@@@?$_Tree_comp_alloc@V?$_Tmap_traits@V?$basic_string@_WU?$char_traits@_W@std@@V?$allocator@_W@2@@std@@PEAU?$pair@V?$basic_string@_WU?$char_traits@_W@std@@V?$allocator@_W@2@@std@@V12@@@U?$less@V?$basic_string@_WU?$char_traits@_W@std@@V?$allocator@_W@2@@std@@@2@V?$allocator@U?$pair@$$CBV?$basic_string@_WU?$char_traits@_W@std@@V?$allocator@_W@2@@std@@PEAU?$pair@V?$basic_string@_WU?$char_traits@_W@std@@V?$allocator@_W@2@@std@@V12@@@@std@@@2@$0A@@std@@@std@@QEAAPEAU?$_Tree_node@U?$pair@$$CBV?$basic_string@_WU?$char_traits@_W@std@@V?$allocator@_W@2@@std@@PEAU?$pair@V?$basic_string@_WU?$char_traits@_W@std@@V?$allocator@_W@2@@std@@V12@@@@std@@PEAX@1@$$QEAU?$pair@V?$basic_string@_WU?$char_traits@_W@std@@V?$allocator@_W@2@@std@@PEAU?$pair@V?$basic_string@_WU?$char_traits@_W@std@@V?$allocator@_W@2@@std@@V12@@@@1@@Z 000000018002f928     Exports.obj
 0002:00000950       $cppxdata$??$_Insert_nohint@AEAU?$pair@$$CBV?$basic_string@_WU?$char_traits@_W@std@@V?$allocator@_W@2@@std@@PEAU?$pair@V?$basic_string@_WU?$char_traits@_W@std@@V?$allocator@_W@2@@std@@PEAVIniSectionData@@@@@std@@PEAU?$_Tree_node@U?$pair@$$CBV?$basic_string@_WU?$char_traits@_W@std@@V?$allocator@_W@2@@std@@PEAU?$pair@V?$basic_string@_WU?$char_traits@_W@std@@V?$allocator@_W@2@@std@@PEAVIniSectionData@@@@@std@@PEAX@2@@?$_Tree@V?$_Tmap_traits@V?$basic_string@_WU?$char_traits@_W@std@@V?$allocator@_W@2@@std@@PEAU?$pair@V?$basic_string@_WU?$char_traits@_W@std@@V?$allocator@_W@2@@std@@PEAVIniSectionData@@@@U?$less@V?$basic_string@_WU?$char_traits@_W@std@@V?$allocator@_W@2@@std@@@2@V?$allocator@U?$pair@$$CBV?$basic_string@_WU?$char_traits@_W@std@@V?$allocator@_W@2@@std@@PEAU?$pair@V?$basic_string@_WU?$char_traits@_W@std@@V?$allocator@_W@2@@std@@PEAVIniSectionData@@@@@std@@@2@$0A@@std@@@std@@IEAA?AU?$pair@V?$_Tree_iterator@V?$_Tree_val@U?$_Tree_simple_types@U?$pair@$$CBV?$basic_string@_WU?$char_traits@_W@std@@V?$allocator@_W@2@@std@@PEAU?$pair@V?$basic_string@_WU?$char_traits@_W@std@@V?$allocator@_W@2@@std@@PEAVIniSectionData@@@@@std@@@std@@@std@@@std@@_N@1@_NAEAU?$pair@$$CBV?$basic_string@_WU?$char_traits@_W@std@@V?$allocator@_W@2@@std@@PEAU?$pair@V?$basic_string@_WU?$char_traits@_W@std@@V?$allocator@_W@2@@std@@PEAVIniSectionData@@@@@1@PEAU?$_Tree_node@U?$pair@$$CBV?$basic_string@_WU?$char_traits@_W@std@@V?$allocator@_W@2@@std@@PEAU?$pair@V?$basic_string@_WU?$char_traits@_W@std@@V?$allocator@_W@2@@std@@PEAVIniSectionData@@@@@std@@PEAX@1@@Z 000000018002f950     IniFile.obj
 0002:00000950       $cppxdata$??$_Insert_nohint@AEAU?$pair@$$CBV?$basic_string@_WU?$char_traits@_W@std@@V?$allocator@_W@2@@std@@PEAU?$pair@V?$basic_string@_WU?$char_traits@_W@std@@V?$allocator@_W@2@@std@@V12@@@@std@@PEAU?$_Tree_node@U?$pair@$$CBV?$basic_string@_WU?$char_traits@_W@std@@V?$allocator@_W@2@@std@@PEAU?$pair@V?$basic_string@_WU?$char_traits@_W@std@@V?$allocator@_W@2@@std@@V12@@@@std@@PEAX@2@@?$_Tree@V?$_Tmap_traits@V?$basic_string@_WU?$char_traits@_W@std@@V?$allocator@_W@2@@std@@PEAU?$pair@V?$basic_string@_WU?$char_traits@_W@std@@V?$allocator@_W@2@@std@@V12@@@U?$less@V?$basic_string@_WU?$char_traits@_W@std@@V?$allocator@_W@2@@std@@@2@V?$allocator@U?$pair@$$CBV?$basic_string@_WU?$char_traits@_W@std@@V?$allocator@_W@2@@std@@PEAU?$pair@V?$basic_string@_WU?$char_traits@_W@std@@V?$allocator@_W@2@@std@@V12@@@@std@@@2@$0A@@std@@@std@@IEAA?AU?$pair@V?$_Tree_iterator@V?$_Tree_val@U?$_Tree_simple_types@U?$pair@$$CBV?$basic_string@_WU?$char_traits@_W@std@@V?$allocator@_W@2@@std@@PEAU?$pair@V?$basic_string@_WU?$char_traits@_W@std@@V?$allocator@_W@2@@std@@V12@@@@std@@@std@@@std@@@std@@_N@1@_NAEAU?$pair@$$CBV?$basic_string@_WU?$char_traits@_W@std@@V?$allocator@_W@2@@std@@PEAU?$pair@V?$basic_string@_WU?$char_traits@_W@std@@V?$allocator@_W@2@@std@@V12@@@@1@PEAU?$_Tree_node@U?$pair@$$CBV?$basic_string@_WU?$char_traits@_W@std@@V?$allocator@_W@2@@std@@PEAU?$pair@V?$basic_string@_WU?$char_traits@_W@std@@V?$allocator@_W@2@@std@@V12@@@@std@@PEAX@1@@Z 000000018002f950     Exports.obj
 0002:00000978       $cppxdata$??$_Buynode@AEBUpiecewise_construct_t@std@@V?$tuple@AEBV?$basic_string@_WU?$char_traits@_W@std@@V?$allocator@_W@2@@std@@@2@V?$tuple@$$V@2@@?$_Tree_comp_alloc@V?$_Tmap_traits@V?$basic_string@_WU?$char_traits@_W@std@@V?$allocator@_W@2@@std@@PEAU?$pair@V?$basic_string@_WU?$char_traits@_W@std@@V?$allocator@_W@2@@std@@PEAVIniSectionData@@@@U?$less@V?$basic_string@_WU?$char_traits@_W@std@@V?$allocator@_W@2@@std@@@2@V?$allocator@U?$pair@$$CBV?$basic_string@_WU?$char_traits@_W@std@@V?$allocator@_W@2@@std@@PEAU?$pair@V?$basic_string@_WU?$char_traits@_W@std@@V?$allocator@_W@2@@std@@PEAVIniSectionData@@@@@std@@@2@$0A@@std@@@std@@QEAAPEAU?$_Tree_node@U?$pair@$$CBV?$basic_string@_WU?$char_traits@_W@std@@V?$allocator@_W@2@@std@@PEAU?$pair@V?$basic_string@_WU?$char_traits@_W@std@@V?$allocator@_W@2@@std@@PEAVIniSectionData@@@@@std@@PEAX@1@AEBUpiecewise_construct_t@1@$$QEAV?$tuple@AEBV?$basic_string@_WU?$char_traits@_W@std@@V?$allocator@_W@2@@std@@@1@$$QEAV?$tuple@$$V@1@@Z 000000018002f978     IniFile.obj
 0002:00000978       $cppxdata$??$_Buynode@AEBUpiecewise_construct_t@std@@V?$tuple@AEBV?$basic_string@_WU?$char_traits@_W@std@@V?$allocator@_W@2@@std@@@2@V?$tuple@$$V@2@@?$_Tree_comp_alloc@V?$_Tmap_traits@V?$basic_string@_WU?$char_traits@_W@std@@V?$allocator@_W@2@@std@@PEAU?$pair@V?$basic_string@_WU?$char_traits@_W@std@@V?$allocator@_W@2@@std@@V12@@@U?$less@V?$basic_string@_WU?$char_traits@_W@std@@V?$allocator@_W@2@@std@@@2@V?$allocator@U?$pair@$$CBV?$basic_string@_WU?$char_traits@_W@std@@V?$allocator@_W@2@@std@@PEAU?$pair@V?$basic_string@_WU?$char_traits@_W@std@@V?$allocator@_W@2@@std@@V12@@@@std@@@2@$0A@@std@@@std@@QEAAPEAU?$_Tree_node@U?$pair@$$CBV?$basic_string@_WU?$char_traits@_W@std@@V?$allocator@_W@2@@std@@PEAU?$pair@V?$basic_string@_WU?$char_traits@_W@std@@V?$allocator@_W@2@@std@@V12@@@@std@@PEAX@1@AEBUpiecewise_construct_t@1@$$QEAV?$tuple@AEBV?$basic_string@_WU?$char_traits@_W@std@@V?$allocator@_W@2@@std@@@1@$$QEAV?$tuple@$$V@1@@Z 000000018002f978     Exports.obj
 0002:000009a0       $cppxdata$??$_Insert_hint@AEAU?$pair@$$CBV?$basic_string@_WU?$char_traits@_W@std@@V?$allocator@_W@2@@std@@PEAU?$pair@V?$basic_string@_WU?$char_traits@_W@std@@V?$allocator@_W@2@@std@@PEAVIniSectionData@@@@@std@@PEAU?$_Tree_node@U?$pair@$$CBV?$basic_string@_WU?$char_traits@_W@std@@V?$allocator@_W@2@@std@@PEAU?$pair@V?$basic_string@_WU?$char_traits@_W@std@@V?$allocator@_W@2@@std@@PEAVIniSectionData@@@@@std@@PEAX@2@@?$_Tree@V?$_Tmap_traits@V?$basic_string@_WU?$char_traits@_W@std@@V?$allocator@_W@2@@std@@PEAU?$pair@V?$basic_string@_WU?$char_traits@_W@std@@V?$allocator@_W@2@@std@@PEAVIniSectionData@@@@U?$less@V?$basic_string@_WU?$char_traits@_W@std@@V?$allocator@_W@2@@std@@@2@V?$allocator@U?$pair@$$CBV?$basic_string@_WU?$char_traits@_W@std@@V?$allocator@_W@2@@std@@PEAU?$pair@V?$basic_string@_WU?$char_traits@_W@std@@V?$allocator@_W@2@@std@@PEAVIniSectionData@@@@@std@@@2@$0A@@std@@@std@@IEAA?AV?$_Tree_iterator@V?$_Tree_val@U?$_Tree_simple_types@U?$pair@$$CBV?$basic_string@_WU?$char_traits@_W@std@@V?$allocator@_W@2@@std@@PEAU?$pair@V?$basic_string@_WU?$char_traits@_W@std@@V?$allocator@_W@2@@std@@PEAVIniSectionData@@@@@std@@@std@@@std@@@1@V?$_Tree_const_iterator@V?$_Tree_val@U?$_Tree_simple_types@U?$pair@$$CBV?$basic_string@_WU?$char_traits@_W@std@@V?$allocator@_W@2@@std@@PEAU?$pair@V?$basic_string@_WU?$char_traits@_W@std@@V?$allocator@_W@2@@std@@PEAVIniSectionData@@@@@std@@@std@@@std@@@1@AEAU?$pair@$$CBV?$basic_string@_WU?$char_traits@_W@std@@V?$allocator@_W@2@@std@@PEAU?$pair@V?$basic_string@_WU?$char_traits@_W@std@@V?$allocator@_W@2@@std@@PEAVIniSectionData@@@@@1@PEAU?$_Tree_node@U?$pair@$$CBV?$basic_string@_WU?$char_traits@_W@std@@V?$allocator@_W@2@@std@@PEAU?$pair@V?$basic_string@_WU?$char_traits@_W@std@@V?$allocator@_W@2@@std@@PEAVIniSectionData@@@@@std@@PEAX@1@@Z 000000018002f9a0     IniFile.obj
 0002:000009a0       $cppxdata$??$_Insert_hint@AEAU?$pair@$$CBV?$basic_string@_WU?$char_traits@_W@std@@V?$allocator@_W@2@@std@@PEAU?$pair@V?$basic_string@_WU?$char_traits@_W@std@@V?$allocator@_W@2@@std@@V12@@@@std@@PEAU?$_Tree_node@U?$pair@$$CBV?$basic_string@_WU?$char_traits@_W@std@@V?$allocator@_W@2@@std@@PEAU?$pair@V?$basic_string@_WU?$char_traits@_W@std@@V?$allocator@_W@2@@std@@V12@@@@std@@PEAX@2@@?$_Tree@V?$_Tmap_traits@V?$basic_string@_WU?$char_traits@_W@std@@V?$allocator@_W@2@@std@@PEAU?$pair@V?$basic_string@_WU?$char_traits@_W@std@@V?$allocator@_W@2@@std@@V12@@@U?$less@V?$basic_string@_WU?$char_traits@_W@std@@V?$allocator@_W@2@@std@@@2@V?$allocator@U?$pair@$$CBV?$basic_string@_WU?$char_traits@_W@std@@V?$allocator@_W@2@@std@@PEAU?$pair@V?$basic_string@_WU?$char_traits@_W@std@@V?$allocator@_W@2@@std@@V12@@@@std@@@2@$0A@@std@@@std@@IEAA?AV?$_Tree_iterator@V?$_Tree_val@U?$_Tree_simple_types@U?$pair@$$CBV?$basic_string@_WU?$char_traits@_W@std@@V?$allocator@_W@2@@std@@PEAU?$pair@V?$basic_string@_WU?$char_traits@_W@std@@V?$allocator@_W@2@@std@@V12@@@@std@@@std@@@std@@@1@V?$_Tree_const_iterator@V?$_Tree_val@U?$_Tree_simple_types@U?$pair@$$CBV?$basic_string@_WU?$char_traits@_W@std@@V?$allocator@_W@2@@std@@PEAU?$pair@V?$basic_string@_WU?$char_traits@_W@std@@V?$allocator@_W@2@@std@@V12@@@@std@@@std@@@std@@@1@AEAU?$pair@$$CBV?$basic_string@_WU?$char_traits@_W@std@@V?$allocator@_W@2@@std@@PEAU?$pair@V?$basic_string@_WU?$char_traits@_W@std@@V?$allocator@_W@2@@std@@V12@@@@1@PEAU?$_Tree_node@U?$pair@$$CBV?$basic_string@_WU?$char_traits@_W@std@@V?$allocator@_W@2@@std@@PEAU?$pair@V?$basic_string@_WU?$char_traits@_W@std@@V?$allocator@_W@2@@std@@V12@@@@std@@PEAX@1@@Z 000000018002f9a0     Exports.obj
 0002:00000a20       $cppxdata$?DeleteFileW@FilePath@@SA_NV?$basic_string@_WU?$char_traits@_W@std@@V?$allocator@_W@2@@std@@@Z 000000018002fa20     FilePath.obj
 0002:00000a48       $cppxdata$?ExtractFilePath@FilePath@@SA?AV?$basic_string@_WU?$char_traits@_W@std@@V?$allocator@_W@2@@std@@V23@@Z 000000018002fa48     FilePath.obj
 0002:00000a70       $cppxdata$?ExtractFileName@FilePath@@SA?AV?$basic_string@_WU?$char_traits@_W@std@@V?$allocator@_W@2@@std@@V23@@Z 000000018002fa70     FilePath.obj
 0002:00000a98       $cppxdata$?ChangeFileExt@FilePath@@SA?AV?$basic_string@_WU?$char_traits@_W@std@@V?$allocator@_W@2@@std@@V23@0@Z 000000018002fa98     FilePath.obj
 0002:00000ac0       $cppxdata$?IncludeTrailingSeparater@FilePath@@SA?AV?$basic_string@_WU?$char_traits@_W@std@@V?$allocator@_W@2@@std@@V23@@Z 000000018002fac0     FilePath.obj
 0002:00000ae8       $cppxdata$?IncludeTrailingSeparater@FilePath@@SA?AV?$basic_string@_WU?$char_traits@_W@std@@V?$allocator@_W@2@@std@@PEB_W@Z 000000018002fae8     FilePath.obj
 0002:00000b10       $cppxdata$?FixPathForPlatform@FilePath@@SA?AV?$basic_string@_WU?$char_traits@_W@std@@V?$allocator@_W@2@@std@@V23@@Z 000000018002fb10     FilePath.obj
 0002:00000b38       $cppxdata$?FixPathSeparatorForPlatform@FilePath@@SA?AV?$basic_string@_WU?$char_traits@_W@std@@V?$allocator@_W@2@@std@@V23@@Z 000000018002fb38     FilePath.obj
 0002:00000b60       $cppxdata$?CreateDirectoryW@FilePath@@SA_NV?$basic_string@_WU?$char_traits@_W@std@@V?$allocator@_W@2@@std@@_N@Z 000000018002fb60     FilePath.obj
 0002:00000b88       $cppxdata$?_Buynode0@?$_List_alloc@U?$_List_base_types@V?$basic_string@_WU?$char_traits@_W@std@@V?$allocator@_W@2@@std@@V?$allocator@V?$basic_string@_WU?$char_traits@_W@std@@V?$allocator@_W@2@@std@@@2@@std@@@std@@QEAAPEAU?$_List_node@V?$basic_string@_WU?$char_traits@_W@std@@V?$allocator@_W@2@@std@@PEAX@2@PEAU32@0@Z 000000018002fb88     FilePath.obj
 0002:00000bb0       $cppxdata$??$_Emplace_reallocate@W4FileAttribute@@@?$vector@W4FileAttribute@@V?$allocator@W4FileAttribute@@@std@@@std@@QEAAPEAW4FileAttribute@@QEAW42@$$QEAW42@@Z 000000018002fbb0     FilePath.obj
 0002:00000bd8       $cppxdata$??$_Buynode@AEAV?$basic_string@_WU?$char_traits@_W@std@@V?$allocator@_W@2@@std@@@?$_List_buy@V?$basic_string@_WU?$char_traits@_W@std@@V?$allocator@_W@2@@std@@V?$allocator@V?$basic_string@_WU?$char_traits@_W@std@@V?$allocator@_W@2@@std@@@2@@std@@QEAAPEAU?$_List_node@V?$basic_string@_WU?$char_traits@_W@std@@V?$allocator@_W@2@@std@@PEAX@1@PEAU21@0AEAV?$basic_string@_WU?$char_traits@_W@std@@V?$allocator@_W@2@@1@@Z 000000018002fbd8     IniFile.obj
 0002:00000bd8       $cppxdata$??$_Buynode@AEBV?$basic_string@_WU?$char_traits@_W@std@@V?$allocator@_W@2@@std@@@?$_List_buy@V?$basic_string@_WU?$char_traits@_W@std@@V?$allocator@_W@2@@std@@V?$allocator@V?$basic_string@_WU?$char_traits@_W@std@@V?$allocator@_W@2@@std@@@2@@std@@QEAAPEAU?$_List_node@V?$basic_string@_WU?$char_traits@_W@std@@V?$allocator@_W@2@@std@@PEAX@1@PEAU21@0AEBV?$basic_string@_WU?$char_traits@_W@std@@V?$allocator@_W@2@@1@@Z 000000018002fbd8     FilePath.obj
 0002:00000c40       $cppxdata$??1locale@std@@QEAA@XZ 000000018002fc40     GenericPlatform.obj
 0002:00000c68       $cppxdata$?GetPackageAppDirectory@GenericPlatform@@UEAA?AV?$basic_string@_WU?$char_traits@_W@std@@V?$allocator@_W@2@@std@@XZ 000000018002fc68     GenericPlatform.obj
 0002:00000c90       $cppxdata$?GetConfigFileName@GenericPlatform@@UEAA?AV?$basic_string@_WU?$char_traits@_W@std@@V?$allocator@_W@2@@std@@XZ 000000018002fc90     GenericPlatform.obj
 0002:00000cb8       $cppxdata$?LoadFromFile@GenericPlatform@@UEAA?AV?$list@V?$basic_string@_WU?$char_traits@_W@std@@V?$allocator@_W@2@@std@@V?$allocator@V?$basic_string@_WU?$char_traits@_W@std@@V?$allocator@_W@2@@std@@@2@@std@@V?$basic_string@_WU?$char_traits@_W@std@@V?$allocator@_W@2@@3@@Z 000000018002fcb8     GenericPlatform.obj
 0002:00000ce0       $cppxdata$?SaveToFile@GenericPlatform@@UEAAXV?$basic_string@_WU?$char_traits@_W@std@@V?$allocator@_W@2@@std@@V?$list@V?$basic_string@_WU?$char_traits@_W@std@@V?$allocator@_W@2@@std@@V?$allocator@V?$basic_string@_WU?$char_traits@_W@std@@V?$allocator@_W@2@@std@@@2@@3@_N@Z 000000018002fce0     GenericPlatform.obj
 0002:00000d08       $cppxdata$?GetAppName@GenericPlatform@@UEAA?AV?$basic_string@_WU?$char_traits@_W@std@@V?$allocator@_W@2@@std@@XZ 000000018002fd08     GenericPlatform.obj
 0002:00000d30       $cppxdata$?GetKeys@GenericPlatform@@UEAA?AV?$map@V?$basic_string@_WU?$char_traits@_W@std@@V?$allocator@_W@2@@std@@V12@U?$less@V?$basic_string@_WU?$char_traits@_W@std@@V?$allocator@_W@2@@std@@@2@V?$allocator@U?$pair@$$CBV?$basic_string@_WU?$char_traits@_W@std@@V?$allocator@_W@2@@std@@V12@@std@@@2@@std@@XZ 000000018002fd30     GenericPlatform.obj
 0002:00000d58       $cppxdata$??$?H_WU?$char_traits@_W@std@@V?$allocator@_W@1@@std@@YA?AV?$basic_string@_WU?$char_traits@_W@std@@V?$allocator@_W@2@@0@AEBV10@QEB_W@Z 000000018002fd58     GenericPlatform.obj
 0002:00000d80       $cppxdata$??1?$basic_filebuf@_WU?$char_traits@_W@std@@@std@@UEAA@XZ 000000018002fd80     GenericPlatform.obj
 0002:00000da8       $cppxdata$?open@?$basic_filebuf@_WU?$char_traits@_W@std@@@std@@QEAAPEAV12@PEB_WHH@Z 000000018002fda8     GenericPlatform.obj
 0002:00000dd0       $cppxdata$?uflow@?$basic_filebuf@_WU?$char_traits@_W@std@@@std@@MEAAGXZ 000000018002fdd0     GenericPlatform.obj
 0002:00000df8       $cppxdata$?do_length@?$codecvt_utf8@_W$0BAPPPP@$0A@@std@@MEBAHAEAU_Mbstatet@@PEBD1_K@Z 000000018002fdf8     GenericPlatform.obj
 0002:00000e20       $cppxdata$?_Buyheadnode@?$_Tree_comp_alloc@V?$_Tmap_traits@V?$basic_string@_WU?$char_traits@_W@std@@V?$allocator@_W@2@@std@@V12@U?$less@V?$basic_string@_WU?$char_traits@_W@std@@V?$allocator@_W@2@@std@@@2@V?$allocator@U?$pair@$$CBV?$basic_string@_WU?$char_traits@_W@std@@V?$allocator@_W@2@@std@@V12@@std@@@2@$0A@@std@@@std@@QEAAPEAU?$_Tree_node@U?$pair@$$CBV?$basic_string@_WU?$char_traits@_W@std@@V?$allocator@_W@2@@std@@V12@@std@@PEAX@2@XZ 000000018002fe20     GenericPlatform.obj
 0002:00000e48       $cppxdata$?_Buynode0@?$_Tree_comp_alloc@V?$_Tmap_traits@V?$basic_string@_WU?$char_traits@_W@std@@V?$allocator@_W@2@@std@@V12@U?$less@V?$basic_string@_WU?$char_traits@_W@std@@V?$allocator@_W@2@@std@@@2@V?$allocator@U?$pair@$$CBV?$basic_string@_WU?$char_traits@_W@std@@V?$allocator@_W@2@@std@@V12@@std@@@2@$0A@@std@@@std@@QEAAPEAU?$_Tree_node@U?$pair@$$CBV?$basic_string@_WU?$char_traits@_W@std@@V?$allocator@_W@2@@std@@V12@@std@@PEAX@2@XZ 000000018002fe48     GenericPlatform.obj
 0002:00000e70       $cppxdata$??1?$map@V?$basic_string@_WU?$char_traits@_W@std@@V?$allocator@_W@2@@std@@V12@U?$less@V?$basic_string@_WU?$char_traits@_W@std@@V?$allocator@_W@2@@std@@@2@V?$allocator@U?$pair@$$CBV?$basic_string@_WU?$char_traits@_W@std@@V?$allocator@_W@2@@std@@V12@@std@@@2@@std@@QEAA@XZ 000000018002fe70     GenericPlatform.obj
 0002:00000e98       $cppxdata$??$use_facet@V?$codecvt@_WDU_Mbstatet@@@std@@@std@@YAAEBV?$codecvt@_WDU_Mbstatet@@@0@AEBVlocale@0@@Z 000000018002fe98     GenericPlatform.obj
 0002:00000ec0       $cppxdata$??$getline@_WU?$char_traits@_W@std@@V?$allocator@_W@2@@std@@YAAEAV?$basic_istream@_WU?$char_traits@_W@std@@@0@$$QEAV10@AEAV?$basic_string@_WU?$char_traits@_W@std@@V?$allocator@_W@2@@0@_W@Z 000000018002fec0     GenericPlatform.obj
 0002:00000ee8       $cppxdata$??$_Insert_string@_WU?$char_traits@_W@std@@_K@std@@YAAEAV?$basic_ostream@_WU?$char_traits@_W@std@@@0@AEAV10@QEB_W_K@Z 000000018002fee8     GenericPlatform.obj
 0002:00000f10       $cppxdata$??$_Insert_nohint@U?$pair@$$CBV?$basic_string@_WU?$char_traits@_W@std@@V?$allocator@_W@2@@std@@V12@@std@@U_Not_a_node_tag@2@@?$_Tree@V?$_Tmap_traits@V?$basic_string@_WU?$char_traits@_W@std@@V?$allocator@_W@2@@std@@V12@U?$less@V?$basic_string@_WU?$char_traits@_W@std@@V?$allocator@_W@2@@std@@@2@V?$allocator@U?$pair@$$CBV?$basic_string@_WU?$char_traits@_W@std@@V?$allocator@_W@2@@std@@V12@@std@@@2@$0A@@std@@@std@@IEAA?AU?$pair@V?$_Tree_iterator@V?$_Tree_val@U?$_Tree_simple_types@U?$pair@$$CBV?$basic_string@_WU?$char_traits@_W@std@@V?$allocator@_W@2@@std@@V12@@std@@@std@@@std@@@std@@_N@1@_N$$QEAU?$pair@$$CBV?$basic_string@_WU?$char_traits@_W@std@@V?$allocator@_W@2@@std@@V12@@1@U_Not_a_node_tag@1@@Z 000000018002ff10     GenericPlatform.obj
 0002:00000f38       $cppxdata$??$_Buynode@V?$basic_string@_WU?$char_traits@_W@std@@V?$allocator@_W@2@@std@@@?$_List_buy@V?$basic_string@_WU?$char_traits@_W@std@@V?$allocator@_W@2@@std@@V?$allocator@V?$basic_string@_WU?$char_traits@_W@std@@V?$allocator@_W@2@@std@@@2@@std@@QEAAPEAU?$_List_node@V?$basic_string@_WU?$char_traits@_W@std@@V?$allocator@_W@2@@std@@PEAX@1@PEAU21@0$$QEAV?$basic_string@_WU?$char_traits@_W@std@@V?$allocator@_W@2@@1@@Z 000000018002ff38     GenericPlatform.obj
 0002:00000f60       $cppxdata$??1_Sentry_base@?$basic_istream@_WU?$char_traits@_W@std@@@std@@QEAA@XZ 000000018002ff60     GenericPlatform.obj
 0002:00000f60       $cppxdata$??1_Sentry_base@?$basic_ostream@_WU?$char_traits@_W@std@@@std@@QEAA@XZ 000000018002ff60     GenericPlatform.obj
 0002:00000f88       $cppxdata$??1sentry@?$basic_ostream@_WU?$char_traits@_W@std@@@std@@QEAA@XZ 000000018002ff88     GenericPlatform.obj
 0002:00000fb0       $cppxdata$??1sentry@?$basic_istream@_WU?$char_traits@_W@std@@@std@@QEAA@XZ 000000018002ffb0     GenericPlatform.obj
 0002:00000fd8       $cppxdata$??$_Buynode@U?$pair@$$CBV?$basic_string@_WU?$char_traits@_W@std@@V?$allocator@_W@2@@std@@V12@@std@@@?$_Tree_comp_alloc@V?$_Tmap_traits@V?$basic_string@_WU?$char_traits@_W@std@@V?$allocator@_W@2@@std@@V12@U?$less@V?$basic_string@_WU?$char_traits@_W@std@@V?$allocator@_W@2@@std@@@2@V?$allocator@U?$pair@$$CBV?$basic_string@_WU?$char_traits@_W@std@@V?$allocator@_W@2@@std@@V12@@std@@@2@$0A@@std@@@std@@QEAAPEAU?$_Tree_node@U?$pair@$$CBV?$basic_string@_WU?$char_traits@_W@std@@V?$allocator@_W@2@@std@@V12@@std@@PEAX@1@$$QEAU?$pair@$$CBV?$basic_string@_WU?$char_traits@_W@std@@V?$allocator@_W@2@@std@@V12@@1@@Z 000000018002ffd8     GenericPlatform.obj
 0002:0000181c       ?piecewise_construct@std@@3Upiecewise_construct_t@1@B 000000018003081c     Helpers.obj
 0002:00001820       $cppxdata$?SplitOptionIntoNameValue@Helpers@@SA_NV?$basic_string@_WU?$char_traits@_W@std@@V?$allocator@_W@2@@std@@AEAV23@1@Z 0000000180030820     Helpers.obj
 0002:00001848       $cppxdata$?ReplaceString@Helpers@@SA?AV?$basic_string@_WU?$char_traits@_W@std@@V?$allocator@_W@2@@std@@V23@AEBV23@1@Z 0000000180030848     Helpers.obj
 0002:00001870       $cppxdata$?ConvertIdToFilePath@Helpers@@SA?AV?$basic_string@_WU?$char_traits@_W@std@@V?$allocator@_W@2@@std@@V23@@Z 0000000180030870     Helpers.obj
 0002:00001898       $cppxdata$?ConvertIdToJavaPath@Helpers@@SA?AV?$basic_string@_WU?$char_traits@_W@std@@V?$allocator@_W@2@@std@@V23@@Z 0000000180030898     Helpers.obj
 0002:000018c0       $cppxdata$?GetJVMArgsFromConfig@Helpers@@SA?AV?$OrderedMap@V?$basic_string@_WU?$char_traits@_W@std@@V?$allocator@_W@2@@std@@V12@@@PEAVIPropertyContainer@@@Z 00000001800308c0     Helpers.obj
 0002:000018e8       $cppxdata$?GetJVMUserArgsFromConfig@Helpers@@SA?AV?$OrderedMap@V?$basic_string@_WU?$char_traits@_W@std@@V?$allocator@_W@2@@std@@V12@@@PEAVIPropertyContainer@@@Z 00000001800308e8     Helpers.obj
 0002:00001910       $cppxdata$?GetArgsFromConfig@Helpers@@SA?AV?$list@V?$basic_string@_WU?$char_traits@_W@std@@V?$allocator@_W@2@@std@@V?$allocator@V?$basic_string@_WU?$char_traits@_W@std@@V?$allocator@_W@2@@std@@@2@@std@@PEAVIPropertyContainer@@@Z 0000000180030910     Helpers.obj
 0002:00001938       $cppxdata$?LoadOldConfigFile@Helpers@@SAXV?$basic_string@_WU?$char_traits@_W@std@@V?$allocator@_W@2@@std@@PEAVIniFile@@@Z 0000000180030938     Helpers.obj
 0002:00001960       $cppxdata$?MapToNameValueList@Helpers@@SA?AV?$list@V?$basic_string@_WU?$char_traits@_W@std@@V?$allocator@_W@2@@std@@V?$allocator@V?$basic_string@_WU?$char_traits@_W@std@@V?$allocator@_W@2@@std@@@2@@std@@V?$OrderedMap@V?$basic_string@_WU?$char_traits@_W@std@@V?$allocator@_W@2@@std@@V12@@@@Z 0000000180030960     Helpers.obj
 0002:00001988       $cppxdata$?NameValueToString@Helpers@@SA?AV?$basic_string@_WU?$char_traits@_W@std@@V?$allocator@_W@2@@std@@V23@0@Z 0000000180030988     Helpers.obj
 0002:000019b0       $cppxdata$?AppendToIni@@YAXAEAVPropertyFile@@PEAVIniFile@@V?$basic_string@_WU?$char_traits@_W@std@@V?$allocator@_W@2@@std@@@Z 00000001800309b0     Helpers.obj
 0002:000019d8       $cppxdata$??$_Buynode@AEBUpiecewise_construct_t@std@@V?$tuple@$$QEAV?$basic_string@_WU?$char_traits@_W@std@@V?$allocator@_W@2@@std@@@2@V?$tuple@$$V@2@@?$_Tree_comp_alloc@V?$_Tmap_traits@V?$basic_string@_WU?$char_traits@_W@std@@V?$allocator@_W@2@@std@@V12@U?$less@V?$basic_string@_WU?$char_traits@_W@std@@V?$allocator@_W@2@@std@@@2@V?$allocator@U?$pair@$$CBV?$basic_string@_WU?$char_traits@_W@std@@V?$allocator@_W@2@@std@@V12@@std@@@2@$0A@@std@@@std@@QEAAPEAU?$_Tree_node@U?$pair@$$CBV?$basic_string@_WU?$char_traits@_W@std@@V?$allocator@_W@2@@std@@V12@@std@@PEAX@1@AEBUpiecewise_construct_t@1@$$QEAV?$tuple@$$QEAV?$basic_string@_WU?$char_traits@_W@std@@V?$allocator@_W@2@@std@@@1@$$QEAV?$tuple@$$V@1@@Z 00000001800309d8     Helpers.obj
 0002:00001a00       $cppxdata$??$_Insert_hint@AEAU?$pair@$$CBV?$basic_string@_WU?$char_traits@_W@std@@V?$allocator@_W@2@@std@@V12@@std@@PEAU?$_Tree_node@U?$pair@$$CBV?$basic_string@_WU?$char_traits@_W@std@@V?$allocator@_W@2@@std@@V12@@std@@PEAX@2@@?$_Tree@V?$_Tmap_traits@V?$basic_string@_WU?$char_traits@_W@std@@V?$allocator@_W@2@@std@@V12@U?$less@V?$basic_string@_WU?$char_traits@_W@std@@V?$allocator@_W@2@@std@@@2@V?$allocator@U?$pair@$$CBV?$basic_string@_WU?$char_traits@_W@std@@V?$allocator@_W@2@@std@@V12@@std@@@2@$0A@@std@@@std@@IEAA?AV?$_Tree_iterator@V?$_Tree_val@U?$_Tree_simple_types@U?$pair@$$CBV?$basic_string@_WU?$char_traits@_W@std@@V?$allocator@_W@2@@std@@V12@@std@@@std@@@std@@@1@V?$_Tree_const_iterator@V?$_Tree_val@U?$_Tree_simple_types@U?$pair@$$CBV?$basic_string@_WU?$char_traits@_W@std@@V?$allocator@_W@2@@std@@V12@@std@@@std@@@std@@@1@AEAU?$pair@$$CBV?$basic_string@_WU?$char_traits@_W@std@@V?$allocator@_W@2@@std@@V12@@1@PEAU?$_Tree_node@U?$pair@$$CBV?$basic_string@_WU?$char_traits@_W@std@@V?$allocator@_W@2@@std@@V12@@std@@PEAX@1@@Z 0000000180030a00     Helpers.obj
 0002:00001a28       $cppxdata$??$_Insert_nohint@AEAU?$pair@$$CBV?$basic_string@_WU?$char_traits@_W@std@@V?$allocator@_W@2@@std@@V12@@std@@PEAU?$_Tree_node@U?$pair@$$CBV?$basic_string@_WU?$char_traits@_W@std@@V?$allocator@_W@2@@std@@V12@@std@@PEAX@2@@?$_Tree@V?$_Tmap_traits@V?$basic_string@_WU?$char_traits@_W@std@@V?$allocator@_W@2@@std@@V12@U?$less@V?$basic_string@_WU?$char_traits@_W@std@@V?$allocator@_W@2@@std@@@2@V?$allocator@U?$pair@$$CBV?$basic_string@_WU?$char_traits@_W@std@@V?$allocator@_W@2@@std@@V12@@std@@@2@$0A@@std@@@std@@IEAA?AU?$pair@V?$_Tree_iterator@V?$_Tree_val@U?$_Tree_simple_types@U?$pair@$$CBV?$basic_string@_WU?$char_traits@_W@std@@V?$allocator@_W@2@@std@@V12@@std@@@std@@@std@@@std@@_N@1@_NAEAU?$pair@$$CBV?$basic_string@_WU?$char_traits@_W@std@@V?$allocator@_W@2@@std@@V12@@1@PEAU?$_Tree_node@U?$pair@$$CBV?$basic_string@_WU?$char_traits@_W@std@@V?$allocator@_W@2@@std@@V12@@std@@PEAX@1@@Z 0000000180030a28     Helpers.obj
 0002:00001aa8       ?piecewise_construct@std@@3Upiecewise_construct_t@1@B 0000000180030aa8     IniFile.obj
 0002:00001ab0       $cppxdata$?GetLines@IniSectionData@@QEAA?AV?$list@V?$basic_string@_WU?$char_traits@_W@std@@V?$allocator@_W@2@@std@@V?$allocator@V?$basic_string@_WU?$char_traits@_W@std@@V?$allocator@_W@2@@std@@@2@@std@@XZ 0000000180030ab0     IniFile.obj
 0002:00001ad8       $cppxdata$?SetValue@IniSectionData@@QEAA_NV?$basic_string@_WU?$char_traits@_W@std@@V?$allocator@_W@2@@std@@V23@@Z 0000000180030ad8     IniFile.obj
 0002:00001b00       $cppxdata$?GetValue@IniSectionData@@UEAA_NV?$basic_string@_WU?$char_traits@_W@std@@V?$allocator@_W@2@@std@@AEAV23@@Z 0000000180030b00     IniFile.obj
 0002:00001b28       $cppxdata$?Append@?$OrderedMap@V?$basic_string@_WU?$char_traits@_W@std@@V?$allocator@_W@2@@std@@PEAVIniSectionData@@@@QEAAXV?$basic_string@_WU?$char_traits@_W@std@@V?$allocator@_W@2@@std@@PEAVIniSectionData@@@Z 0000000180030b28     IniFile.obj
 0002:00001b50       $cppxdata$?GetValue@?$OrderedMap@V?$basic_string@_WU?$char_traits@_W@std@@V?$allocator@_W@2@@std@@PEAVIniSectionData@@@@QEAA_NV?$basic_string@_WU?$char_traits@_W@std@@V?$allocator@_W@2@@std@@AEAPEAVIniSectionData@@@Z 0000000180030b50     IniFile.obj
 0002:00001b78       $cppxdata$??0IniFile@@QEAA@XZ 0000000180030b78     IniFile.obj
 0002:00001ba0       $cppxdata$?LoadFromFile@IniFile@@QEAA_NV?$basic_string@_WU?$char_traits@_W@std@@V?$allocator@_W@2@@std@@@Z 0000000180030ba0     IniFile.obj
 0002:00001bc8       $cppxdata$?SaveToFile@IniFile@@QEAA_NV?$basic_string@_WU?$char_traits@_W@std@@V?$allocator@_W@2@@std@@_N@Z 0000000180030bc8     IniFile.obj
 0002:00001bf0       $cppxdata$?Append@IniFile@@QEAAXV?$basic_string@_WU?$char_traits@_W@std@@V?$allocator@_W@2@@std@@0V23@@Z 0000000180030bf0     IniFile.obj
 0002:00001c18       $cppxdata$?AppendSection@IniFile@@QEAAXV?$basic_string@_WU?$char_traits@_W@std@@V?$allocator@_W@2@@std@@V?$OrderedMap@V?$basic_string@_WU?$char_traits@_W@std@@V?$allocator@_W@2@@std@@V12@@@@Z 0000000180030c18     IniFile.obj
 0002:00001c40       $cppxdata$?SetValue@IniFile@@QEAA_NV?$basic_string@_WU?$char_traits@_W@std@@V?$allocator@_W@2@@std@@0V23@@Z 0000000180030c40     IniFile.obj
 0002:00001c68       $cppxdata$?GetSection@IniFile@@UEAA_NV?$basic_string@_WU?$char_traits@_W@std@@V?$allocator@_W@2@@std@@AEAV?$OrderedMap@V?$basic_string@_WU?$char_traits@_W@std@@V?$allocator@_W@2@@std@@V12@@@@Z 0000000180030c68     IniFile.obj
 0002:00001c90       $cppxdata$?ContainsSection@IniFile@@UEAA_NV?$basic_string@_WU?$char_traits@_W@std@@V?$allocator@_W@2@@std@@@Z 0000000180030c90     IniFile.obj
 0002:00001cb8       $cppxdata$?GetValue@IniFile@@UEAA_NV?$basic_string@_WU?$char_traits@_W@std@@V?$allocator@_W@2@@std@@0AEAV23@@Z 0000000180030cb8     IniFile.obj
 0002:00001ce0       $cppxdata$??0?$list@V?$basic_string@_WU?$char_traits@_W@std@@V?$allocator@_W@2@@std@@V?$allocator@V?$basic_string@_WU?$char_traits@_W@std@@V?$allocator@_W@2@@std@@@2@@std@@QEAA@AEBV01@@Z 0000000180030ce0     IniFile.obj
 0002:00001d08       $cppxdata$??$_Insert_range@V?$_List_iterator@V?$_List_val@U?$_List_simple_types@V?$basic_string@_WU?$char_traits@_W@std@@V?$allocator@_W@2@@std@@@std@@@std@@@std@@@?$list@V?$basic_string@_WU?$char_traits@_W@std@@V?$allocator@_W@2@@std@@V?$allocator@V?$basic_string@_WU?$char_traits@_W@std@@V?$allocator@_W@2@@std@@@2@@std@@QEAAXV?$_List_unchecked_const_iterator@V?$_List_val@U?$_List_simple_types@V?$basic_string@_WU?$char_traits@_W@std@@V?$allocator@_W@2@@std@@@std@@@std@@U_Iterator_base0@2@@1@V?$_List_iterator@V?$_List_val@U?$_List_simple_types@V?$basic_string@_WU?$char_traits@_W@std@@V?$allocator@_W@2@@std@@@std@@@std@@@1@1Uforward_iterator_tag@1@@Z 0000000180030d08     IniFile.obj
 0002:00001d08       $cppxdata$??$_Insert_range@V?$_List_const_iterator@V?$_List_val@U?$_List_simple_types@V?$basic_string@_WU?$char_traits@_W@std@@V?$allocator@_W@2@@std@@@std@@@std@@@std@@@?$list@V?$basic_string@_WU?$char_traits@_W@std@@V?$allocator@_W@2@@std@@V?$allocator@V?$basic_string@_WU?$char_traits@_W@std@@V?$allocator@_W@2@@std@@@2@@std@@QEAAXV?$_List_unchecked_const_iterator@V?$_List_val@U?$_List_simple_types@V?$basic_string@_WU?$char_traits@_W@std@@V?$allocator@_W@2@@std@@@std@@@std@@U_Iterator_base0@2@@1@V?$_List_const_iterator@V?$_List_val@U?$_List_simple_types@V?$basic_string@_WU?$char_traits@_W@std@@V?$allocator@_W@2@@std@@@std@@@std@@@1@1Uforward_iterator_tag@1@@Z 0000000180030d08     IniFile.obj
 0002:00001dd0       $cppxdata$??0Exception@@QEAA@V?$basic_string@_WU?$char_traits@_W@std@@V?$allocator@_W@2@@std@@@Z 0000000180030dd0     Java.obj
 0002:00001df8       $cppxdata$??0Exception@@QEAA@AEBV0@@Z 0000000180030df8     Java.obj
 0002:00001e20       $cppxdata$??0JavaException@@QEAA@PEAUJNIEnv_@@V?$basic_string@_WU?$char_traits@_W@std@@V?$allocator@_W@2@@std@@@Z 0000000180030e20     Java.obj
 0002:00001e48       $cppxdata$??0JavaException@@QEAA@AEBV0@@Z 0000000180030e48     Java.obj
 0002:00001e70       $cppxdata$??0JavaClass@@QEAA@PEAUJNIEnv_@@V?$basic_string@_WU?$char_traits@_W@std@@V?$allocator@_W@2@@std@@@Z 0000000180030e70     Java.obj
 0002:00001e98       $cppxdata$??1JavaClass@@QEAA@XZ 0000000180030e98     Java.obj
 0002:00001ec0       $cppxdata$?GetStaticMethod@JavaClass@@QEAA?AVJavaStaticMethod@@V?$basic_string@_WU?$char_traits@_W@std@@V?$allocator@_W@2@@std@@0@Z 0000000180030ec0     Java.obj
 0002:00001ee8       $cppxdata$?Initialize@JavaStringArray@@AEAAX_K@Z 0000000180030ee8     Java.obj
 0002:00001f10       $cppxdata$??0JavaStringArray@@QEAA@PEAUJNIEnv_@@V?$list@V?$basic_string@_WU?$char_traits@_W@std@@V?$allocator@_W@2@@std@@V?$allocator@V?$basic_string@_WU?$char_traits@_W@std@@V?$allocator@_W@2@@std@@@2@@std@@@Z 0000000180030f10     Java.obj
 0002:00002030       $cppxdata$?CreateInstance@JavaUserPreferences@@SAPEAV1@XZ 0000000180031030     JavaUserPreferences.obj
 0002:00002058       $cppxdata$??0JavaUserPreferences@@QEAA@XZ 0000000180031058     JavaUserPreferences.obj
 0002:00002080       $cppxdata$?GetData@JavaUserPreferences@@QEAA?AV?$OrderedMap@V?$basic_string@_WU?$char_traits@_W@std@@V?$allocator@_W@2@@std@@V12@@@XZ 0000000180031080     JavaUserPreferences.obj
 0002:000020c0       ?piecewise_construct@std@@3Upiecewise_construct_t@1@B 00000001800310c0     JavaVirtualMachine.obj
 0002:000020c8       $cppxdata$?StartJVM@JavaVirtualMachine@@QEAA_NXZ 00000001800310c8     JavaVirtualMachine.obj
 0002:000020f0       $cppxdata$?_Buynode0@?$_List_alloc@U?$_List_base_types@UJavaOptionItem@@V?$allocator@UJavaOptionItem@@@std@@@std@@@std@@QEAAPEAU?$_List_node@UJavaOptionItem@@PEAX@2@PEAU32@0@Z 00000001800310f0     JavaVirtualMachine.obj
 0002:00002118       $cppxdata$?AppendValue@JavaOptions@@QEAAXV?$basic_string@_WU?$char_traits@_W@std@@V?$allocator@_W@2@@std@@V23@@Z 0000000180031118     JavaVirtualMachine.obj
 0002:00002140       $cppxdata$?AppendValues@JavaOptions@@QEAAXV?$OrderedMap@V?$basic_string@_WU?$char_traits@_W@std@@V?$allocator@_W@2@@std@@V12@@@@Z 0000000180031140     JavaVirtualMachine.obj
 0002:00002168       $cppxdata$?ToJavaOptions@JavaOptions@@QEAAPEAUJavaVMOption@@XZ 0000000180031168     JavaVirtualMachine.obj
 0002:00002190       $cppxdata$?RemoveTrailingEquals@@YA?AV?$OrderedMap@V?$basic_string@_WU?$char_traits@_W@std@@V?$allocator@_W@2@@std@@V12@@@V1@@Z 0000000180031190     JavaVirtualMachine.obj
 0002:000021b8       $cppxdata$??$_Buynode@AEBUJavaOptionItem@@@?$_List_buy@UJavaOptionItem@@V?$allocator@UJavaOptionItem@@@std@@@std@@QEAAPEAU?$_List_node@UJavaOptionItem@@PEAX@1@PEAU21@0AEBUJavaOptionItem@@@Z 00000001800311b8     JavaVirtualMachine.obj
