 glass

 Timestamp is 5c212b17 (Mon Dec 24 13:53:11 2018)

 Preferred load address is 0000000180000000

 Start         Length     Name                   Class
 0001:00000000 000001d0H .text$di                CODE
 0001:000001d0 00023820H .text$mn                CODE
 0001:000239f0 00000020H .text$mn$00             CODE
 0001:00023a10 00001b90H .text$x                 CODE
 0001:000255a0 0000029eH .text$yd                CODE
 0002:00000000 00000518H .idata$5                DATA
 0002:00000518 00000010H .00cfg                  DATA
 0002:00000528 00000008H .CRT$XCA                DATA
 0002:00000530 00000030H .CRT$XCU                DATA
 0002:00000560 00000008H .CRT$XCZ                DATA
 0002:00000568 00000008H .CRT$XIA                DATA
 0002:00000570 00000008H .CRT$XIC                DATA
 0002:00000578 00000008H .CRT$XIZ                DATA
 0002:00000580 00000008H .CRT$XLA                DATA
 0002:00000588 00000008H .CRT$XLZ                DATA
 0002:00000590 00000008H .CRT$XPA                DATA
 0002:00000598 00000008H .CRT$XPZ                DATA
 0002:000005a0 00000008H .CRT$XTA                DATA
 0002:000005a8 00000008H .CRT$XTZ                DATA
 0002:000005b0 00000000H .gfids$y                DATA
 0002:000005b0 00004d60H .rdata                  DATA
 0002:00005310 00000030H .rdata$T                DATA
 0002:00005340 00003ab4H .rdata$r                DATA
 0002:00008df4 000003b4H .rdata$zzzdbg           DATA
 0002:000091a8 00000008H .rtc$IAA                DATA
 0002:000091b0 00000008H .rtc$IZZ                DATA
 0002:000091b8 00000008H .rtc$TAA                DATA
 0002:000091c0 00000008H .rtc$TZZ                DATA
 0002:000091c8 00000004H .tls                    DATA
 0002:000091cc 00000004H .tls$                   DATA
 0002:000091d0 00000010H .tls$ZZZ                DATA
 0002:000091e0 00005030H .xdata                  DATA
 0002:0000e210 0000019cH .xdata$x                DATA
 0002:0000e3ac 000000c0H .didat$2                DATA
 0002:0000e46c 00000024H .didat$3                DATA
 0002:0000e490 00000420H .didat$4                DATA
 0002:0000e8b0 000008f8H .didat$6                DATA
 0002:0000f1a8 00000428H .didat$7                DATA
 0002:0000f5d0 00001d34H .edata                  DATA
 0002:00011304 0000012cH .idata$2                DATA
 0002:00011430 00000018H .idata$3                DATA
 0002:00011448 00000518H .idata$4                DATA
 0002:00011960 00000b6aH .idata$6                DATA
 0003:00000000 00000210H .data                   DATA
 0003:00000210 00002228H .data$r                 DATA
 0003:00002438 00000428H .didat$5                DATA
 0003:00002860 00000f20H .bss                    DATA
 0004:00000000 00002958H .pdata                  DATA
 0005:00000000 00000190H .rsrc$01                DATA
 0005:00000190 00002498H .rsrc$02                DATA

  Address         Publics by Value              Rva+Base               Lib:Object

 0000:00000000       __guard_fids_count         0000000000000000     <absolute>
 0000:00000000       __guard_longjmp_count      0000000000000000     <absolute>
 0000:00000000       __guard_longjmp_table      0000000000000000     <absolute>
 0000:00000000       ___safe_se_handler_count   0000000000000000     <absolute>
 0000:00000000       __guard_iat_table          0000000000000000     <absolute>
 0000:00000000       __hybrid_code_map          0000000000000000     <absolute>
 0000:00000000       __guard_iat_count          0000000000000000     <absolute>
 0000:00000000       __hybrid_code_map_count    0000000000000000     <absolute>
 0000:00000000       __volatile_metadata        0000000000000000     <absolute>
 0000:00000000       __enclave_config           0000000000000000     <absolute>
 0000:00000000       ___safe_se_handler_table   0000000000000000     <absolute>
 0000:00000000       __guard_fids_table         0000000000000000     <absolute>
 0000:00000000       __hybrid_auxiliary_iat     0000000000000000     <absolute>
 0000:00000000       __dynamic_value_reloc_table 0000000000000000     <absolute>
 0000:00000100       __guard_flags              0000000000000100     <absolute>
 0000:00000000       __ImageBase                0000000180000000     <linker-defined>
 0001:000001d0       ??0BaseWnd@@QEAA@PEAUHWND__@@@Z 00000001800011d0 f   BaseWnd.obj
 0001:00000200       ??1BaseWnd@@UEAA@XZ        0000000180001200 f   BaseWnd.obj
 0001:00000280       ??_GAction@@UEAAPEAXI@Z    0000000180001280 f i BaseWnd.obj
 0001:00000280       ??_EAction@@UEAAPEAXI@Z    0000000180001280 f i BaseWnd.obj
 0001:000002b0       ??_GBaseWnd@@UEAAPEAXI@Z   00000001800012b0 f i BaseWnd.obj
 0001:000002b0       ??_EBaseWnd@@UEAAPEAXI@Z   00000001800012b0 f i BaseWnd.obj
 0001:00000370       ?CommonWindowProc@BaseWnd@@MEAA?AUMessageResult@@I_K_J@Z 0000000180001370 f   BaseWnd.obj
 0001:000003c0       ?Create@BaseWnd@@QEAAPEAUHWND__@@PEAU2@HHHHPEB_WKKPEAUHBRUSH__@@@Z 00000001800013c0 f   BaseWnd.obj
 0001:000005f0       ?ManipulationCompleted@ManipulationEventSink@@UEAAJMMMMMMM@Z 00000001800015f0 f i ManipulationEvents.obj
 0001:000005f0       _is_c_termination_complete 00000001800015f0 f i MSVCRT:ucrt_stubs.obj
 0001:000005f0       __scrt_stub_for_is_c_termination_complete 00000001800015f0 f i MSVCRT:ucrt_stubs.obj
 0001:000005f0       ?ManipulationStarted@ManipulationEventSink@@UEAAJMM@Z 00000001800015f0 f i ManipulationEvents.obj
 0001:000005f0       ?EnterFullScreenMode@BaseWnd@@UEAAHPEAVGlassView@@HH@Z 00000001800015f0 f i BaseWnd.obj
 0001:00000600       Java_com_sun_glass_ui_win_WinView__1end 0000000180001600 f i GlassView.obj
 0001:00000600       _guard_check_icall_nop     0000000180001600 f i MSVCRT:guard_support.obj
 0001:00000600       Java_com_sun_glass_ui_win_WinView__1begin 0000000180001600 f i GlassView.obj
 0001:00000600       ?ExitFullScreenMode@BaseWnd@@UEAAXH@Z 0000000180001600 f i BaseWnd.obj
 0001:00000610       ?FromHandle@BaseWnd@@SAPEAV1@PEAUHWND__@@@Z 0000000180001610 f   BaseWnd.obj
 0001:00000620       ?GetDefaultWindowBounds@BaseWnd@@SAHPEAUtagRECT@@@Z 0000000180001620 f   BaseWnd.obj
 0001:00000720       ?IsGlassWindow@BaseWnd@@UEAA_NXZ 0000000180001720 f i BaseWnd.obj
 0001:00000730       ?SetCursor@BaseWnd@@QEAAXPEAUHICON__@@@Z 0000000180001730 f   BaseWnd.obj
 0001:00000740       ?StaticWindowProc@BaseWnd@@CA_JPEAUHWND__@@I_K_J@Z 0000000180001740 f   BaseWnd.obj
 0001:00000810       __local_stdio_printf_options 0000000180001810 f i BaseWnd.obj
 0001:00000820       swprintf_s                 0000000180001820 f i BaseWnd.obj
 0001:00000880       wprintf_s                  0000000180001880 f i BaseWnd.obj
 0001:000008e0       ??0JString@@QEAA@PEAUJNIEnv_@@PEAV_jstring@@@Z 00000001800018e0 f i CommonDialogs.obj
 0001:00000970       ??1JString@@QEAA@XZ        0000000180001970 f i CommonDialogs.obj
 0001:00000990       Java_com_sun_glass_ui_win_WinCommonDialogs__1initIDs 0000000180001990 f   CommonDialogs.obj
 0001:00000a90       Java_com_sun_glass_ui_win_WinCommonDialogs__1showFileChooser 0000000180001a90 f   CommonDialogs.obj
 0001:00000cf0       Java_com_sun_glass_ui_win_WinCommonDialogs__1showFolderChooser 0000000180001cf0 f   CommonDialogs.obj
 0001:00000e70       ??0_bstr_t@@QEAA@PEB_W@Z   0000000180001e70 f i CommonDialogs_COM.obj
 0001:00000f00       ??1?$JLocalRef@PEAV_jthrowable@@@@QEAA@XZ 0000000180001f00 f i GlassClipboard.obj
 0001:00000f00       ??1?$JLocalRef@PEAV_jstring@@@@QEAA@XZ 0000000180001f00 f i CommonDialogs_COM.obj
 0001:00000f00       ??1?$JLocalRef@PEAV_jobjectArray@@@@QEAA@XZ 0000000180001f00 f i CommonDialogs_COM.obj
 0001:00000f00       ??1?$JLocalRef@PEAV_jbyteArray@@@@QEAA@XZ 0000000180001f00 f i GlassClipboard.obj
 0001:00000f00       ??1?$JLocalRef@PEAV_jobject@@@@QEAA@XZ 0000000180001f00 f i CommonDialogs_COM.obj
 0001:00000f00       ??1?$JLocalRef@PEAV_jclass@@@@QEAA@XZ 0000000180001f00 f i CommonDialogs_COM.obj
 0001:00000f30       ??1?$_com_ptr_t@V?$_com_IIID@UIEnumFORMATETC@@$1?_GUID_00000103_0000_0000_c000_000000000046@@3U__s_GUID@@B@@@@QEAA@XZ 0000000180001f30 f i GlassClipboard.obj
 0001:00000f30       ??1?$_com_ptr_t@V?$_com_IIID@UIStorage@@$1?_GUID_0000000b_0000_0000_c000_000000000046@@3U__s_GUID@@B@@@@QEAA@XZ 0000000180001f30 f i GlassClipboard.obj
 0001:00000f30       ??1?$_com_ptr_t@V?$_com_IIID@UIFileDialog@@$1?_GUID_42f85136_db7e_439c_85f1_e4075d135fc8@@3U__s_GUID@@B@@@@QEAA@XZ 0000000180001f30 f i CommonDialogs_COM.obj
 0001:00000f30       ??1?$_com_ptr_t@V?$_com_IIID@UIDragSourceHelper@@$1?IID_IDragSourceHelper@@3U_GUID@@B@@@@QEAA@XZ 0000000180001f30 f i GlassClipboard.obj
 0001:00000f30       ??1?$_com_ptr_t@V?$_com_IIID@UIFileOpenDialog@@$1?_GUID_d57c7288_d4ad_4768_be02_9d969532d960@@3U__s_GUID@@B@@@@QEAA@XZ 0000000180001f30 f i CommonDialogs_COM.obj
 0001:00000f30       ??1?$_com_ptr_t@V?$_com_IIID@UIDropTargetHelper@@$1?IID_IDropTargetHelper@@3U_GUID@@B@@@@QEAA@XZ 0000000180001f30 f i GlassDnD.obj
 0001:00000f30       ??1?$_com_ptr_t@V?$_com_IIID@UIViewObject2@@$1?_GUID_00000127_0000_0000_c000_000000000046@@3U__s_GUID@@B@@@@QEAA@XZ 0000000180001f30 f i GlassClipboard.obj
 0001:00000f30       ??1?$_com_ptr_t@V?$_com_IIID@UIOleObject@@$1?_GUID_00000112_0000_0000_c000_000000000046@@3U__s_GUID@@B@@@@QEAA@XZ 0000000180001f30 f i GlassClipboard.obj
 0001:00000f30       ??1?$_com_ptr_t@V?$_com_IIID@UIShellItemArray@@$1?_GUID_b63ea76d_1f85_456f_a19c_48159efa858b@@3U__s_GUID@@B@@@@QEAA@XZ 0000000180001f30 f i CommonDialogs_COM.obj
 0001:00000f30       ??1?$_com_ptr_t@V?$_com_IIID@UIShellItem@@$1?_GUID_43826d1e_e718_42ee_bc55_a1e261c37bfe@@3U__s_GUID@@B@@@@QEAA@XZ 0000000180001f30 f i CommonDialogs_COM.obj
 0001:00000f30       ??1?$_com_ptr_t@V?$_com_IIID@UIDataAdviseHolder@@$1?_GUID_00000110_0000_0000_c000_000000000046@@3U__s_GUID@@B@@@@QEAA@XZ 0000000180001f30 f i GlassClipboard.obj
 0001:00000f40       ??1OLEHolder@@QEAA@XZ      0000000180001f40 f i CommonDialogs_COM.obj
 0001:00000f50       ??1?$pair@V_bstr_t@@G@std@@QEAA@XZ 0000000180001f50 f i GlassClipboard.obj
 0001:00000f50       ??1_bstr_t@@QEAA@XZ        0000000180001f50 f i CommonDialogs_COM.obj
 0001:00000f60       ??Y_bstr_t@@QEAAAEAV0@AEBV0@@Z 0000000180001f60 f i CommonDialogs_COM.obj
 0001:000010d0       ?COMFileChooser_Show@@YAPEAV_jobject@@PEAUHWND__@@PEB_W11JEPEAV_jobjectArray@@J@Z 00000001800020d0 f   CommonDialogs_COM.obj
 0001:000014a0       ?COMFolderChooser_Show@@YAPEAV_jstring@@PEAUHWND__@@PEB_W1@Z 00000001800024a0 f   CommonDialogs_COM.obj
 0001:000016d0       ?CallObjectMethod@JNIEnv_@@QEAAPEAV_jobject@@PEAV2@PEAU_jmethodID@@ZZ 00000001800026d0 f i CommonDialogs_COM.obj
 0001:00001700       ?CallStaticObjectMethod@JNIEnv_@@QEAAPEAV_jobject@@PEAV_jclass@@PEAU_jmethodID@@ZZ 0000000180002700 f i CommonDialogs_COM.obj
 0001:00001730       ?ConcatJStrings@@YAPEAV_jstring@@PEAUJNIEnv_@@PEAV1@1@Z 0000000180002730 f i CommonDialogs_COM.obj
 0001:000017e0       ?CreateJString@@YAPEAV_jstring@@PEAUJNIEnv_@@PEB_W@Z 00000001800027e0 f i CommonDialogs_COM.obj
 0001:00001850       ?CreateJString@@YAPEAV_jstring@@PEAUJNIEnv_@@V?$_com_ptr_t@V?$_com_IIID@UIShellItem@@$1?_GUID_43826d1e_e718_42ee_bc55_a1e261c37bfe@@3U__s_GUID@@B@@@@@Z 0000000180002850 f   CommonDialogs_COM.obj
 0001:00001930       ?ErrorMessage@_com_error@@QEBAPEB_WXZ 0000000180002930 f i CommonDialogs_COM.obj
 0001:00001a60       ?GetExtensions@@YAPEA_WPEAUJNIEnv_@@PEAV_jobject@@@Z 0000000180002a60 f   CommonDialogs_COM.obj
 0001:00001da0       ?GetFiles@@YAPEAV_jobjectArray@@V?$_com_ptr_t@V?$_com_IIID@UIFileDialog@@$1?_GUID_42f85136_db7e_439c_85f1_e4075d135fc8@@3U__s_GUID@@B@@@@HJ@Z 0000000180002da0 f   CommonDialogs_COM.obj
 0001:000022a0       ?GetFolder@@YAPEAV_jstring@@V?$_com_ptr_t@V?$_com_IIID@UIFileDialog@@$1?_GUID_42f85136_db7e_439c_85f1_e4075d135fc8@@3U__s_GUID@@B@@@@H@Z 00000001800032a0 f   CommonDialogs_COM.obj
 0001:00002390       ?SetFilters@@YAXV?$_com_ptr_t@V?$_com_IIID@UIFileDialog@@$1?_GUID_42f85136_db7e_439c_85f1_e4075d135fc8@@3U__s_GUID@@B@@@@PEAV_jobjectArray@@J@Z 0000000180003390 f   CommonDialogs_COM.obj
 0001:00002640       ?_Free@_bstr_t@@AEAAXXZ    0000000180003640 f i CommonDialogs_COM.obj
 0001:000026c0       ?snTrace@@YAXPEB_WZZ       00000001800036c0 f i CommonDialogs_COM.obj
 0001:000026f0       ?snTraceEmp@@YAXPEB_WZZ    00000001800036f0 f i CommonDialogs_COM.obj
 0001:00002700       ?snvTrace@@YAXPEB_WPEAD@Z  0000000180003700 f i CommonDialogs_COM.obj
 0001:00002a00       ??1DNTString@@QEAA@XZ      0000000180003a00 f i CommonDialogs_Standard.obj
 0001:00002a30       ?ConvertFiles@@YAPEAV_jobjectArray@@AEAVDNTString@@@Z 0000000180003a30 f   CommonDialogs_Standard.obj
 0001:00002d70       ?ConvertFilter@@YAXPEAV_jobject@@AEAVDNTString@@@Z 0000000180003d70 f   CommonDialogs_Standard.obj
 0001:00003150       ?DialogHook@@YA_KPEAUHWND__@@I_K_J@Z 0000000180004150 f   CommonDialogs_Standard.obj
 0001:00003250       ?FolderChooserCallbackProc@@YAHPEAUHWND__@@I_J1@Z 0000000180004250 f   CommonDialogs_Standard.obj
 0001:00003280       ?StandardFileChooser_Show@@YAPEAV_jobject@@PEAUHWND__@@PEB_W11JEPEAV_jobjectArray@@J@Z 0000000180004280 f   CommonDialogs_Standard.obj
 0001:00003730       ?StandardFolderChooser_Show@@YAPEAV_jstring@@PEAUHWND__@@PEB_W1@Z 0000000180004730 f   CommonDialogs_Standard.obj
 0001:00003970       ?calculateSubstrings@DNTString@@AEAAXXZ 0000000180004970 f i CommonDialogs_Standard.obj
 0001:00003a30       ?setLimit@DNTString@@QEAAX_K_N@Z 0000000180004a30 f i CommonDialogs_Standard.obj
 0001:00003b00       ??0FullScreenWindow@@QEAA@XZ 0000000180004b00 f   FullScreenWindow.obj
 0001:00003b60       ??1?$vector@UtagTOUCHINPUT@@V?$allocator@UtagTOUCHINPUT@@@std@@@std@@QEAA@XZ 0000000180004b60 f i FullScreenWindow.obj
 0001:00003be0       ??1ViewContainer@@QEAA@XZ  0000000180004be0 f i FullScreenWindow.obj
 0001:00003c10       ??_EBackgroundWindow@@UEAAPEAXI@Z 0000000180004c10 f i FullScreenWindow.obj
 0001:00003c10       ??_GBackgroundWindow@@UEAAPEAXI@Z 0000000180004c10 f i FullScreenWindow.obj
 0001:00003c50       ??_EFullScreenWindow@@UEAAPEAXI@Z 0000000180004c50 f i FullScreenWindow.obj
 0001:00003c50       ??_GFullScreenWindow@@UEAAPEAXI@Z 0000000180004c50 f i FullScreenWindow.obj
 0001:00003cd0       ?AttachView@FullScreenWindow@@AEAAXPEAVGlassView@@H@Z 0000000180004cd0 f   FullScreenWindow.obj
 0001:00003eb0       ?CalculateBounds@FullScreenWindow@@SAXPEAUHWND__@@PEAUtagRECT@@1HAEBU3@@Z 0000000180004eb0 f   FullScreenWindow.obj
 0001:00003ff0       ?CallVoidMethod@JNIEnv_@@QEAAXPEAV_jobject@@PEAU_jmethodID@@ZZ 0000000180004ff0 f i FullScreenWindow.obj
 0001:00004020       ?ClientRectInScreen@FullScreenWindow@@SAXPEAUHWND__@@PEAUtagRECT@@@Z 0000000180005020 f   FullScreenWindow.obj
 0001:00004060       ?Close@FullScreenWindow@@QEAAXXZ 0000000180005060 f   FullScreenWindow.obj
 0001:000040c0       ?Create@FullScreenWindow@@QEAAPEAUHWND__@@XZ 00000001800050c0 f   FullScreenWindow.obj
 0001:000041d0       ?DetachView@FullScreenWindow@@AEAAXXZ 00000001800051d0 f   FullScreenWindow.obj
 0001:000042d0       ?EnterFullScreenMode@FullScreenWindow@@UEAAHPEAVGlassView@@HH@Z 00000001800052d0 f   FullScreenWindow.obj
 0001:00004410       ?ExitFullScreenMode@FullScreenWindow@@UEAAXH@Z 0000000180005410 f   FullScreenWindow.obj
 0001:000044d0       ?GetWindowClassNameSuffix@BackgroundWindow@@MEAAPEB_WXZ 00000001800054d0 f   FullScreenWindow.obj
 0001:000044e0       ?GetWindowClassNameSuffix@FullScreenWindow@@MEAAPEB_WXZ 00000001800054e0 f   FullScreenWindow.obj
 0001:000044f0       ?HandleViewTimerEvent@FullScreenWindow@@MEAAXPEAUHWND__@@_K@Z 00000001800054f0 f   FullScreenWindow.obj
 0001:00004700       ?WindowProc@BackgroundWindow@@MEAA_JI_K_J@Z 0000000180005700 f   FullScreenWindow.obj
 0001:00004720       ?WindowProc@FullScreenWindow@@MEAA_JI_K_J@Z 0000000180005720 f   FullScreenWindow.obj
 0001:00004c30       ?_Getal@?$_Vector_alloc@U?$_Vec_base_types@V?$_List_unchecked_const_iterator@V?$_List_val@U?$_List_simple_types@V_bstr_t@@@std@@@std@@U_Iterator_base0@2@@std@@V?$allocator@V?$_List_unchecked_const_iterator@V?$_List_val@U?$_List_simple_types@V_bstr_t@@@std@@@std@@U_Iterator_base0@2@@std@@@2@@std@@@std@@QEAAAEAV?$allocator@V?$_List_unchecked_const_iterator@V?$_List_val@U?$_List_simple_types@V_bstr_t@@@std@@@std@@U_Iterator_base0@2@@std@@@2@XZ 0000000180005c30 f i GlassClipboard.obj
 0001:00004c30       ?_Getal@?$_Vector_alloc@U?$_Vec_base_types@V?$_List_unchecked_iterator@V?$_List_val@U?$_List_simple_types@U?$pair@$$CBGV_bstr_t@@@std@@@std@@@std@@@std@@V?$allocator@V?$_List_unchecked_iterator@V?$_List_val@U?$_List_simple_types@U?$pair@$$CBGV_bstr_t@@@std@@@std@@@std@@@std@@@2@@std@@@std@@QEAAAEAV?$allocator@V?$_List_unchecked_iterator@V?$_List_val@U?$_List_simple_types@U?$pair@$$CBGV_bstr_t@@@std@@@std@@@std@@@std@@@2@XZ 0000000180005c30 f i GlassClipboard.obj
 0001:00004c30       ?_Getal@?$_Vector_alloc@U?$_Vec_base_types@UtagTOUCHINPUT@@V?$allocator@UtagTOUCHINPUT@@@std@@@std@@@std@@QEAAAEAV?$allocator@UtagTOUCHINPUT@@@2@XZ 0000000180005c30 f i FullScreenWindow.obj
 0001:00004c30       ?_Getal@?$_Vector_alloc@U?$_Vec_base_types@V?$_List_unchecked_iterator@V?$_List_val@U?$_List_simple_types@U?$pair@$$CBUtagFORMATETC@@V_bstr_t@@@std@@@std@@@std@@@std@@V?$allocator@V?$_List_unchecked_iterator@V?$_List_val@U?$_List_simple_types@U?$pair@$$CBUtagFORMATETC@@V_bstr_t@@@std@@@std@@@std@@@std@@@2@@std@@@std@@QEAAAEAV?$allocator@V?$_List_unchecked_iterator@V?$_List_val@U?$_List_simple_types@U?$pair@$$CBUtagFORMATETC@@V_bstr_t@@@std@@@std@@@std@@@std@@@2@XZ 0000000180005c30 f i GlassClipboard.obj
 0001:00004c30       ?_Getal@?$_Vector_alloc@U?$_Vec_base_types@V?$_List_unchecked_iterator@V?$_List_val@U?$_List_simple_types@U?$pair@$$CBUtagFORMATETC@@UtagSTGMEDIUM@@@std@@@std@@@std@@@std@@V?$allocator@V?$_List_unchecked_iterator@V?$_List_val@U?$_List_simple_types@U?$pair@$$CBUtagFORMATETC@@UtagSTGMEDIUM@@@std@@@std@@@std@@@std@@@2@@std@@@std@@QEAAAEAV?$allocator@V?$_List_unchecked_iterator@V?$_List_val@U?$_List_simple_types@U?$pair@$$CBUtagFORMATETC@@UtagSTGMEDIUM@@@std@@@std@@@std@@@std@@@2@XZ 0000000180005c30 f i GlassClipboard.obj
 0001:00004c30       ?_Getal@?$_Vector_alloc@U?$_Vec_base_types@V?$_List_unchecked_iterator@V?$_List_val@U?$_List_simple_types@U?$pair@$$CBV_bstr_t@@G@std@@@std@@@std@@@std@@V?$allocator@V?$_List_unchecked_iterator@V?$_List_val@U?$_List_simple_types@U?$pair@$$CBV_bstr_t@@G@std@@@std@@@std@@@std@@@2@@std@@@std@@QEAAAEAV?$allocator@V?$_List_unchecked_iterator@V?$_List_val@U?$_List_simple_types@U?$pair@$$CBV_bstr_t@@G@std@@@std@@@std@@@std@@@2@XZ 0000000180005c30 f i GlassClipboard.obj
 0001:00004c40       ?deallocate@?$allocator@UtagTOUCHINPUT@@@std@@QEAAXQEAUtagTOUCHINPUT@@_K@Z 0000000180005c40 f i FullScreenWindow.obj
 0001:00004c90       ??_GGlassAccessible@@EEAAPEAXI@Z 0000000180005c90 f i GlassAccessible.obj
 0001:00004c90       ??_EGlassAccessible@@EEAAPEAXI@Z 0000000180005c90 f i GlassAccessible.obj
 0001:00004dd0       ?AddRef@GlassAccessible@@UEAAKXZ 0000000180005dd0 f   GlassAccessible.obj
 0001:00004de0       ?AddRef@GlassAccessible@@W7EAAKXZ 0000000180005de0 f i GlassAccessible.obj
 0001:00004dec       ?AddRef@GlassAccessible@@WBA@EAAKXZ 0000000180005dec f i GlassAccessible.obj
 0001:00004df8       ?AddRef@GlassAccessible@@WBI@EAAKXZ 0000000180005df8 f i GlassAccessible.obj
 0001:00004e04       ?AddRef@GlassAccessible@@WCA@EAAKXZ 0000000180005e04 f i GlassAccessible.obj
 0001:00004e10       ?AddRef@GlassAccessible@@WCI@EAAKXZ 0000000180005e10 f i GlassAccessible.obj
 0001:00004e1c       ?AddRef@GlassAccessible@@WDA@EAAKXZ 0000000180005e1c f i GlassAccessible.obj
 0001:00004e28       ?AddRef@GlassAccessible@@WDI@EAAKXZ 0000000180005e28 f i GlassAccessible.obj
 0001:00004e34       ?AddRef@GlassAccessible@@WEA@EAAKXZ 0000000180005e34 f i GlassAccessible.obj
 0001:00004e40       ?AddRef@GlassAccessible@@WEI@EAAKXZ 0000000180005e40 f i GlassAccessible.obj
 0001:00004e4c       ?AddRef@GlassAccessible@@WFA@EAAKXZ 0000000180005e4c f i GlassAccessible.obj
 0001:00004e58       ?AddRef@GlassAccessible@@WFI@EAAKXZ 0000000180005e58 f i GlassAccessible.obj
 0001:00004e64       ?AddRef@GlassAccessible@@WGA@EAAKXZ 0000000180005e64 f i GlassAccessible.obj
 0001:00004e70       ?AddRef@GlassAccessible@@WGI@EAAKXZ 0000000180005e70 f i GlassAccessible.obj
 0001:00004e7c       ?AddRef@GlassAccessible@@WHA@EAAKXZ 0000000180005e7c f i GlassAccessible.obj
 0001:00004e88       ?AddRef@GlassAccessible@@WHI@EAAKXZ 0000000180005e88 f i GlassAccessible.obj
 0001:00004e94       ?AddRef@GlassAccessible@@WIA@EAAKXZ 0000000180005e94 f i GlassAccessible.obj
 0001:00004ea0       ?AddRef@GlassAccessible@@WII@EAAKXZ 0000000180005ea0 f i GlassAccessible.obj
 0001:00004eac       ?AddRef@GlassAccessible@@WJA@EAAKXZ 0000000180005eac f i GlassAccessible.obj
 0001:00004ec0       ?AddToSelection@GlassAccessible@@UEAAJXZ 0000000180005ec0 f   GlassAccessible.obj
 0001:00004f20       ?AdviseEventAdded@GlassAccessible@@UEAAJHPEAUtagSAFEARRAY@@@Z 0000000180005f20 f   GlassAccessible.obj
 0001:00004fa0       ?AdviseEventRemoved@GlassAccessible@@UEAAJHPEAUtagSAFEARRAY@@@Z 0000000180005fa0 f   GlassAccessible.obj
 0001:00005020       ?CallBooleanMethod@JNIEnv_@@QEAAEPEAV_jobject@@PEAU_jmethodID@@ZZ 0000000180006020 f i GlassAccessible.obj
 0001:00005050       ?CallDoubleMethod@JNIEnv_@@QEAANPEAV_jobject@@PEAU_jmethodID@@ZZ 0000000180006050 f i GlassAccessible.obj
 0001:00005080       ?CallIntMethod@JNIEnv_@@QEAAJPEAV_jobject@@PEAU_jmethodID@@ZZ 0000000180006080 f i GlassAccessible.obj
 0001:000050b0       ?CallLongMethod@JNIEnv_@@QEAA_JPEAV_jobject@@PEAU_jmethodID@@ZZ 00000001800060b0 f i GlassAccessible.obj
 0001:000050e0       ?Collapse@GlassAccessible@@UEAAJXZ 00000001800060e0 f   GlassAccessible.obj
 0001:00005140       ?ElementProviderFromPoint@GlassAccessible@@UEAAJNNPEAPEAUIRawElementProviderFragment@@@Z 0000000180006140 f   GlassAccessible.obj
 0001:000051b0       ?Expand@GlassAccessible@@UEAAJXZ 00000001800061b0 f   GlassAccessible.obj
 0001:00005210       ?GetColumnHeaderItems@GlassAccessible@@UEAAJPEAPEAUtagSAFEARRAY@@@Z 0000000180006210 f   GlassAccessible.obj
 0001:00005240       ?GetColumnHeaders@GlassAccessible@@UEAAJPEAPEAUtagSAFEARRAY@@@Z 0000000180006240 f   GlassAccessible.obj
 0001:00005270       ?GetEmbeddedFragmentRoots@GlassAccessible@@UEAAJPEAPEAUtagSAFEARRAY@@@Z 0000000180006270 f   GlassAccessible.obj
 0001:000052a0       ?GetFocus@GlassAccessible@@UEAAJPEAPEAUIRawElementProviderFragment@@@Z 00000001800062a0 f   GlassAccessible.obj
 0001:00005300       ?GetItem@GlassAccessible@@UEAAJHHPEAPEAUIRawElementProviderSimple@@@Z 0000000180006300 f   GlassAccessible.obj
 0001:00005350       ?GetPatternProvider@GlassAccessible@@UEAAJHPEAPEAUIUnknown@@@Z 0000000180006350 f   GlassAccessible.obj
 0001:000053a0       ?GetPropertyValue@GlassAccessible@@UEAAJHPEAUtagVARIANT@@@Z 00000001800063a0 f   GlassAccessible.obj
 0001:00005440       ?GetRowHeaderItems@GlassAccessible@@UEAAJPEAPEAUtagSAFEARRAY@@@Z 0000000180006440 f   GlassAccessible.obj
 0001:00005470       ?GetRowHeaders@GlassAccessible@@UEAAJPEAPEAUtagSAFEARRAY@@@Z 0000000180006470 f   GlassAccessible.obj
 0001:000054a0       ?GetRuntimeId@GlassAccessible@@UEAAJPEAPEAUtagSAFEARRAY@@@Z 00000001800064a0 f   GlassAccessible.obj
 0001:000054d0       ?GetSelection@GlassAccessible@@UEAAJPEAPEAUtagSAFEARRAY@@@Z 00000001800064d0 f   GlassAccessible.obj
 0001:000054f8       ?GetSelection@GlassAccessible@@WCA@EAAJPEAPEAUtagSAFEARRAY@@@Z 00000001800064f8 f i GlassAccessible.obj
 0001:00005510       ?GetVisibleRanges@GlassAccessible@@UEAAJPEAPEAUtagSAFEARRAY@@@Z 0000000180006510 f   GlassAccessible.obj
 0001:00005540       ?Invoke@GlassAccessible@@UEAAJXZ 0000000180006540 f   GlassAccessible.obj
 0001:000055a0       ?Move@GlassAccessible@@UEAAJNN@Z 00000001800065a0 f   GlassAccessible.obj
 0001:00005620       ?Navigate@GlassAccessible@@UEAAJW4NavigateDirection@@PEAPEAUIRawElementProviderFragment@@@Z 0000000180006620 f   GlassAccessible.obj
 0001:00005680       ?QueryInterface@GlassAccessible@@UEAAJAEBU_GUID@@PEAPEAX@Z 0000000180006680 f   GlassAccessible.obj
 0001:0000595c       ?QueryInterface@GlassAccessible@@W7EAAJAEBU_GUID@@PEAPEAX@Z 000000018000695c f i GlassAccessible.obj
 0001:00005968       ?QueryInterface@GlassAccessible@@WBA@EAAJAEBU_GUID@@PEAPEAX@Z 0000000180006968 f i GlassAccessible.obj
 0001:00005974       ?QueryInterface@GlassAccessible@@WBI@EAAJAEBU_GUID@@PEAPEAX@Z 0000000180006974 f i GlassAccessible.obj
 0001:00005980       ?QueryInterface@GlassAccessible@@WCA@EAAJAEBU_GUID@@PEAPEAX@Z 0000000180006980 f i GlassAccessible.obj
 0001:0000598c       ?QueryInterface@GlassAccessible@@WCI@EAAJAEBU_GUID@@PEAPEAX@Z 000000018000698c f i GlassAccessible.obj
 0001:00005998       ?QueryInterface@GlassAccessible@@WDA@EAAJAEBU_GUID@@PEAPEAX@Z 0000000180006998 f i GlassAccessible.obj
 0001:000059a4       ?QueryInterface@GlassAccessible@@WDI@EAAJAEBU_GUID@@PEAPEAX@Z 00000001800069a4 f i GlassAccessible.obj
 0001:000059b0       ?QueryInterface@GlassAccessible@@WEA@EAAJAEBU_GUID@@PEAPEAX@Z 00000001800069b0 f i GlassAccessible.obj
 0001:000059bc       ?QueryInterface@GlassAccessible@@WEI@EAAJAEBU_GUID@@PEAPEAX@Z 00000001800069bc f i GlassAccessible.obj
 0001:000059c8       ?QueryInterface@GlassAccessible@@WFA@EAAJAEBU_GUID@@PEAPEAX@Z 00000001800069c8 f i GlassAccessible.obj
 0001:000059d4       ?QueryInterface@GlassAccessible@@WFI@EAAJAEBU_GUID@@PEAPEAX@Z 00000001800069d4 f i GlassAccessible.obj
 0001:000059e0       ?QueryInterface@GlassAccessible@@WGA@EAAJAEBU_GUID@@PEAPEAX@Z 00000001800069e0 f i GlassAccessible.obj
 0001:000059ec       ?QueryInterface@GlassAccessible@@WGI@EAAJAEBU_GUID@@PEAPEAX@Z 00000001800069ec f i GlassAccessible.obj
 0001:000059f8       ?QueryInterface@GlassAccessible@@WHA@EAAJAEBU_GUID@@PEAPEAX@Z 00000001800069f8 f i GlassAccessible.obj
 0001:00005a04       ?QueryInterface@GlassAccessible@@WHI@EAAJAEBU_GUID@@PEAPEAX@Z 0000000180006a04 f i GlassAccessible.obj
 0001:00005a10       ?QueryInterface@GlassAccessible@@WIA@EAAJAEBU_GUID@@PEAPEAX@Z 0000000180006a10 f i GlassAccessible.obj
 0001:00005a1c       ?QueryInterface@GlassAccessible@@WII@EAAJAEBU_GUID@@PEAPEAX@Z 0000000180006a1c f i GlassAccessible.obj
 0001:00005a28       ?QueryInterface@GlassAccessible@@WJA@EAAJAEBU_GUID@@PEAPEAX@Z 0000000180006a28 f i GlassAccessible.obj
 0001:00005a40       ?RangeFromChild@GlassAccessible@@UEAAJPEAUIRawElementProviderSimple@@PEAPEAUITextRangeProvider@@@Z 0000000180006a40 f   GlassAccessible.obj
 0001:00005ad0       ?RangeFromPoint@GlassAccessible@@UEAAJUUiaPoint@@PEAPEAUITextRangeProvider@@@Z 0000000180006ad0 f   GlassAccessible.obj
 0001:00005b70       ?Release@GlassAccessible@@UEAAKXZ 0000000180006b70 f   GlassAccessible.obj
 0001:00005ba0       ?Release@GlassAccessible@@W7EAAKXZ 0000000180006ba0 f i GlassAccessible.obj
 0001:00005bac       ?Release@GlassAccessible@@WBA@EAAKXZ 0000000180006bac f i GlassAccessible.obj
 0001:00005bb8       ?Release@GlassAccessible@@WBI@EAAKXZ 0000000180006bb8 f i GlassAccessible.obj
 0001:00005bc4       ?Release@GlassAccessible@@WCA@EAAKXZ 0000000180006bc4 f i GlassAccessible.obj
 0001:00005bd0       ?Release@GlassAccessible@@WCI@EAAKXZ 0000000180006bd0 f i GlassAccessible.obj
 0001:00005bdc       ?Release@GlassAccessible@@WDA@EAAKXZ 0000000180006bdc f i GlassAccessible.obj
 0001:00005be8       ?Release@GlassAccessible@@WDI@EAAKXZ 0000000180006be8 f i GlassAccessible.obj
 0001:00005bf4       ?Release@GlassAccessible@@WEA@EAAKXZ 0000000180006bf4 f i GlassAccessible.obj
 0001:00005c00       ?Release@GlassAccessible@@WEI@EAAKXZ 0000000180006c00 f i GlassAccessible.obj
 0001:00005c0c       ?Release@GlassAccessible@@WFA@EAAKXZ 0000000180006c0c f i GlassAccessible.obj
 0001:00005c18       ?Release@GlassAccessible@@WFI@EAAKXZ 0000000180006c18 f i GlassAccessible.obj
 0001:00005c24       ?Release@GlassAccessible@@WGA@EAAKXZ 0000000180006c24 f i GlassAccessible.obj
 0001:00005c30       ?Release@GlassAccessible@@WGI@EAAKXZ 0000000180006c30 f i GlassAccessible.obj
 0001:00005c3c       ?Release@GlassAccessible@@WHA@EAAKXZ 0000000180006c3c f i GlassAccessible.obj
 0001:00005c48       ?Release@GlassAccessible@@WHI@EAAKXZ 0000000180006c48 f i GlassAccessible.obj
 0001:00005c54       ?Release@GlassAccessible@@WIA@EAAKXZ 0000000180006c54 f i GlassAccessible.obj
 0001:00005c60       ?Release@GlassAccessible@@WII@EAAKXZ 0000000180006c60 f i GlassAccessible.obj
 0001:00005c6c       ?Release@GlassAccessible@@WJA@EAAKXZ 0000000180006c6c f i GlassAccessible.obj
 0001:00005c80       ?RemoveFromSelection@GlassAccessible@@UEAAJXZ 0000000180006c80 f   GlassAccessible.obj
 0001:00005ce0       ?Resize@GlassAccessible@@UEAAJNN@Z 0000000180006ce0 f   GlassAccessible.obj
 0001:00005d60       ?Rotate@GlassAccessible@@UEAAJN@Z 0000000180006d60 f   GlassAccessible.obj
 0001:00005dd0       ?Scroll@GlassAccessible@@UEAAJW4ScrollAmount@@0@Z 0000000180006dd0 f   GlassAccessible.obj
 0001:00005e40       ?ScrollIntoView@GlassAccessible@@UEAAJXZ 0000000180006e40 f   GlassAccessible.obj
 0001:00005ea0       ?Select@GlassAccessible@@UEAAJXZ 0000000180006ea0 f   GlassAccessible.obj
 0001:00005f00       ?SetFocus@GlassAccessible@@UEAAJXZ 0000000180006f00 f   GlassAccessible.obj
 0001:00005f60       ?SetScrollPercent@GlassAccessible@@UEAAJNN@Z 0000000180006f60 f   GlassAccessible.obj
 0001:00005fe0       ?SetValue@GlassAccessible@@UEAAJN@Z 0000000180006fe0 f   GlassAccessible.obj
 0001:00006050       ?SetValue@GlassAccessible@@UEAAJPEB_W@Z 0000000180007050 f   GlassAccessible.obj
 0001:000060f0       ?Toggle@GlassAccessible@@UEAAJXZ 00000001800070f0 f   GlassAccessible.obj
 0001:00006150       ?callArrayMethod@GlassAccessible@@EEAAJPEAU_jmethodID@@GPEAPEAUtagSAFEARRAY@@@Z 0000000180007150 f   GlassAccessible.obj
 0001:000061e0       ?callLongMethod@GlassAccessible@@EEAAJPEAU_jmethodID@@PEAPEAV1@ZZ 00000001800071e0 f   GlassAccessible.obj
 0001:00006270       ?copyList@GlassAccessible@@SAJPEAUJNIEnv_@@PEAV_jarray@@PEAPEAUtagSAFEARRAY@@G@Z 0000000180007270 f   GlassAccessible.obj
 0001:00006380       ?copyString@GlassAccessible@@SAJPEAUJNIEnv_@@PEAV_jstring@@PEAPEA_W@Z 0000000180007380 f   GlassAccessible.obj
 0001:00006420       ?copyVariant@GlassAccessible@@SAJPEAUJNIEnv_@@PEAV_jobject@@PEAUtagVARIANT@@@Z 0000000180007420 f   GlassAccessible.obj
 0001:000066e0       ?get_BoundingRectangle@GlassAccessible@@UEAAJPEAUUiaRect@@@Z 00000001800076e0 f   GlassAccessible.obj
 0001:000067d0       ?get_CanMove@GlassAccessible@@UEAAJPEAH@Z 00000001800077d0 f   GlassAccessible.obj
 0001:00006840       ?get_CanResize@GlassAccessible@@UEAAJPEAH@Z 0000000180007840 f   GlassAccessible.obj
 0001:000068b0       ?get_CanRotate@GlassAccessible@@UEAAJPEAH@Z 00000001800078b0 f   GlassAccessible.obj
 0001:00006920       ?get_CanSelectMultiple@GlassAccessible@@UEAAJPEAH@Z 0000000180007920 f   GlassAccessible.obj
 0001:00006990       ?get_Column@GlassAccessible@@UEAAJPEAH@Z 0000000180007990 f   GlassAccessible.obj
 0001:00006a00       ?get_ColumnCount@GlassAccessible@@UEAAJPEAH@Z 0000000180007a00 f   GlassAccessible.obj
 0001:00006a70       ?get_ColumnSpan@GlassAccessible@@UEAAJPEAH@Z 0000000180007a70 f   GlassAccessible.obj
 0001:00006ae0       ?get_ContainingGrid@GlassAccessible@@UEAAJPEAPEAUIRawElementProviderSimple@@@Z 0000000180007ae0 f   GlassAccessible.obj
 0001:00006b30       ?get_DocumentRange@GlassAccessible@@UEAAJPEAPEAUITextRangeProvider@@@Z 0000000180007b30 f   GlassAccessible.obj
 0001:00006bd0       ?get_ExpandCollapseState@GlassAccessible@@UEAAJPEAW4ExpandCollapseState@@@Z 0000000180007bd0 f   GlassAccessible.obj
 0001:00006c40       ?get_FragmentRoot@GlassAccessible@@UEAAJPEAPEAUIRawElementProviderFragmentRoot@@@Z 0000000180007c40 f   GlassAccessible.obj
 0001:00006ca0       ?get_HorizontalScrollPercent@GlassAccessible@@UEAAJPEAN@Z 0000000180007ca0 f   GlassAccessible.obj
 0001:00006d10       ?get_HorizontalViewSize@GlassAccessible@@UEAAJPEAN@Z 0000000180007d10 f   GlassAccessible.obj
 0001:00006d80       ?get_HorizontallyScrollable@GlassAccessible@@UEAAJPEAH@Z 0000000180007d80 f   GlassAccessible.obj
 0001:00006df0       ?get_HostRawElementProvider@GlassAccessible@@UEAAJPEAPEAUIRawElementProviderSimple@@@Z 0000000180007df0 f   GlassAccessible.obj
 0001:00006e80       ?get_IsReadOnly@GlassAccessible@@UEAAJPEAH@Z 0000000180007e80 f   GlassAccessible.obj
 0001:00006ef0       ?get_IsReadOnly@GlassAccessible@@W7EAAJPEAH@Z 0000000180007ef0 f i GlassAccessible.obj
 0001:00006f00       ?get_IsSelected@GlassAccessible@@UEAAJPEAH@Z 0000000180007f00 f   GlassAccessible.obj
 0001:00006f70       ?get_IsSelectionRequired@GlassAccessible@@UEAAJPEAH@Z 0000000180007f70 f   GlassAccessible.obj
 0001:00006fe0       ?get_LargeChange@GlassAccessible@@UEAAJPEAN@Z 0000000180007fe0 f   GlassAccessible.obj
 0001:00007050       ?get_Maximum@GlassAccessible@@UEAAJPEAN@Z 0000000180008050 f   GlassAccessible.obj
 0001:000070c0       ?get_Minimum@GlassAccessible@@UEAAJPEAN@Z 00000001800080c0 f   GlassAccessible.obj
 0001:00007130       ?get_ProviderOptions@GlassAccessible@@UEAAJPEAW4ProviderOptions@@@Z 0000000180008130 f   GlassAccessible.obj
 0001:00007150       ?get_Row@GlassAccessible@@UEAAJPEAH@Z 0000000180008150 f   GlassAccessible.obj
 0001:000071c0       ?get_RowCount@GlassAccessible@@UEAAJPEAH@Z 00000001800081c0 f   GlassAccessible.obj
 0001:00007230       ?get_RowOrColumnMajor@GlassAccessible@@UEAAJPEAW4RowOrColumnMajor@@@Z 0000000180008230 f   GlassAccessible.obj
 0001:000072a0       ?get_RowSpan@GlassAccessible@@UEAAJPEAH@Z 00000001800082a0 f   GlassAccessible.obj
 0001:00007310       ?get_SelectionContainer@GlassAccessible@@UEAAJPEAPEAUIRawElementProviderSimple@@@Z 0000000180008310 f   GlassAccessible.obj
 0001:00007360       ?get_SmallChange@GlassAccessible@@UEAAJPEAN@Z 0000000180008360 f   GlassAccessible.obj
 0001:000073d0       ?get_SupportedTextSelection@GlassAccessible@@UEAAJPEAW4SupportedTextSelection@@@Z 00000001800083d0 f   GlassAccessible.obj
 0001:00007440       ?get_ToggleState@GlassAccessible@@UEAAJPEAW4ToggleState@@@Z 0000000180008440 f   GlassAccessible.obj
 0001:000074b0       ?get_Value@GlassAccessible@@UEAAJPEAN@Z 00000001800084b0 f   GlassAccessible.obj
 0001:00007520       ?get_Value@GlassAccessible@@UEAAJPEAPEA_W@Z 0000000180008520 f   GlassAccessible.obj
 0001:000075a0       ?get_VerticalScrollPercent@GlassAccessible@@UEAAJPEAN@Z 00000001800085a0 f   GlassAccessible.obj
 0001:00007610       ?get_VerticalViewSize@GlassAccessible@@UEAAJPEAN@Z 0000000180008610 f   GlassAccessible.obj
 0001:00007680       ?get_VerticallyScrollable@GlassAccessible@@UEAAJPEAH@Z 0000000180008680 f   GlassAccessible.obj
 0001:000076f0       Java_com_sun_glass_ui_win_WinAccessible_UiaClientsAreListening 00000001800086f0 f   GlassAccessible.obj
 0001:00007710       Java_com_sun_glass_ui_win_WinAccessible_UiaRaiseAutomationEvent 0000000180008710 f   GlassAccessible.obj
 0001:00007730       Java_com_sun_glass_ui_win_WinAccessible_UiaRaiseAutomationPropertyChangedEvent 0000000180008730 f   GlassAccessible.obj
 0001:000077f0       Java_com_sun_glass_ui_win_WinAccessible__1createGlassAccessible 00000001800087f0 f   GlassAccessible.obj
 0001:00007950       Java_com_sun_glass_ui_win_WinAccessible__1destroyGlassAccessible 0000000180008950 f   GlassAccessible.obj
 0001:00007950       Java_com_sun_glass_ui_win_WinTextRangeProvider__1destroyTextRangeProvider 0000000180008950 f   GlassTextRangeProvider.obj
 0001:00007960       Java_com_sun_glass_ui_win_WinAccessible__1initIDs 0000000180008960 f   GlassAccessible.obj
 0001:00008aa0       ??1?$JGlobalRef@PEAV_jobject@@@@QEAA@XZ 0000000180009aa0 f i GlassApplication.obj
 0001:00008ae0       ??_GGlassApplication@@UEAAPEAXI@Z 0000000180009ae0 f i GlassApplication.obj
 0001:00008ae0       ??_EGlassApplication@@UEAAPEAXI@Z 0000000180009ae0 f i GlassApplication.obj
 0001:00008bf0       ?Attach@?$JGlobalRef@PEAV_jarray@@@@QEAAXPEAUJNIEnv_@@PEAV_jarray@@@Z 0000000180009bf0 f i Pixels.obj
 0001:00008bf0       ?Attach@?$JGlobalRef@PEAV_jobject@@@@QEAAXPEAUJNIEnv_@@PEAV_jobject@@@Z 0000000180009bf0 f i GlassApplication.obj
 0001:00008c60       ?ClassForName@GlassApplication@@SAPEAV_jclass@@PEAUJNIEnv_@@PEAD@Z 0000000180009c60 f   GlassApplication.obj
 0001:00008dd0       ?DecrementAccessibility@GlassApplication@@SAKXZ 0000000180009dd0 f   GlassApplication.obj
 0001:00008e20       ?ExecAction@GlassApplication@@SAXPEAVAction@@@Z 0000000180009e20 f   GlassApplication.obj
 0001:00008e50       ?ExecActionLater@GlassApplication@@SAXPEAVAction@@@Z 0000000180009e50 f   GlassApplication.obj
 0001:00008e90       ?GetThemeName@GlassApplication@@SAPEAV_jstring@@PEAUJNIEnv_@@@Z 0000000180009e90 f   GlassApplication.obj
 0001:00008f00       ?GetWindowClassNameSuffix@GlassApplication@@MEAAPEB_WXZ 0000000180009f00 f   GlassApplication.obj
 0001:00008f10       ?IncrementAccessibility@GlassApplication@@SAKXZ 0000000180009f10 f   GlassApplication.obj
 0001:00008f20       ?InstallMouseLLHook@GlassApplication@@SAXXZ 0000000180009f20 f   GlassApplication.obj
 0001:00008f60       ?MouseLLHook@GlassApplication@@CA_JH_K_J@Z 0000000180009f60 f   GlassApplication.obj
 0001:00009010       ?RegisterClipboardViewer@GlassApplication@@QEAAXPEAV_jobject@@@Z 000000018000a010 f   GlassApplication.obj
 0001:000090c0       ?UninstallMouseLLHook@GlassApplication@@SAXXZ 000000018000a0c0 f   GlassApplication.obj
 0001:000090e0       ?UnregisterClipboardViewer@GlassApplication@@QEAAXXZ 000000018000a0e0 f   GlassApplication.obj
 0001:00009140       ?WindowProc@GlassApplication@@MEAA_JI_K_J@Z 000000018000a140 f   GlassApplication.obj
 0001:00009340       DllMain                    000000018000a340 f   GlassApplication.obj
 0001:00009360       Java_com_sun_glass_ui_win_WinApplication__1enterNestedEventLoopImpl 000000018000a360 f   GlassApplication.obj
 0001:00009430       Java_com_sun_glass_ui_win_WinApplication__1getHighContrastTheme 000000018000a430 f   GlassApplication.obj
 0001:00009440       Java_com_sun_glass_ui_win_WinApplication__1init 000000018000a440 f   GlassApplication.obj
 0001:00009540       Java_com_sun_glass_ui_win_WinApplication__1invokeAndWait 000000018000a540 f   GlassApplication.obj
 0001:00009610       Java_com_sun_glass_ui_win_WinApplication__1leaveNestedEventLoopImpl 000000018000a610 f   GlassApplication.obj
 0001:00009680       Java_com_sun_glass_ui_win_WinApplication__1runLoop 000000018000a680 f   GlassApplication.obj
 0001:00009780       Java_com_sun_glass_ui_win_WinApplication__1setClassLoader 000000018000a780 f   GlassApplication.obj
 0001:000097a0       Java_com_sun_glass_ui_win_WinApplication__1submitForLaterInvocation 000000018000a7a0 f   GlassApplication.obj
 0001:00009840       Java_com_sun_glass_ui_win_WinApplication__1supportsUnifiedWindows 000000018000a840 f   GlassApplication.obj
 0001:00009870       Java_com_sun_glass_ui_win_WinApplication__1terminateLoop 000000018000a870 f   GlassApplication.obj
 0001:000098b0       Java_com_sun_glass_ui_win_WinApplication_initIDs 000000018000a8b0 f   GlassApplication.obj
 0001:000099a0       Java_com_sun_glass_ui_win_WinApplication_staticScreen_1getScreens 000000018000a9a0 f   GlassApplication.obj
 0001:000099b0       fprintf                    000000018000a9b0 f i GlassApplication.obj
 0001:00009a00       ??$_Buynode@AEBV_bstr_t@@@?$_List_buy@V_bstr_t@@V?$allocator@V_bstr_t@@@std@@@std@@QEAAPEAU?$_List_node@V_bstr_t@@PEAX@1@PEAU21@0AEBV_bstr_t@@@Z 000000018000aa00 f i GlassClipboard.obj
 0001:00009a00       ??$_Buynode@V_bstr_t@@@?$_List_buy@V_bstr_t@@V?$allocator@V_bstr_t@@@std@@@std@@QEAAPEAU?$_List_node@V_bstr_t@@PEAX@1@PEAU21@0$$QEAV_bstr_t@@@Z 000000018000aa00 f i GlassClipboard.obj
 0001:00009a40       ??$_Buynode@U?$pair@GV_bstr_t@@@std@@@?$_List_buy@U?$pair@$$CBGV_bstr_t@@@std@@V?$allocator@U?$pair@$$CBGV_bstr_t@@@std@@@2@@std@@QEAAPEAU?$_List_node@U?$pair@$$CBGV_bstr_t@@@std@@PEAX@1@PEAU21@0$$QEAU?$pair@GV_bstr_t@@@1@@Z 000000018000aa40 f i GlassClipboard.obj
 0001:00009a80       ??$_Buynode@U?$pair@UtagFORMATETC@@UtagSTGMEDIUM@@@std@@@?$_List_buy@U?$pair@$$CBUtagFORMATETC@@UtagSTGMEDIUM@@@std@@V?$allocator@U?$pair@$$CBUtagFORMATETC@@UtagSTGMEDIUM@@@std@@@2@@std@@QEAAPEAU?$_List_node@U?$pair@$$CBUtagFORMATETC@@UtagSTGMEDIUM@@@std@@PEAX@1@PEAU21@0$$QEAU?$pair@UtagFORMATETC@@UtagSTGMEDIUM@@@1@@Z 000000018000aa80 f i GlassClipboard.obj
 0001:00009ad0       ??$_Buynode@U?$pair@UtagFORMATETC@@V_bstr_t@@@std@@@?$_List_buy@U?$pair@$$CBUtagFORMATETC@@V_bstr_t@@@std@@V?$allocator@U?$pair@$$CBUtagFORMATETC@@V_bstr_t@@@std@@@2@@std@@QEAAPEAU?$_List_node@U?$pair@$$CBUtagFORMATETC@@V_bstr_t@@@std@@PEAX@1@PEAU21@0$$QEAU?$pair@UtagFORMATETC@@V_bstr_t@@@1@@Z 000000018000aad0 f i GlassClipboard.obj
 0001:00009b20       ??$_Buynode@U?$pair@V_bstr_t@@G@std@@@?$_List_buy@U?$pair@$$CBV_bstr_t@@G@std@@V?$allocator@U?$pair@$$CBV_bstr_t@@G@std@@@2@@std@@QEAAPEAU?$_List_node@U?$pair@$$CBV_bstr_t@@G@std@@PEAX@1@PEAU21@0$$QEAU?$pair@V_bstr_t@@G@1@@Z 000000018000ab20 f i GlassClipboard.obj
 0001:00009b70       ??$_Fill_unchecked@PEAV?$_List_unchecked_iterator@V?$_List_val@U?$_List_simple_types@U?$pair@$$CBV_bstr_t@@G@std@@@std@@@std@@@std@@V12@@std@@YAXPEAV?$_List_unchecked_iterator@V?$_List_val@U?$_List_simple_types@U?$pair@$$CBV_bstr_t@@G@std@@@std@@@std@@@0@0AEBV10@@Z 000000018000ab70 f i GlassClipboard.obj
 0001:00009b70       ??$_Fill_unchecked@PEAV?$_List_unchecked_iterator@V?$_List_val@U?$_List_simple_types@U?$pair@$$CBGV_bstr_t@@@std@@@std@@@std@@@std@@V12@@std@@YAXPEAV?$_List_unchecked_iterator@V?$_List_val@U?$_List_simple_types@U?$pair@$$CBGV_bstr_t@@@std@@@std@@@std@@@0@0AEBV10@@Z 000000018000ab70 f i GlassClipboard.obj
 0001:00009b70       ??$_Fill_unchecked@PEAV?$_List_unchecked_const_iterator@V?$_List_val@U?$_List_simple_types@V_bstr_t@@@std@@@std@@U_Iterator_base0@2@@std@@V12@@std@@YAXPEAV?$_List_unchecked_const_iterator@V?$_List_val@U?$_List_simple_types@V_bstr_t@@@std@@@std@@U_Iterator_base0@2@@0@0AEBV10@@Z 000000018000ab70 f i GlassClipboard.obj
 0001:00009b70       ??$_Fill_unchecked@PEAV?$_List_unchecked_iterator@V?$_List_val@U?$_List_simple_types@U?$pair@$$CBUtagFORMATETC@@UtagSTGMEDIUM@@@std@@@std@@@std@@@std@@V12@@std@@YAXPEAV?$_List_unchecked_iterator@V?$_List_val@U?$_List_simple_types@U?$pair@$$CBUtagFORMATETC@@UtagSTGMEDIUM@@@std@@@std@@@std@@@0@0AEBV10@@Z 000000018000ab70 f i GlassClipboard.obj
 0001:00009b70       ??$_Fill_unchecked@PEAV?$_List_unchecked_iterator@V?$_List_val@U?$_List_simple_types@U?$pair@$$CBUtagFORMATETC@@V_bstr_t@@@std@@@std@@@std@@@std@@V12@@std@@YAXPEAV?$_List_unchecked_iterator@V?$_List_val@U?$_List_simple_types@U?$pair@$$CBUtagFORMATETC@@V_bstr_t@@@std@@@std@@@std@@@0@0AEBV10@@Z 000000018000ab70 f i GlassClipboard.obj
 0001:00009c10       ??$_Insert@AEAU?$pair@$$CBGV_bstr_t@@@std@@V?$_List_unchecked_iterator@V?$_List_val@U?$_List_simple_types@U?$pair@$$CBGV_bstr_t@@@std@@@std@@@std@@@2@@?$_Hash@V?$_Hmap_traits@GV_bstr_t@@V?$hash_compare@GU?$less@G@std@@@stdext@@V?$allocator@U?$pair@$$CBGV_bstr_t@@@std@@@std@@$0A@@stdext@@@std@@IEAA?AU?$pair@V?$_List_iterator@V?$_List_val@U?$_List_simple_types@U?$pair@$$CBGV_bstr_t@@@std@@@std@@@std@@@std@@_N@1@AEAU?$pair@$$CBGV_bstr_t@@@1@V?$_List_unchecked_iterator@V?$_List_val@U?$_List_simple_types@U?$pair@$$CBGV_bstr_t@@@std@@@std@@@std@@@1@@Z 000000018000ac10 f i GlassClipboard.obj
 0001:00009e50       ??$_Insert@AEAU?$pair@$$CBUtagFORMATETC@@UtagSTGMEDIUM@@@std@@V?$_List_unchecked_iterator@V?$_List_val@U?$_List_simple_types@U?$pair@$$CBUtagFORMATETC@@UtagSTGMEDIUM@@@std@@@std@@@std@@@2@@?$_Hash@V?$_Hmap_traits@UtagFORMATETC@@UtagSTGMEDIUM@@V?$hash_compare@UtagFORMATETC@@U?$less@UtagFORMATETC@@@std@@@stdext@@V?$allocator@U?$pair@$$CBUtagFORMATETC@@UtagSTGMEDIUM@@@std@@@std@@$0A@@stdext@@@std@@IEAA?AU?$pair@V?$_List_iterator@V?$_List_val@U?$_List_simple_types@U?$pair@$$CBUtagFORMATETC@@UtagSTGMEDIUM@@@std@@@std@@@std@@@std@@_N@1@AEAU?$pair@$$CBUtagFORMATETC@@UtagSTGMEDIUM@@@1@V?$_List_unchecked_iterator@V?$_List_val@U?$_List_simple_types@U?$pair@$$CBUtagFORMATETC@@UtagSTGMEDIUM@@@std@@@std@@@std@@@1@@Z 000000018000ae50 f i GlassClipboard.obj
 0001:0000a0b0       ??$_Insert@AEAU?$pair@$$CBUtagFORMATETC@@V_bstr_t@@@std@@V?$_List_unchecked_iterator@V?$_List_val@U?$_List_simple_types@U?$pair@$$CBUtagFORMATETC@@V_bstr_t@@@std@@@std@@@std@@@2@@?$_Hash@V?$_Hmap_traits@UtagFORMATETC@@V_bstr_t@@V?$hash_compare@UtagFORMATETC@@U?$less@UtagFORMATETC@@@std@@@stdext@@V?$allocator@U?$pair@$$CBUtagFORMATETC@@V_bstr_t@@@std@@@std@@$0A@@stdext@@@std@@IEAA?AU?$pair@V?$_List_iterator@V?$_List_val@U?$_List_simple_types@U?$pair@$$CBUtagFORMATETC@@V_bstr_t@@@std@@@std@@@std@@@std@@_N@1@AEAU?$pair@$$CBUtagFORMATETC@@V_bstr_t@@@1@V?$_List_unchecked_iterator@V?$_List_val@U?$_List_simple_types@U?$pair@$$CBUtagFORMATETC@@V_bstr_t@@@std@@@std@@@std@@@1@@Z 000000018000b0b0 f i GlassClipboard.obj
 0001:0000a310       ??$_Insert@AEAU?$pair@$$CBV_bstr_t@@G@std@@V?$_List_unchecked_iterator@V?$_List_val@U?$_List_simple_types@U?$pair@$$CBV_bstr_t@@G@std@@@std@@@std@@@2@@?$_Hash@V?$_Hmap_traits@V_bstr_t@@GV?$hash_compare@V_bstr_t@@U?$less@V_bstr_t@@@std@@@stdext@@V?$allocator@U?$pair@$$CBV_bstr_t@@G@std@@@std@@$0A@@stdext@@@std@@IEAA?AU?$pair@V?$_List_iterator@V?$_List_val@U?$_List_simple_types@U?$pair@$$CBV_bstr_t@@G@std@@@std@@@std@@@std@@_N@1@AEAU?$pair@$$CBV_bstr_t@@G@1@V?$_List_unchecked_iterator@V?$_List_val@U?$_List_simple_types@U?$pair@$$CBV_bstr_t@@G@std@@@std@@@std@@@1@@Z 000000018000b310 f i GlassClipboard.obj
 0001:0000a520       ??$_Insert@AEBV_bstr_t@@U_Not_a_node_tag@std@@@?$_Hash@V?$_Hset_traits@V_bstr_t@@V?$hash_compare@V_bstr_t@@U?$less@V_bstr_t@@@std@@@stdext@@V?$allocator@V_bstr_t@@@std@@$0A@@stdext@@@std@@IEAA?AU?$pair@V?$_List_const_iterator@V?$_List_val@U?$_List_simple_types@V_bstr_t@@@std@@@std@@@std@@_N@1@AEBV_bstr_t@@U_Not_a_node_tag@1@@Z 000000018000b520 f i GlassClipboard.obj
 0001:0000a520       ??$_Insert@V_bstr_t@@U_Not_a_node_tag@std@@@?$_Hash@V?$_Hset_traits@V_bstr_t@@V?$hash_compare@V_bstr_t@@U?$less@V_bstr_t@@@std@@@stdext@@V?$allocator@V_bstr_t@@@std@@$0A@@stdext@@@std@@IEAA?AU?$pair@V?$_List_const_iterator@V?$_List_val@U?$_List_simple_types@V_bstr_t@@@std@@@std@@@std@@_N@1@$$QEAV_bstr_t@@U_Not_a_node_tag@1@@Z 000000018000b520 f i GlassClipboard.obj
 0001:0000a6e0       ??$_Insert@AEBV_bstr_t@@V?$_List_unchecked_const_iterator@V?$_List_val@U?$_List_simple_types@V_bstr_t@@@std@@@std@@U_Iterator_base0@2@@std@@@?$_Hash@V?$_Hset_traits@V_bstr_t@@V?$hash_compare@V_bstr_t@@U?$less@V_bstr_t@@@std@@@stdext@@V?$allocator@V_bstr_t@@@std@@$0A@@stdext@@@std@@IEAA?AU?$pair@V?$_List_const_iterator@V?$_List_val@U?$_List_simple_types@V_bstr_t@@@std@@@std@@@std@@_N@1@AEBV_bstr_t@@V?$_List_unchecked_const_iterator@V?$_List_val@U?$_List_simple_types@V_bstr_t@@@std@@@std@@U_Iterator_base0@2@@1@@Z 000000018000b6e0 f i GlassClipboard.obj
 0001:0000a870       ??$erase@V?$_List_iterator@V?$_List_val@U?$_List_simple_types@U?$pair@$$CBGV_bstr_t@@@std@@@std@@@std@@@std@@X@?$_Hash@V?$_Hmap_traits@GV_bstr_t@@V?$hash_compare@GU?$less@G@std@@@stdext@@V?$allocator@U?$pair@$$CBGV_bstr_t@@@std@@@std@@$0A@@stdext@@@std@@QEAA?AV?$_List_iterator@V?$_List_val@U?$_List_simple_types@U?$pair@$$CBGV_bstr_t@@@std@@@std@@@std@@@1@V21@@Z 000000018000b870 f i GlassClipboard.obj
 0001:0000a970       ??$erase@V?$_List_iterator@V?$_List_val@U?$_List_simple_types@U?$pair@$$CBUtagFORMATETC@@UtagSTGMEDIUM@@@std@@@std@@@std@@@std@@X@?$_Hash@V?$_Hmap_traits@UtagFORMATETC@@UtagSTGMEDIUM@@V?$hash_compare@UtagFORMATETC@@U?$less@UtagFORMATETC@@@std@@@stdext@@V?$allocator@U?$pair@$$CBUtagFORMATETC@@UtagSTGMEDIUM@@@std@@@std@@$0A@@stdext@@@std@@QEAA?AV?$_List_iterator@V?$_List_val@U?$_List_simple_types@U?$pair@$$CBUtagFORMATETC@@UtagSTGMEDIUM@@@std@@@std@@@std@@@1@V21@@Z 000000018000b970 f i GlassClipboard.obj
 0001:0000aa30       ??$erase@V?$_List_iterator@V?$_List_val@U?$_List_simple_types@U?$pair@$$CBUtagFORMATETC@@V_bstr_t@@@std@@@std@@@std@@@std@@X@?$_Hash@V?$_Hmap_traits@UtagFORMATETC@@V_bstr_t@@V?$hash_compare@UtagFORMATETC@@U?$less@UtagFORMATETC@@@std@@@stdext@@V?$allocator@U?$pair@$$CBUtagFORMATETC@@V_bstr_t@@@std@@@std@@$0A@@stdext@@@std@@QEAA?AV?$_List_iterator@V?$_List_val@U?$_List_simple_types@U?$pair@$$CBUtagFORMATETC@@V_bstr_t@@@std@@@std@@@std@@@1@V21@@Z 000000018000ba30 f i GlassClipboard.obj
 0001:0000ab00       ??$erase@V?$_List_iterator@V?$_List_val@U?$_List_simple_types@U?$pair@$$CBV_bstr_t@@G@std@@@std@@@std@@@std@@X@?$_Hash@V?$_Hmap_traits@V_bstr_t@@GV?$hash_compare@V_bstr_t@@U?$less@V_bstr_t@@@std@@@stdext@@V?$allocator@U?$pair@$$CBV_bstr_t@@G@std@@@std@@$0A@@stdext@@@std@@QEAA?AV?$_List_iterator@V?$_List_val@U?$_List_simple_types@U?$pair@$$CBV_bstr_t@@G@std@@@std@@@std@@@1@V21@@Z 000000018000bb00 f i GlassClipboard.obj
 0001:0000abd0       ??0ClipboardData@@QEAA@PEAUJNIEnv_@@PEAV_jobject@@PEAV_jstring@@@Z 000000018000bbd0 f i GlassClipboard.obj
 0001:0000ad00       ??1?$IUnknownImpl@UIDataObject@@@@UEAA@XZ 000000018000bd00 f i GlassClipboard.obj
 0001:0000ad10       ??1?$MemHolder@_W@@QEAA@XZ 000000018000bd10 f i GlassClipboard.obj
 0001:0000ad20       ??1?$_Hash@V?$_Hmap_traits@UtagFORMATETC@@UtagSTGMEDIUM@@V?$hash_compare@UtagFORMATETC@@U?$less@UtagFORMATETC@@@std@@@stdext@@V?$allocator@U?$pair@$$CBUtagFORMATETC@@UtagSTGMEDIUM@@@std@@@std@@$0A@@stdext@@@std@@QEAA@XZ 000000018000bd20 f i GlassClipboard.obj
 0001:0000ad90       ??1?$_Hash@V?$_Hmap_traits@UtagFORMATETC@@V_bstr_t@@V?$hash_compare@UtagFORMATETC@@U?$less@UtagFORMATETC@@@std@@@stdext@@V?$allocator@U?$pair@$$CBUtagFORMATETC@@V_bstr_t@@@std@@@std@@$0A@@stdext@@@std@@QEAA@XZ 000000018000bd90 f i GlassClipboard.obj
 0001:0000ae00       ??1?$_Hash@V?$_Hset_traits@V_bstr_t@@V?$hash_compare@V_bstr_t@@U?$less@V_bstr_t@@@std@@@stdext@@V?$allocator@V_bstr_t@@@std@@$0A@@stdext@@@std@@QEAA@XZ 000000018000be00 f i GlassClipboard.obj
 0001:0000ae80       ??1?$hash_map@UtagFORMATETC@@V_bstr_t@@V?$hash_compare@UtagFORMATETC@@U?$less@UtagFORMATETC@@@std@@@stdext@@V?$allocator@U?$pair@$$CBUtagFORMATETC@@V_bstr_t@@@std@@@std@@@stdext@@QEAA@XZ 000000018000be80 f i GlassClipboard.obj
 0001:0000ae90       ??1?$hash_set@V_bstr_t@@V?$hash_compare@V_bstr_t@@U?$less@V_bstr_t@@@std@@@stdext@@V?$allocator@V_bstr_t@@@std@@@stdext@@QEAA@XZ 000000018000be90 f i GlassClipboard.obj
 0001:0000aea0       ??1?$list@U?$pair@$$CBGV_bstr_t@@@std@@V?$allocator@U?$pair@$$CBGV_bstr_t@@@std@@@2@@std@@QEAA@XZ 000000018000bea0 f i GlassClipboard.obj
 0001:0000af10       ??1?$list@U?$pair@$$CBUtagFORMATETC@@UtagSTGMEDIUM@@@std@@V?$allocator@U?$pair@$$CBUtagFORMATETC@@UtagSTGMEDIUM@@@std@@@2@@std@@QEAA@XZ 000000018000bf10 f i GlassClipboard.obj
 0001:0000af70       ??1?$list@U?$pair@$$CBUtagFORMATETC@@V_bstr_t@@@std@@V?$allocator@U?$pair@$$CBUtagFORMATETC@@V_bstr_t@@@std@@@2@@std@@QEAA@XZ 000000018000bf70 f i GlassClipboard.obj
 0001:0000afe0       ??1?$list@U?$pair@$$CBV_bstr_t@@G@std@@V?$allocator@U?$pair@$$CBV_bstr_t@@G@std@@@2@@std@@QEAA@XZ 000000018000bfe0 f i GlassClipboard.obj
 0001:0000b050       ??1?$list@V_bstr_t@@V?$allocator@V_bstr_t@@@std@@@std@@QEAA@XZ 000000018000c050 f i GlassClipboard.obj
 0001:0000b070       ??1?$pair@GV_bstr_t@@@std@@QEAA@XZ 000000018000c070 f i GlassClipboard.obj
 0001:0000b080       ??1?$pair@UtagFORMATETC@@V_bstr_t@@@std@@QEAA@XZ 000000018000c080 f i GlassClipboard.obj
 0001:0000b090       ??1?$vector@V?$_List_unchecked_iterator@V?$_List_val@U?$_List_simple_types@U?$pair@$$CBV_bstr_t@@G@std@@@std@@@std@@@std@@V?$allocator@V?$_List_unchecked_iterator@V?$_List_val@U?$_List_simple_types@U?$pair@$$CBV_bstr_t@@G@std@@@std@@@std@@@std@@@2@@std@@QEAA@XZ 000000018000c090 f i GlassClipboard.obj
 0001:0000b090       ??1?$vector@V?$_List_unchecked_iterator@V?$_List_val@U?$_List_simple_types@U?$pair@$$CBUtagFORMATETC@@V_bstr_t@@@std@@@std@@@std@@@std@@V?$allocator@V?$_List_unchecked_iterator@V?$_List_val@U?$_List_simple_types@U?$pair@$$CBUtagFORMATETC@@V_bstr_t@@@std@@@std@@@std@@@std@@@2@@std@@QEAA@XZ 000000018000c090 f i GlassClipboard.obj
 0001:0000b090       ??1?$vector@V?$_List_unchecked_iterator@V?$_List_val@U?$_List_simple_types@U?$pair@$$CBGV_bstr_t@@@std@@@std@@@std@@@std@@V?$allocator@V?$_List_unchecked_iterator@V?$_List_val@U?$_List_simple_types@U?$pair@$$CBGV_bstr_t@@@std@@@std@@@std@@@std@@@2@@std@@QEAA@XZ 000000018000c090 f i GlassClipboard.obj
 0001:0000b090       ??1?$vector@V?$_List_unchecked_iterator@V?$_List_val@U?$_List_simple_types@U?$pair@$$CBUtagFORMATETC@@UtagSTGMEDIUM@@@std@@@std@@@std@@@std@@V?$allocator@V?$_List_unchecked_iterator@V?$_List_val@U?$_List_simple_types@U?$pair@$$CBUtagFORMATETC@@UtagSTGMEDIUM@@@std@@@std@@@std@@@std@@@2@@std@@QEAA@XZ 000000018000c090 f i GlassClipboard.obj
 0001:0000b090       ??1?$vector@V?$_List_unchecked_const_iterator@V?$_List_val@U?$_List_simple_types@V_bstr_t@@@std@@@std@@U_Iterator_base0@2@@std@@V?$allocator@V?$_List_unchecked_const_iterator@V?$_List_val@U?$_List_simple_types@V_bstr_t@@@std@@@std@@U_Iterator_base0@2@@std@@@2@@std@@QEAA@XZ 000000018000c090 f i GlassClipboard.obj
 0001:0000b0f0       ??1Bitmap@@UEAA@XZ         000000018000c0f0 f i GlassClipboard.obj
 0001:0000b0f0       ??1BaseBitmap@@UEAA@XZ     000000018000c0f0 f i GlassClipboard.obj
 0001:0000b110       ??1BinaryChunk@@QEAA@XZ    000000018000c110 f i GlassClipboard.obj
 0001:0000b1e0       ??4_bstr_t@@QEAAAEAV0@AEBV0@@Z 000000018000c1e0 f i GlassClipboard.obj
 0001:0000b220       ??4_bstr_t@@QEAAAEAV0@PEB_W@Z 000000018000c220 f i GlassClipboard.obj
 0001:0000b2e0       ??A?$hash_map@UtagFORMATETC@@UtagSTGMEDIUM@@V?$hash_compare@UtagFORMATETC@@U?$less@UtagFORMATETC@@@std@@@stdext@@V?$allocator@U?$pair@$$CBUtagFORMATETC@@UtagSTGMEDIUM@@@std@@@std@@@stdext@@QEAAAEAUtagSTGMEDIUM@@AEBUtagFORMATETC@@@Z 000000018000c2e0 f i GlassClipboard.obj
 0001:0000b3e0       ??A?$hash_map@UtagFORMATETC@@V_bstr_t@@V?$hash_compare@UtagFORMATETC@@U?$less@UtagFORMATETC@@@std@@@stdext@@V?$allocator@U?$pair@$$CBUtagFORMATETC@@V_bstr_t@@@std@@@std@@@stdext@@QEAAAEAV_bstr_t@@AEBUtagFORMATETC@@@Z 000000018000c3e0 f i GlassClipboard.obj
 0001:0000b4e0       ??R?$hash_compare@UtagFORMATETC@@U?$less@UtagFORMATETC@@@std@@@stdext@@QEBA_KAEBUtagFORMATETC@@@Z 000000018000c4e0 f i GlassClipboard.obj
 0001:0000b560       ??R?$hash_compare@V_bstr_t@@U?$less@V_bstr_t@@@std@@@stdext@@QEBA_KAEBV_bstr_t@@@Z 000000018000c560 f i GlassClipboard.obj
 0001:0000b610       ??_G?$IUnknownImpl@UIDataObject@@@@UEAAPEAXI@Z 000000018000c610 f i GlassClipboard.obj
 0001:0000b610       ??_E?$IUnknownImpl@UIDataObject@@@@UEAAPEAXI@Z 000000018000c610 f i GlassClipboard.obj
 0001:0000b640       ??_G?$IUnknownImpl@UIEnumFORMATETC@@@@UEAAPEAXI@Z 000000018000c640 f i GlassClipboard.obj
 0001:0000b640       ??_E?$IUnknownImpl@UIEnumFORMATETC@@@@UEAAPEAXI@Z 000000018000c640 f i GlassClipboard.obj
 0001:0000b670       ??_EDIBitmap@@UEAAPEAXI@Z  000000018000c670 f i Pixels.obj
 0001:0000b670       ??_GDIBitmap@@UEAAPEAXI@Z  000000018000c670 f i Pixels.obj
 0001:0000b670       ??_EBitmap@@UEAAPEAXI@Z    000000018000c670 f i Pixels.obj
 0001:0000b670       ??_GBaseBitmap@@UEAAPEAXI@Z 000000018000c670 f i GlassClipboard.obj
 0001:0000b670       ??_EBaseBitmap@@UEAAPEAXI@Z 000000018000c670 f i GlassClipboard.obj
 0001:0000b670       ??_GBitmap@@UEAAPEAXI@Z    000000018000c670 f i Pixels.obj
 0001:0000b6c0       ??_GClipboardData@@UEAAPEAXI@Z 000000018000c6c0 f i GlassClipboard.obj
 0001:0000b6c0       ??_EClipboardData@@UEAAPEAXI@Z 000000018000c6c0 f i GlassClipboard.obj
 0001:0000b7b0       ??_EClipboardEnumFORMATETC@ClipboardData@@UEAAPEAXI@Z 000000018000c7b0 f i GlassClipboard.obj
 0001:0000b7b0       ??_GClipboardEnumFORMATETC@ClipboardData@@UEAAPEAXI@Z 000000018000c7b0 f i GlassClipboard.obj
 0001:0000b960       ?AddRef@?$IUnknownImpl@UIDropSource@@@@UEAAKXZ 000000018000c960 f i GlassDnD.obj
 0001:0000b960       ?AddRef@?$IUnknownImpl@U_IManipulationEvents@@@@UEAAKXZ 000000018000c960 f i ManipulationEvents.obj
 0001:0000b960       ?AddRef@?$IUnknownImpl@UIDataObject@@@@UEAAKXZ 000000018000c960 f i GlassClipboard.obj
 0001:0000b960       ?AddRef@GlassTextRangeProvider@@UEAAKXZ 000000018000c960 f i GlassTextRangeProvider.obj
 0001:0000b960       ?AddRef@?$IUnknownImpl@UIEnumFORMATETC@@@@UEAAKXZ 000000018000c960 f i GlassClipboard.obj
 0001:0000b960       ?AddRef@?$IUnknownImpl@UIDropTarget@@@@UEAAKXZ 000000018000c960 f i GlassDnD.obj
 0001:0000b970       ?Allocate@BinaryChunk@@QEAAJJ@Z 000000018000c970 f i GlassClipboard.obj
 0001:0000ba30       ?Clone@ClipboardEnumFORMATETC@ClipboardData@@UEAAJPEAPEAUIEnumFORMATETC@@@Z 000000018000ca30 f i GlassClipboard.obj
 0001:0000bab0       ?DAdvise@ClipboardData@@UEAAJPEAUtagFORMATETC@@KPEAUIAdviseSink@@PEAK@Z 000000018000cab0 f i GlassClipboard.obj
 0001:0000bb50       ?DUnadvise@ClipboardData@@UEAAJK@Z 000000018000cb50 f i GlassClipboard.obj
 0001:0000c3c0       ?EnumDAdvise@ClipboardData@@UEAAJPEAPEAUIEnumSTATDATA@@@Z 000000018000d3c0 f i GlassClipboard.obj
 0001:0000c3f0       ?EnumFormatEtc@ClipboardData@@UEAAJKPEAPEAUIEnumFORMATETC@@@Z 000000018000d3f0 f i GlassClipboard.obj
 0001:0000c490       ?GetCanonicalFormatEtc@ClipboardData@@UEAAJPEAUtagFORMATETC@@0@Z 000000018000d490 f i GlassClipboard.obj
 0001:0000c620       ?GetData@ClipboardData@@UEAAJPEAUtagFORMATETC@@PEAUtagSTGMEDIUM@@@Z 000000018000d620 f i GlassClipboard.obj
 0001:0000d0e0       ?GetDataHere@ClipboardData@@UEAAJPEAUtagFORMATETC@@PEAUtagSTGMEDIUM@@@Z 000000018000e0e0 f i GlassClipboard.obj
 0001:0000d180       ?Load@BinaryChunk@@QEAAJPEAUIDataObject@@G_J@Z 000000018000e180 f i GlassClipboard.obj
 0001:0000d270       ?Next@ClipboardEnumFORMATETC@ClipboardData@@UEAAJKPEAUtagFORMATETC@@PEAK@Z 000000018000e270 f i GlassClipboard.obj
 0001:0000d2d0       ?PopImage@@YAJPEAUJNIEnv_@@PEAUIDataObject@@PEAPEAV_jbyteArray@@@Z 000000018000e2d0 f   GlassClipboard.obj
 0001:0000d740       ?PushImage@@YAJPEAUJNIEnv_@@PEAV_jbyteArray@@PEAUtagSTGMEDIUM@@@Z 000000018000e740 f   GlassClipboard.obj
 0001:0000d900       ?QueryGetData@ClipboardData@@UEAAJPEAUtagFORMATETC@@@Z 000000018000e900 f i GlassClipboard.obj
 0001:0000da50       ?QueryInterface@?$IUnknownImpl@UIDataObject@@@@UEAAJAEBU_GUID@@PEAPEAX@Z 000000018000ea50 f i GlassClipboard.obj
 0001:0000dab0       ?QueryInterface@?$IUnknownImpl@UIEnumFORMATETC@@@@UEAAJAEBU_GUID@@PEAPEAX@Z 000000018000eab0 f i GlassClipboard.obj
 0001:0000db10       ?Release@?$IUnknownImpl@UIDataObject@@@@UEAAKXZ 000000018000eb10 f i GlassClipboard.obj
 0001:0000db40       ?Release@?$IUnknownImpl@UIEnumFORMATETC@@@@UEAAKXZ 000000018000eb40 f i GlassClipboard.obj
 0001:0000db40       ?Release@?$IUnknownImpl@UIDropTarget@@@@UEAAKXZ 000000018000eb40 f i GlassDnD.obj
 0001:0000db70       ?Reset@ClipboardEnumFORMATETC@ClipboardData@@UEAAJXZ 000000018000eb70 f i GlassClipboard.obj
 0001:0000db90       ?SetData@ClipboardData@@UEAAJPEAUtagFORMATETC@@PEAUtagSTGMEDIUM@@H@Z 000000018000eb90 f i GlassClipboard.obj
 0001:0000de30       ?Skip@ClipboardEnumFORMATETC@ClipboardData@@UEAAJK@Z 000000018000ee30 f i GlassClipboard.obj
 0001:0000de70       ?_Buynode0@?$_List_alloc@U?$_List_base_types@U?$pair@$$CBGV_bstr_t@@@std@@V?$allocator@U?$pair@$$CBGV_bstr_t@@@std@@@2@@std@@@std@@QEAAPEAU?$_List_node@U?$pair@$$CBGV_bstr_t@@@std@@PEAX@2@PEAU32@0@Z 000000018000ee70 f i GlassClipboard.obj
 0001:0000de70       ?_Buynode0@?$_List_alloc@U?$_List_base_types@U?$pair@$$CBV_bstr_t@@G@std@@V?$allocator@U?$pair@$$CBV_bstr_t@@G@std@@@2@@std@@@std@@QEAAPEAU?$_List_node@U?$pair@$$CBV_bstr_t@@G@std@@PEAX@2@PEAU32@0@Z 000000018000ee70 f i GlassClipboard.obj
 0001:0000dec0       ?_Buynode0@?$_List_alloc@U?$_List_base_types@U?$pair@$$CBUtagFORMATETC@@UtagSTGMEDIUM@@@std@@V?$allocator@U?$pair@$$CBUtagFORMATETC@@UtagSTGMEDIUM@@@std@@@2@@std@@@std@@QEAAPEAU?$_List_node@U?$pair@$$CBUtagFORMATETC@@UtagSTGMEDIUM@@@std@@PEAX@2@PEAU32@0@Z 000000018000eec0 f i GlassClipboard.obj
 0001:0000df10       ?_Buynode0@?$_List_alloc@U?$_List_base_types@U?$pair@$$CBUtagFORMATETC@@V_bstr_t@@@std@@V?$allocator@U?$pair@$$CBUtagFORMATETC@@V_bstr_t@@@std@@@2@@std@@@std@@QEAAPEAU?$_List_node@U?$pair@$$CBUtagFORMATETC@@V_bstr_t@@@std@@PEAX@2@PEAU32@0@Z 000000018000ef10 f i GlassClipboard.obj
 0001:0000df60       ?_Buynode0@?$_List_alloc@U?$_List_base_types@V_bstr_t@@V?$allocator@V_bstr_t@@@std@@@std@@@std@@QEAAPEAU?$_List_node@V_bstr_t@@PEAX@2@PEAU32@0@Z 000000018000ef60 f i GlassClipboard.obj
 0001:0000dfb0       ?_Check_size@?$_Hash@V?$_Hset_traits@V_bstr_t@@V?$hash_compare@V_bstr_t@@U?$less@V_bstr_t@@@std@@@stdext@@V?$allocator@V_bstr_t@@@std@@$0A@@stdext@@@std@@IEAAXXZ 000000018000efb0 f i GlassClipboard.obj
 0001:0000e070       ?_Compare@_bstr_t@@AEBAHAEBV1@@Z 000000018000f070 f i GlassClipboard.obj
 0001:0000e1a0       ?_Destroy_if_node@?$_Hash@V?$_Hmap_traits@GV_bstr_t@@V?$hash_compare@GU?$less@G@std@@@stdext@@V?$allocator@U?$pair@$$CBGV_bstr_t@@@std@@@std@@$0A@@stdext@@@std@@IEAAXV?$_List_unchecked_iterator@V?$_List_val@U?$_List_simple_types@U?$pair@$$CBGV_bstr_t@@@std@@@std@@@std@@@2@@Z 000000018000f1a0 f i GlassClipboard.obj
 0001:0000e1e0       ?_Destroy_if_node@?$_Hash@V?$_Hmap_traits@UtagFORMATETC@@UtagSTGMEDIUM@@V?$hash_compare@UtagFORMATETC@@U?$less@UtagFORMATETC@@@std@@@stdext@@V?$allocator@U?$pair@$$CBUtagFORMATETC@@UtagSTGMEDIUM@@@std@@@std@@$0A@@stdext@@@std@@IEAAXV?$_List_unchecked_iterator@V?$_List_val@U?$_List_simple_types@U?$pair@$$CBUtagFORMATETC@@UtagSTGMEDIUM@@@std@@@std@@@std@@@2@@Z 000000018000f1e0 f i GlassClipboard.obj
 0001:0000e210       ?_Destroy_if_node@?$_Hash@V?$_Hmap_traits@UtagFORMATETC@@V_bstr_t@@V?$hash_compare@UtagFORMATETC@@U?$less@UtagFORMATETC@@@std@@@stdext@@V?$allocator@U?$pair@$$CBUtagFORMATETC@@V_bstr_t@@@std@@@std@@$0A@@stdext@@@std@@IEAAXV?$_List_unchecked_iterator@V?$_List_val@U?$_List_simple_types@U?$pair@$$CBUtagFORMATETC@@V_bstr_t@@@std@@@std@@@std@@@2@@Z 000000018000f210 f i GlassClipboard.obj
 0001:0000e250       ?_Destroy_if_node@?$_Hash@V?$_Hmap_traits@V_bstr_t@@GV?$hash_compare@V_bstr_t@@U?$less@V_bstr_t@@@std@@@stdext@@V?$allocator@U?$pair@$$CBV_bstr_t@@G@std@@@std@@$0A@@stdext@@@std@@IEAAXV?$_List_unchecked_iterator@V?$_List_val@U?$_List_simple_types@U?$pair@$$CBV_bstr_t@@G@std@@@std@@@std@@@2@@Z 000000018000f250 f i GlassClipboard.obj
 0001:0000e290       ?_Destroy_if_node@?$_Hash@V?$_Hset_traits@V_bstr_t@@V?$hash_compare@V_bstr_t@@U?$less@V_bstr_t@@@std@@@stdext@@V?$allocator@V_bstr_t@@@std@@$0A@@stdext@@@std@@IEAAXV?$_List_unchecked_const_iterator@V?$_List_val@U?$_List_simple_types@V_bstr_t@@@std@@@std@@U_Iterator_base0@2@@2@@Z 000000018000f290 f i GlassClipboard.obj
 0001:0000e2d0       ?_Init@?$_Hash@V?$_Hset_traits@V_bstr_t@@V?$hash_compare@V_bstr_t@@U?$less@V_bstr_t@@@std@@@stdext@@V?$allocator@V_bstr_t@@@std@@$0A@@stdext@@@std@@IEAAX_K@Z 000000018000f2d0 f i GlassClipboard.obj
 0001:0000e2d0       ?_Init@?$_Hash@V?$_Hmap_traits@GV_bstr_t@@V?$hash_compare@GU?$less@G@std@@@stdext@@V?$allocator@U?$pair@$$CBGV_bstr_t@@@std@@@std@@$0A@@stdext@@@std@@IEAAX_K@Z 000000018000f2d0 f i GlassClipboard.obj
 0001:0000e2d0       ?_Init@?$_Hash@V?$_Hmap_traits@UtagFORMATETC@@V_bstr_t@@V?$hash_compare@UtagFORMATETC@@U?$less@UtagFORMATETC@@@std@@@stdext@@V?$allocator@U?$pair@$$CBUtagFORMATETC@@V_bstr_t@@@std@@@std@@$0A@@stdext@@@std@@IEAAX_K@Z 000000018000f2d0 f i GlassClipboard.obj
 0001:0000e2d0       ?_Init@?$_Hash@V?$_Hmap_traits@UtagFORMATETC@@UtagSTGMEDIUM@@V?$hash_compare@UtagFORMATETC@@U?$less@UtagFORMATETC@@@std@@@stdext@@V?$allocator@U?$pair@$$CBUtagFORMATETC@@UtagSTGMEDIUM@@@std@@@std@@$0A@@stdext@@@std@@IEAAX_K@Z 000000018000f2d0 f i GlassClipboard.obj
 0001:0000e2d0       ?_Init@?$_Hash@V?$_Hmap_traits@V_bstr_t@@GV?$hash_compare@V_bstr_t@@U?$less@V_bstr_t@@@std@@@stdext@@V?$allocator@U?$pair@$$CBV_bstr_t@@G@std@@@std@@$0A@@stdext@@@std@@IEAAX_K@Z 000000018000f2d0 f i GlassClipboard.obj
 0001:0000e450       ?_Make_iter@?$_Hash@V?$_Hmap_traits@GV_bstr_t@@V?$hash_compare@GU?$less@G@std@@@stdext@@V?$allocator@U?$pair@$$CBGV_bstr_t@@@std@@@std@@$0A@@stdext@@@std@@QEBA?AV?$_List_iterator@V?$_List_val@U?$_List_simple_types@U?$pair@$$CBGV_bstr_t@@@std@@@std@@@std@@@2@V?$_List_unchecked_const_iterator@V?$_List_val@U?$_List_simple_types@U?$pair@$$CBGV_bstr_t@@@std@@@std@@@std@@U_Iterator_base0@2@@2@@Z 000000018000f450 f i GlassClipboard.obj
 0001:0000e450       ?_Make_iter@?$_Hash@V?$_Hset_traits@V_bstr_t@@V?$hash_compare@V_bstr_t@@U?$less@V_bstr_t@@@std@@@stdext@@V?$allocator@V_bstr_t@@@std@@$0A@@stdext@@@std@@QEBA?AV?$_List_const_iterator@V?$_List_val@U?$_List_simple_types@V_bstr_t@@@std@@@std@@@2@V?$_List_unchecked_const_iterator@V?$_List_val@U?$_List_simple_types@V_bstr_t@@@std@@@std@@U_Iterator_base0@2@@2@@Z 000000018000f450 f i GlassClipboard.obj
 0001:0000e450       ?_Make_iter@?$_Hash@V?$_Hmap_traits@UtagFORMATETC@@UtagSTGMEDIUM@@V?$hash_compare@UtagFORMATETC@@U?$less@UtagFORMATETC@@@std@@@stdext@@V?$allocator@U?$pair@$$CBUtagFORMATETC@@UtagSTGMEDIUM@@@std@@@std@@$0A@@stdext@@@std@@QEBA?AV?$_List_iterator@V?$_List_val@U?$_List_simple_types@U?$pair@$$CBUtagFORMATETC@@UtagSTGMEDIUM@@@std@@@std@@@std@@@2@V?$_List_unchecked_const_iterator@V?$_List_val@U?$_List_simple_types@U?$pair@$$CBUtagFORMATETC@@UtagSTGMEDIUM@@@std@@@std@@@std@@U_Iterator_base0@2@@2@@Z 000000018000f450 f i GlassClipboard.obj
 0001:0000e450       ?_Make_iter@?$_Hash@V?$_Hmap_traits@V_bstr_t@@GV?$hash_compare@V_bstr_t@@U?$less@V_bstr_t@@@std@@@stdext@@V?$allocator@U?$pair@$$CBV_bstr_t@@G@std@@@std@@$0A@@stdext@@@std@@QEBA?AV?$_List_iterator@V?$_List_val@U?$_List_simple_types@U?$pair@$$CBV_bstr_t@@G@std@@@std@@@std@@@2@V?$_List_unchecked_const_iterator@V?$_List_val@U?$_List_simple_types@U?$pair@$$CBV_bstr_t@@G@std@@@std@@@std@@U_Iterator_base0@2@@2@@Z 000000018000f450 f i GlassClipboard.obj
 0001:0000e450       ?_Make_iter@?$_Hash@V?$_Hmap_traits@UtagFORMATETC@@V_bstr_t@@V?$hash_compare@UtagFORMATETC@@U?$less@UtagFORMATETC@@@std@@@stdext@@V?$allocator@U?$pair@$$CBUtagFORMATETC@@V_bstr_t@@@std@@@std@@$0A@@stdext@@@std@@QEBA?AV?$_List_iterator@V?$_List_val@U?$_List_simple_types@U?$pair@$$CBUtagFORMATETC@@V_bstr_t@@@std@@@std@@@std@@@2@V?$_List_unchecked_const_iterator@V?$_List_val@U?$_List_simple_types@U?$pair@$$CBUtagFORMATETC@@V_bstr_t@@@std@@@std@@@std@@U_Iterator_base0@2@@2@@Z 000000018000f450 f i GlassClipboard.obj
 0001:0000e460       ?_Reallocate_exactly@?$vector@V?$_List_unchecked_iterator@V?$_List_val@U?$_List_simple_types@U?$pair@$$CBUtagFORMATETC@@UtagSTGMEDIUM@@@std@@@std@@@std@@@std@@V?$allocator@V?$_List_unchecked_iterator@V?$_List_val@U?$_List_simple_types@U?$pair@$$CBUtagFORMATETC@@UtagSTGMEDIUM@@@std@@@std@@@std@@@std@@@2@@std@@AEAAX_K@Z 000000018000f460 f i GlassClipboard.obj
 0001:0000e460       ?_Reallocate_exactly@?$vector@V?$_List_unchecked_iterator@V?$_List_val@U?$_List_simple_types@U?$pair@$$CBUtagFORMATETC@@V_bstr_t@@@std@@@std@@@std@@@std@@V?$allocator@V?$_List_unchecked_iterator@V?$_List_val@U?$_List_simple_types@U?$pair@$$CBUtagFORMATETC@@V_bstr_t@@@std@@@std@@@std@@@std@@@2@@std@@AEAAX_K@Z 000000018000f460 f i GlassClipboard.obj
 0001:0000e460       ?_Reallocate_exactly@?$vector@V?$_List_unchecked_iterator@V?$_List_val@U?$_List_simple_types@U?$pair@$$CBGV_bstr_t@@@std@@@std@@@std@@@std@@V?$allocator@V?$_List_unchecked_iterator@V?$_List_val@U?$_List_simple_types@U?$pair@$$CBGV_bstr_t@@@std@@@std@@@std@@@std@@@2@@std@@AEAAX_K@Z 000000018000f460 f i GlassClipboard.obj
 0001:0000e460       ?_Reallocate_exactly@?$vector@V?$_List_unchecked_iterator@V?$_List_val@U?$_List_simple_types@U?$pair@$$CBV_bstr_t@@G@std@@@std@@@std@@@std@@V?$allocator@V?$_List_unchecked_iterator@V?$_List_val@U?$_List_simple_types@U?$pair@$$CBV_bstr_t@@G@std@@@std@@@std@@@std@@@2@@std@@AEAAX_K@Z 000000018000f460 f i GlassClipboard.obj
 0001:0000e460       ?_Reallocate_exactly@?$vector@V?$_List_unchecked_const_iterator@V?$_List_val@U?$_List_simple_types@V_bstr_t@@@std@@@std@@U_Iterator_base0@2@@std@@V?$allocator@V?$_List_unchecked_const_iterator@V?$_List_val@U?$_List_simple_types@V_bstr_t@@@std@@@std@@U_Iterator_base0@2@@std@@@2@@std@@AEAAX_K@Z 000000018000f460 f i GlassClipboard.obj
 0001:00010080       ?_Xlength@?$vector@UtagTOUCHINPUT@@V?$allocator@UtagTOUCHINPUT@@@std@@@std@@CAXXZ 0000000180011080 f i ViewContainer.obj
 0001:00010080       ?_Xlength@?$vector@V?$_List_unchecked_iterator@V?$_List_val@U?$_List_simple_types@U?$pair@$$CBGV_bstr_t@@@std@@@std@@@std@@@std@@V?$allocator@V?$_List_unchecked_iterator@V?$_List_val@U?$_List_simple_types@U?$pair@$$CBGV_bstr_t@@@std@@@std@@@std@@@std@@@2@@std@@CAXXZ 0000000180011080 f i GlassClipboard.obj
 0001:00010080       ?_Xlength@?$vector@V?$_List_unchecked_const_iterator@V?$_List_val@U?$_List_simple_types@V_bstr_t@@@std@@@std@@U_Iterator_base0@2@@std@@V?$allocator@V?$_List_unchecked_const_iterator@V?$_List_val@U?$_List_simple_types@V_bstr_t@@@std@@@std@@U_Iterator_base0@2@@std@@@2@@std@@CAXXZ 0000000180011080 f i GlassClipboard.obj
 0001:00010080       ?_Xlength@?$vector@V?$_List_unchecked_iterator@V?$_List_val@U?$_List_simple_types@U?$pair@$$CBV_bstr_t@@G@std@@@std@@@std@@@std@@V?$allocator@V?$_List_unchecked_iterator@V?$_List_val@U?$_List_simple_types@U?$pair@$$CBV_bstr_t@@G@std@@@std@@@std@@@std@@@2@@std@@CAXXZ 0000000180011080 f i GlassClipboard.obj
 0001:00010080       ?_Xlength@?$vector@V?$_List_unchecked_iterator@V?$_List_val@U?$_List_simple_types@U?$pair@$$CBUtagFORMATETC@@V_bstr_t@@@std@@@std@@@std@@@std@@V?$allocator@V?$_List_unchecked_iterator@V?$_List_val@U?$_List_simple_types@U?$pair@$$CBUtagFORMATETC@@V_bstr_t@@@std@@@std@@@std@@@std@@@2@@std@@CAXXZ 0000000180011080 f i GlassClipboard.obj
 0001:00010080       ?_Xlength@?$vector@V?$_List_unchecked_iterator@V?$_List_val@U?$_List_simple_types@U?$pair@$$CBUtagFORMATETC@@UtagSTGMEDIUM@@@std@@@std@@@std@@@std@@V?$allocator@V?$_List_unchecked_iterator@V?$_List_val@U?$_List_simple_types@U?$pair@$$CBUtagFORMATETC@@UtagSTGMEDIUM@@@std@@@std@@@std@@@std@@@2@@std@@CAXXZ 0000000180011080 f i GlassClipboard.obj
 0001:000100a0       ?addPair@@YAXPEB_WAEBG@Z   00000001800110a0 f   GlassClipboard.obj
 0001:00010430       ?allocate@?$allocator@V?$_List_unchecked_iterator@V?$_List_val@U?$_List_simple_types@U?$pair@$$CBGV_bstr_t@@@std@@@std@@@std@@@std@@@std@@QEAAPEAV?$_List_unchecked_iterator@V?$_List_val@U?$_List_simple_types@U?$pair@$$CBGV_bstr_t@@@std@@@std@@@std@@@2@_K@Z 0000000180011430 f i GlassClipboard.obj
 0001:00010430       ?allocate@?$allocator@V?$_List_unchecked_iterator@V?$_List_val@U?$_List_simple_types@U?$pair@$$CBV_bstr_t@@G@std@@@std@@@std@@@std@@@std@@QEAAPEAV?$_List_unchecked_iterator@V?$_List_val@U?$_List_simple_types@U?$pair@$$CBV_bstr_t@@G@std@@@std@@@std@@@2@_K@Z 0000000180011430 f i GlassClipboard.obj
 0001:00010430       ?allocate@?$allocator@V?$_List_unchecked_iterator@V?$_List_val@U?$_List_simple_types@U?$pair@$$CBUtagFORMATETC@@UtagSTGMEDIUM@@@std@@@std@@@std@@@std@@@std@@QEAAPEAV?$_List_unchecked_iterator@V?$_List_val@U?$_List_simple_types@U?$pair@$$CBUtagFORMATETC@@UtagSTGMEDIUM@@@std@@@std@@@std@@@2@_K@Z 0000000180011430 f i GlassClipboard.obj
 0001:00010430       ?allocate@?$allocator@V?$_List_unchecked_const_iterator@V?$_List_val@U?$_List_simple_types@V_bstr_t@@@std@@@std@@U_Iterator_base0@2@@std@@@std@@QEAAPEAV?$_List_unchecked_const_iterator@V?$_List_val@U?$_List_simple_types@V_bstr_t@@@std@@@std@@U_Iterator_base0@2@@2@_K@Z 0000000180011430 f i GlassClipboard.obj
 0001:00010430       ?allocate@?$allocator@V?$_List_unchecked_iterator@V?$_List_val@U?$_List_simple_types@U?$pair@$$CBUtagFORMATETC@@V_bstr_t@@@std@@@std@@@std@@@std@@@std@@QEAAPEAV?$_List_unchecked_iterator@V?$_List_val@U?$_List_simple_types@U?$pair@$$CBUtagFORMATETC@@V_bstr_t@@@std@@@std@@@std@@@2@_K@Z 0000000180011430 f i GlassClipboard.obj
 0001:000104b0       ?checkJavaException@@YAJPEAUJNIEnv_@@@Z 00000001800114b0 f i GlassClipboard.obj
 0001:000106d0       ?clear@?$list@V_bstr_t@@V?$allocator@V_bstr_t@@@std@@@std@@QEAAXXZ 00000001800116d0 f i GlassClipboard.obj
 0001:00010740       ?create_mime_stuff@@YAHXZ  0000000180011740 f   GlassClipboard.obj
 0001:00010b70       ?deallocate@?$allocator@U?$_List_node@U?$pair@$$CBV_bstr_t@@G@std@@PEAX@std@@@std@@QEAAXQEAU?$_List_node@U?$pair@$$CBV_bstr_t@@G@std@@PEAX@2@_K@Z 0000000180011b70 f i GlassClipboard.obj
 0001:00010b70       ?deallocate@?$allocator@U?$_List_node@U?$pair@$$CBGV_bstr_t@@@std@@PEAX@std@@@std@@QEAAXQEAU?$_List_node@U?$pair@$$CBGV_bstr_t@@@std@@PEAX@2@_K@Z 0000000180011b70 f i GlassClipboard.obj
 0001:00010bc0       ?deallocate@?$allocator@U?$_List_node@U?$pair@$$CBUtagFORMATETC@@UtagSTGMEDIUM@@@std@@PEAX@std@@@std@@QEAAXQEAU?$_List_node@U?$pair@$$CBUtagFORMATETC@@UtagSTGMEDIUM@@@std@@PEAX@2@_K@Z 0000000180011bc0 f i GlassClipboard.obj
 0001:00010c10       ?deallocate@?$allocator@U?$_List_node@U?$pair@$$CBUtagFORMATETC@@V_bstr_t@@@std@@PEAX@std@@@std@@QEAAXQEAU?$_List_node@U?$pair@$$CBUtagFORMATETC@@V_bstr_t@@@std@@PEAX@2@_K@Z 0000000180011c10 f i GlassClipboard.obj
 0001:00010c50       ?deallocate@?$allocator@U?$_List_node@V_bstr_t@@PEAX@std@@@std@@QEAAXQEAU?$_List_node@V_bstr_t@@PEAX@2@_K@Z 0000000180011c50 f i GlassClipboard.obj
 0001:00010ca0       ?deallocate@?$allocator@V?$_List_unchecked_iterator@V?$_List_val@U?$_List_simple_types@U?$pair@$$CBUtagFORMATETC@@UtagSTGMEDIUM@@@std@@@std@@@std@@@std@@@std@@QEAAXQEAV?$_List_unchecked_iterator@V?$_List_val@U?$_List_simple_types@U?$pair@$$CBUtagFORMATETC@@UtagSTGMEDIUM@@@std@@@std@@@std@@@2@_K@Z 0000000180011ca0 f i GlassClipboard.obj
 0001:00010ca0       ?deallocate@?$allocator@V?$_List_unchecked_iterator@V?$_List_val@U?$_List_simple_types@U?$pair@$$CBUtagFORMATETC@@V_bstr_t@@@std@@@std@@@std@@@std@@@std@@QEAAXQEAV?$_List_unchecked_iterator@V?$_List_val@U?$_List_simple_types@U?$pair@$$CBUtagFORMATETC@@V_bstr_t@@@std@@@std@@@std@@@2@_K@Z 0000000180011ca0 f i GlassClipboard.obj
 0001:00010ca0       ?deallocate@?$allocator@V?$_List_unchecked_const_iterator@V?$_List_val@U?$_List_simple_types@V_bstr_t@@@std@@@std@@U_Iterator_base0@2@@std@@@std@@QEAAXQEAV?$_List_unchecked_const_iterator@V?$_List_val@U?$_List_simple_types@V_bstr_t@@@std@@@std@@U_Iterator_base0@2@@2@_K@Z 0000000180011ca0 f i GlassClipboard.obj
 0001:00010ca0       ?deallocate@?$allocator@V?$_List_unchecked_iterator@V?$_List_val@U?$_List_simple_types@U?$pair@$$CBGV_bstr_t@@@std@@@std@@@std@@@std@@@std@@QEAAXQEAV?$_List_unchecked_iterator@V?$_List_val@U?$_List_simple_types@U?$pair@$$CBGV_bstr_t@@@std@@@std@@@std@@@2@_K@Z 0000000180011ca0 f i GlassClipboard.obj
 0001:00010ca0       ?deallocate@?$allocator@V?$_List_unchecked_iterator@V?$_List_val@U?$_List_simple_types@U?$pair@$$CBV_bstr_t@@G@std@@@std@@@std@@@std@@@std@@QEAAXQEAV?$_List_unchecked_iterator@V?$_List_val@U?$_List_simple_types@U?$pair@$$CBV_bstr_t@@G@std@@@std@@@std@@@2@_K@Z 0000000180011ca0 f i GlassClipboard.obj
 0001:00010cf0       ?erase@?$_Hash@V?$_Hset_traits@V_bstr_t@@V?$hash_compare@V_bstr_t@@U?$less@V_bstr_t@@@std@@@stdext@@V?$allocator@V_bstr_t@@@std@@$0A@@stdext@@@std@@QEAA?AV?$_List_const_iterator@V?$_List_val@U?$_List_simple_types@V_bstr_t@@@std@@@std@@@2@V32@@Z 0000000180011cf0 f i GlassClipboard.obj
 0001:00010dc0       ?erase@?$_Hash@V?$_Hset_traits@V_bstr_t@@V?$hash_compare@V_bstr_t@@U?$less@V_bstr_t@@@std@@@stdext@@V?$allocator@V_bstr_t@@@std@@$0A@@stdext@@@std@@QEAA_KAEBV_bstr_t@@@Z 0000000180011dc0 f i GlassClipboard.obj
 0001:00010fa0       ?getACTION@@YAJK@Z         0000000180011fa0 f   GlassClipboard.obj
 0001:00010fd0       ?getClipboardFormat@@YAGPEB_W@Z 0000000180011fd0 f   GlassClipboard.obj
 0001:00011170       ?getDROPEFFECT@@YAKJ@Z     0000000180012170 f   GlassClipboard.obj
 0001:000111a0       ?getMime@@YA?AV_bstr_t@@G@Z 00000001800121a0 f   GlassClipboard.obj
 0001:000115b0       ?getString@BinaryChunk@@QEAA?AV_bstr_t@@XZ 00000001800125b0 f i GlassClipboard.obj
 0001:000117c0       ?lower_bound@?$_Hash@V?$_Hmap_traits@UtagFORMATETC@@UtagSTGMEDIUM@@V?$hash_compare@UtagFORMATETC@@U?$less@UtagFORMATETC@@@std@@@stdext@@V?$allocator@U?$pair@$$CBUtagFORMATETC@@UtagSTGMEDIUM@@@std@@@std@@$0A@@stdext@@@std@@QEAA?AV?$_List_iterator@V?$_List_val@U?$_List_simple_types@U?$pair@$$CBUtagFORMATETC@@UtagSTGMEDIUM@@@std@@@std@@@std@@@2@AEBUtagFORMATETC@@@Z 00000001800127c0 f i GlassClipboard.obj
 0001:000117c0       ?lower_bound@?$_Hash@V?$_Hmap_traits@UtagFORMATETC@@V_bstr_t@@V?$hash_compare@UtagFORMATETC@@U?$less@UtagFORMATETC@@@std@@@stdext@@V?$allocator@U?$pair@$$CBUtagFORMATETC@@V_bstr_t@@@std@@@std@@$0A@@stdext@@@std@@QEAA?AV?$_List_iterator@V?$_List_val@U?$_List_simple_types@U?$pair@$$CBUtagFORMATETC@@V_bstr_t@@@std@@@std@@@std@@@2@AEBUtagFORMATETC@@@Z 00000001800127c0 f i GlassClipboard.obj
 0001:000118c0       ?pushCommit@ClipboardData@@QEAAJPEAUJNIEnv_@@PEAV_jobjectArray@@J@Z 00000001800128c0 f i GlassClipboard.obj
 0001:00012190       Java_com_sun_glass_ui_win_WinDnDClipboard_dispose 0000000180013190 f   GlassClipboard.obj
 0001:000121d0       Java_com_sun_glass_ui_win_WinDnDClipboard_push 00000001800131d0 f   GlassClipboard.obj
 0001:00012300       Java_com_sun_glass_ui_win_WinSystemClipboard_create 0000000180013300 f   GlassClipboard.obj
 0001:000123a0       Java_com_sun_glass_ui_win_WinSystemClipboard_dispose 00000001800133a0 f   GlassClipboard.obj
 0001:000123e0       Java_com_sun_glass_ui_win_WinSystemClipboard_initIDs 00000001800133e0 f   GlassClipboard.obj
 0001:00012500       Java_com_sun_glass_ui_win_WinSystemClipboard_isOwner 0000000180013500 f   GlassClipboard.obj
 0001:00012540       Java_com_sun_glass_ui_win_WinSystemClipboard_pop 0000000180013540 f   GlassClipboard.obj
 0001:00012600       Java_com_sun_glass_ui_win_WinSystemClipboard_popBytes 0000000180013600 f   GlassClipboard.obj
 0001:000126d0       Java_com_sun_glass_ui_win_WinSystemClipboard_popMimesFromSystem 00000001800136d0 f   GlassClipboard.obj
 0001:00012710       Java_com_sun_glass_ui_win_WinSystemClipboard_popSupportedSourceActions 0000000180013710 f   GlassClipboard.obj
 0001:00012750       Java_com_sun_glass_ui_win_WinSystemClipboard_push 0000000180013750 f   GlassClipboard.obj
 0001:00012880       Java_com_sun_glass_ui_win_WinSystemClipboard_pushTargetActionToSystem 0000000180013880 f   GlassClipboard.obj
 0001:000128c0       setDragImage               00000001800138c0 f   GlassClipboard.obj
 0001:00012e50       ?JCursorToHCURSOR@@YAPEAUHICON__@@PEAUJNIEnv_@@PEAV_jobject@@@Z 0000000180013e50 f   GlassCursor.obj
 0001:00012fb0       ?NewObject@JNIEnv_@@QEAAPEAV_jobject@@PEAV_jclass@@PEAU_jmethodID@@ZZ 0000000180013fb0 f i GlassCursor.obj
 0001:00012fe0       Java_com_sun_glass_ui_win_WinCursor__1createCursor 0000000180013fe0 f   GlassCursor.obj
 0001:00013000       Java_com_sun_glass_ui_win_WinCursor__1getBestSize 0000000180014000 f   GlassCursor.obj
 0001:00013070       Java_com_sun_glass_ui_win_WinCursor__1initIDs 0000000180014070 f   GlassCursor.obj
 0001:00013170       Java_com_sun_glass_ui_win_WinCursor__1setVisible 0000000180014170 f   GlassCursor.obj
 0001:000131a0       ??0GlassDropSource@@QEAA@PEAV_jobject@@@Z 00000001800141a0 f   GlassDnD.obj
 0001:000132d0       ??0GlassDropTarget@@QEAA@PEAVViewContainer@@PEAUHWND__@@@Z 00000001800142d0 f   GlassDnD.obj
 0001:00013370       ??1?$IUnknownImpl@UIDropSource@@@@UEAA@XZ 0000000180014370 f i GlassDnD.obj
 0001:00013380       ??1?$IUnknownImpl@UIDropTarget@@@@UEAA@XZ 0000000180014380 f i GlassDnD.obj
 0001:00013390       ??_E?$IUnknownImpl@UIDropSource@@@@UEAAPEAXI@Z 0000000180014390 f i GlassDnD.obj
 0001:00013390       ??_G?$IUnknownImpl@UIDropSource@@@@UEAAPEAXI@Z 0000000180014390 f i GlassDnD.obj
 0001:000133c0       ??_E?$IUnknownImpl@UIDropTarget@@@@UEAAPEAXI@Z 00000001800143c0 f i GlassDnD.obj
 0001:000133c0       ??_G?$IUnknownImpl@UIDropTarget@@@@UEAAPEAXI@Z 00000001800143c0 f i GlassDnD.obj
 0001:000133f0       ??_GGlassDropSource@@UEAAPEAXI@Z 00000001800143f0 f i GlassDnD.obj
 0001:000133f0       ??_EGlassDropSource@@UEAAPEAXI@Z 00000001800143f0 f i GlassDnD.obj
 0001:00013420       ??_GGlassDropTarget@@UEAAPEAXI@Z 0000000180014420 f i GlassDnD.obj
 0001:00013420       ??_EGlassDropTarget@@UEAAPEAXI@Z 0000000180014420 f i GlassDnD.obj
 0001:000134b0       ?CallbackToJava@GlassDropTarget@@IEAAJPEAU_jmethodID@@KU_POINTL@@PEAK@Z 00000001800144b0 f   GlassDnD.obj
 0001:000135d0       ?DragEnter@GlassDropTarget@@MEAAJPEAUIDataObject@@KU_POINTL@@PEAK@Z 00000001800145d0 f   GlassDnD.obj
 0001:00013680       ?DragLeave@GlassDropTarget@@MEAAJXZ 0000000180014680 f   GlassDnD.obj
 0001:00013720       ?DragOver@GlassDropTarget@@MEAAJKU_POINTL@@PEAK@Z 0000000180014720 f   GlassDnD.obj
 0001:000137b0       ?Drop@GlassDropTarget@@MEAAJPEAUIDataObject@@KU_POINTL@@PEAK@Z 00000001800147b0 f   GlassDnD.obj
 0001:00013850       ?GiveFeedback@GlassDropSource@@MEAAJK@Z 0000000180014850 f   GlassDnD.obj
 0001:00013860       ?QueryContinueDrag@GlassDropSource@@MEAAJHK@Z 0000000180014860 f   GlassDnD.obj
 0001:00013880       ?QueryInterface@?$IUnknownImpl@UIDropSource@@@@UEAAJAEBU_GUID@@PEAPEAX@Z 0000000180014880 f i GlassDnD.obj
 0001:000138e0       ?QueryInterface@?$IUnknownImpl@UIDropTarget@@@@UEAAJAEBU_GUID@@PEAPEAX@Z 00000001800148e0 f i GlassDnD.obj
 0001:00013940       ?Release@?$IUnknownImpl@UIDropSource@@@@UEAAKXZ 0000000180014940 f i GlassDnD.obj
 0001:00013970       ?SetDragButton@GlassDropSource@@SAJJ@Z 0000000180014970 f   GlassDnD.obj
 0001:00013b30       ?SetSourceSupportedActions@GlassDropTarget@@CAJJ@Z 0000000180014b30 f   GlassDnD.obj
 0001:00013cf0       ?UpdateDnDClipboardData@GlassDropTarget@@IEAAJPEAUIDataObject@@@Z 0000000180014cf0 f   GlassDnD.obj
 0001:00013e90       ??0GlassInputTextInfo@@QEAA@QEAVViewContainer@@@Z 0000000180014e90 f   GlassInputTextInfo.obj
 0001:00013ec0       ??1GlassInputTextInfo@@QEAA@XZ 0000000180014ec0 f   GlassInputTextInfo.obj
 0001:00013f50       ?GetAttributeInfo@GlassInputTextInfo@@QEAAHAEAPEAHAEAPEAE@Z 0000000180014f50 f   GlassInputTextInfo.obj
 0001:000143b0       ?GetClauseInfo@GlassInputTextInfo@@QEAAHAEAPEAH@Z 00000001800153b0 f   GlassInputTextInfo.obj
 0001:00014600       ?GetCommittedTextLength@GlassInputTextInfo@@QEBAHXZ 0000000180015600 f   GlassInputTextInfo.obj
 0001:00014630       ?GetContextData@GlassInputTextInfo@@QEAAHPEAUHIMC__@@_J@Z 0000000180015630 f   GlassInputTextInfo.obj
 0001:00014950       ?GetCursorPosition@GlassInputTextInfo@@QEBAHXZ 0000000180015950 f   GlassInputTextInfo.obj
 0001:00014960       ?CallStaticBooleanMethod@JNIEnv_@@QEAAEPEAV_jclass@@PEAU_jmethodID@@ZZ 0000000180015960 f i GlassMenu.obj
 0001:00014990       ?FindItemBySubmenu@@YAHPEAUHMENU__@@0@Z 0000000180015990 f   GlassMenu.obj
 0001:00014a60       ?HandleMenuCommand@@YA_NPEAUHWND__@@G@Z 0000000180015a60 f   GlassMenu.obj
 0001:00014b00       Java_com_sun_glass_ui_win_WinMenuImpl__1checkItem 0000000180015b00 f   GlassMenu.obj
 0001:00014b60       Java_com_sun_glass_ui_win_WinMenuImpl__1create 0000000180015b60 f   GlassMenu.obj
 0001:00014b70       Java_com_sun_glass_ui_win_WinMenuImpl__1destroy 0000000180015b70 f   GlassMenu.obj
 0001:00014c40       Java_com_sun_glass_ui_win_WinMenuImpl__1enableItem 0000000180015c40 f   GlassMenu.obj
 0001:00014ca0       Java_com_sun_glass_ui_win_WinMenuImpl__1enableSubmenu 0000000180015ca0 f   GlassMenu.obj
 0001:00014d10       Java_com_sun_glass_ui_win_WinMenuImpl__1initIDs 0000000180015d10 f   GlassMenu.obj
 0001:00014d60       Java_com_sun_glass_ui_win_WinMenuImpl__1insertItem 0000000180015d60 f   GlassMenu.obj
 0001:00014ee0       Java_com_sun_glass_ui_win_WinMenuImpl__1insertSeparator 0000000180015ee0 f   GlassMenu.obj
 0001:00014f40       Java_com_sun_glass_ui_win_WinMenuImpl__1insertSubmenu 0000000180015f40 f   GlassMenu.obj
 0001:000150a0       Java_com_sun_glass_ui_win_WinMenuImpl__1removeAtPos 00000001800160a0 f   GlassMenu.obj
 0001:000150f0       Java_com_sun_glass_ui_win_WinMenuImpl__1setItemTitle 00000001800160f0 f   GlassMenu.obj
 0001:00015230       Java_com_sun_glass_ui_win_WinMenuImpl__1setSubmenuTitle 0000000180016230 f   GlassMenu.obj
 0001:00015380       ?CallStaticVoidMethod@JNIEnv_@@QEAAXPEAV_jclass@@PEAU_jmethodID@@ZZ 0000000180016380 f i GlassScreen.obj
 0001:000153b0       ?CollectMonitorsCallback@@YAHPEAUHMONITOR__@@PEAUHDC__@@PEAUtagRECT@@_J@Z 00000001800163b0 f   GlassScreen.obj
 0001:000153f0       ?CountMonitorsCallback@@YAHPEAUHMONITOR__@@PEAUHDC__@@PEAUtagRECT@@_J@Z 00000001800163f0 f   GlassScreen.obj
 0001:00015400       ?CreateJavaMonitorFromMIS@@YAPEAV_jobject@@PEAUJNIEnv_@@PEAUMonitorInfoStruct@@@Z 0000000180016400 f   GlassScreen.obj
 0001:00015560       ?CreateJavaScreens@GlassScreen@@SAPEAV_jobjectArray@@PEAUJNIEnv_@@@Z 0000000180016560 f   GlassScreen.obj
 0001:00015c30       ?FX2Win@GlassScreen@@SAHPEAM0@Z 0000000180016c30 f   GlassScreen.obj
 0001:00016070       ?GetJavaMonitor@GlassScreen@@SAPEAV_jobject@@PEAUJNIEnv_@@PEAUHMONITOR__@@@Z 0000000180017070 f   GlassScreen.obj
 0001:00016160       ?GetMonitorSettings@@YAXPEAUHMONITOR__@@PEAUMonitorInfoStruct@@@Z 0000000180017160 f   GlassScreen.obj
 0001:00016470       ?GetScreenCls@@YAPEAV_jclass@@PEAUJNIEnv_@@@Z 0000000180017470 f   GlassScreen.obj
 0001:000164d0       ?HandleDisplayChange@GlassScreen@@SAXXZ 00000001800174d0 f   GlassScreen.obj
 0001:00016550       ?LoadDPIFuncs@GlassScreen@@SAXJ@Z 0000000180017550 f   GlassScreen.obj
 0001:000166c0       ?Win2FX@GlassScreen@@SAHPEAM0@Z 00000001800176c0 f   GlassScreen.obj
 0001:00016b00       ?anchorTo@@YAXPEAUMonitorInfoStruct@@JEJEJ@Z 0000000180017b00 f   GlassScreen.obj
 0001:00016cd0       ??_EGlassTextRangeProvider@@EEAAPEAXI@Z 0000000180017cd0 f i GlassTextRangeProvider.obj
 0001:00016cd0       ??_GGlassTextRangeProvider@@EEAAPEAXI@Z 0000000180017cd0 f i GlassTextRangeProvider.obj
 0001:00016d40       ?AddToSelection@GlassTextRangeProvider@@UEAAJXZ 0000000180017d40 f   GlassTextRangeProvider.obj
 0001:00016da0       ?Clone@GlassTextRangeProvider@@UEAAJPEAPEAUITextRangeProvider@@@Z 0000000180017da0 f   GlassTextRangeProvider.obj
 0001:00016e10       ?Compare@GlassTextRangeProvider@@UEAAJPEAUITextRangeProvider@@PEAH@Z 0000000180017e10 f   GlassTextRangeProvider.obj
 0001:00016eb0       ?CompareEndpoints@GlassTextRangeProvider@@UEAAJW4TextPatternRangeEndpoint@@PEAUITextRangeProvider@@0PEAH@Z 0000000180017eb0 f   GlassTextRangeProvider.obj
 0001:00016f60       ?ExpandToEnclosingUnit@GlassTextRangeProvider@@UEAAJW4TextUnit@@@Z 0000000180017f60 f   GlassTextRangeProvider.obj
 0001:00016fd0       ?FindAttribute@GlassTextRangeProvider@@UEAAJHUtagVARIANT@@HPEAPEAUITextRangeProvider@@@Z 0000000180017fd0 f   GlassTextRangeProvider.obj
 0001:00017060       ?FindText@GlassTextRangeProvider@@UEAAJPEA_WHHPEAPEAUITextRangeProvider@@@Z 0000000180018060 f   GlassTextRangeProvider.obj
 0001:00017110       ?GetAttributeValue@GlassTextRangeProvider@@UEAAJHPEAUtagVARIANT@@@Z 0000000180018110 f   GlassTextRangeProvider.obj
 0001:00017190       ?GetBoundingRectangles@GlassTextRangeProvider@@UEAAJPEAPEAUtagSAFEARRAY@@@Z 0000000180018190 f   GlassTextRangeProvider.obj
 0001:00017210       ?GetChildren@GlassTextRangeProvider@@UEAAJPEAPEAUtagSAFEARRAY@@@Z 0000000180018210 f   GlassTextRangeProvider.obj
 0001:00017290       ?GetEnclosingElement@GlassTextRangeProvider@@UEAAJPEAPEAUIRawElementProviderSimple@@@Z 0000000180018290 f   GlassTextRangeProvider.obj
 0001:00017310       ?GetText@GlassTextRangeProvider@@UEAAJHPEAPEA_W@Z 0000000180018310 f   GlassTextRangeProvider.obj
 0001:00017390       ?Move@GlassTextRangeProvider@@UEAAJW4TextUnit@@HPEAH@Z 0000000180018390 f   GlassTextRangeProvider.obj
 0001:00017410       ?MoveEndpointByRange@GlassTextRangeProvider@@UEAAJW4TextPatternRangeEndpoint@@PEAUITextRangeProvider@@0@Z 0000000180018410 f   GlassTextRangeProvider.obj
 0001:000174b0       ?MoveEndpointByUnit@GlassTextRangeProvider@@UEAAJW4TextPatternRangeEndpoint@@W4TextUnit@@HPEAH@Z 00000001800184b0 f   GlassTextRangeProvider.obj
 0001:00017540       ?QueryInterface@GlassTextRangeProvider@@UEAAJAEBU_GUID@@PEAPEAX@Z 0000000180018540 f   GlassTextRangeProvider.obj
 0001:000175a0       ?Release@GlassTextRangeProvider@@UEAAKXZ 00000001800185a0 f   GlassTextRangeProvider.obj
 0001:000175d0       ?RemoveFromSelection@GlassTextRangeProvider@@UEAAJXZ 00000001800185d0 f   GlassTextRangeProvider.obj
 0001:00017630       ?ScrollIntoView@GlassTextRangeProvider@@UEAAJH@Z 0000000180018630 f   GlassTextRangeProvider.obj
 0001:000176a0       ?Select@GlassTextRangeProvider@@UEAAJXZ 00000001800186a0 f   GlassTextRangeProvider.obj
 0001:00017700       Java_com_sun_glass_ui_win_WinTextRangeProvider__1createTextRangeProvider 0000000180018700 f   GlassTextRangeProvider.obj
 0001:000177a0       Java_com_sun_glass_ui_win_WinTextRangeProvider__1initIDs 00000001800187a0 f   GlassTextRangeProvider.obj
 0001:00017ba0       ??1?$JArray@C@@QEAA@XZ     0000000180018ba0 f i GlassView.obj
 0001:00017ba0       ??1?$JArray@J@@QEAA@XZ     0000000180018ba0 f i GlassView.obj
 0001:00017c20       ??1?$JBufferArray@C@@QEAA@XZ 0000000180018c20 f i GlassView.obj
 0001:00017c20       ??1?$JBufferArray@J@@QEAA@XZ 0000000180018c20 f i GlassView.obj
 0001:00017ca0       ??1Pixels@@QEAA@XZ         0000000180018ca0 f i GlassView.obj
 0001:00017d70       ??_GGlassView@@UEAAPEAXI@Z 0000000180018d70 f i GlassView.obj
 0001:00017d70       ??_EGlassView@@UEAAPEAXI@Z 0000000180018d70 f i GlassView.obj
 0001:00018510       ?SetHostHwnd@GlassView@@QEAAXPEAUHWND__@@@Z 0000000180019510 f   GlassView.obj
 0001:000185b0       Java_com_sun_glass_ui_win_WinView__1close 00000001800195b0 f   GlassView.obj
 0001:000185e0       Java_com_sun_glass_ui_win_WinView__1create 00000001800195e0 f   GlassView.obj
 0001:00018650       Java_com_sun_glass_ui_win_WinView__1enableInputMethodEvents 0000000180019650 f   GlassView.obj
 0001:00018660       Java_com_sun_glass_ui_win_WinView__1enterFullscreen 0000000180019660 f   GlassView.obj
 0001:000186a0       Java_com_sun_glass_ui_win_WinView__1exitFullscreen 00000001800196a0 f   GlassView.obj
 0001:000186d0       Java_com_sun_glass_ui_win_WinView__1finishInputMethodComposition 00000001800196d0 f   GlassView.obj
 0001:00018720       Java_com_sun_glass_ui_win_WinView__1getMultiClickMaxX_1impl 0000000180019720 f   GlassView.obj
 0001:00018730       Java_com_sun_glass_ui_win_WinView__1getMultiClickMaxY_1impl 0000000180019730 f   GlassView.obj
 0001:00018740       Java_com_sun_glass_ui_win_WinView__1getMultiClickTime_1impl 0000000180019740 f   GlassView.obj
 0001:00018760       Java_com_sun_glass_ui_win_WinView__1getNativeView 0000000180019760 f   GlassView.obj
 0001:00018770       Java_com_sun_glass_ui_win_WinView__1getX 0000000180019770 f   GlassView.obj
 0001:000187a0       Java_com_sun_glass_ui_win_WinView__1getY 00000001800197a0 f   GlassView.obj
 0001:000187d0       Java_com_sun_glass_ui_win_WinView__1initIDs 00000001800197d0 f   GlassView.obj
 0001:00018b90       Java_com_sun_glass_ui_win_WinView__1scheduleRepaint 0000000180019b90 f   GlassView.obj
 0001:00018bc0       Java_com_sun_glass_ui_win_WinView__1setParent 0000000180019bc0 f   GlassView.obj
 0001:00018bf0       Java_com_sun_glass_ui_win_WinView__1uploadPixels 0000000180019bf0 f   GlassView.obj
 0001:00018c90       ??0GlassWindow@@QEAA@PEAV_jobject@@_N111PEAUHWND__@@@Z 0000000180019c90 f   GlassWindow.obj
 0001:00018e30       ??_GGlassWindow@@UEAAPEAXI@Z 0000000180019e30 f i GlassWindow.obj
 0001:00018e30       ??_EGlassWindow@@UEAAPEAXI@Z 0000000180019e30 f i GlassWindow.obj
 0001:00018fc0       ?CBTFilter@GlassWindow@@CA_JH_K_J@Z 0000000180019fc0 f   GlassWindow.obj
 0001:00019050       ?Create@GlassWindow@@QEAAPEAUHWND__@@KKPEAUHMONITOR__@@PEAU2@@Z 000000018001a050 f   GlassWindow.obj
 0001:00019de0       ?EnterFullScreenMode@GlassWindow@@UEAAHPEAVGlassView@@HH@Z 000000018001ade0 f   GlassWindow.obj
 0001:0001a060       ?ExitFullScreenMode@GlassWindow@@UEAAXH@Z 000000018001b060 f   GlassWindow.obj
 0001:0001a160       ?GetWindowClassNameSuffix@GlassWindow@@MEAAPEB_WXZ 000000018001b160 f   GlassWindow.obj
 0001:0001a170       ?HandleActivateEvent@GlassWindow@@QEAAXJ@Z 000000018001b170 f   GlassWindow.obj
 0001:0001a1d0       ?HandleCloseEvent@GlassWindow@@QEAAXXZ 000000018001b1d0 f   GlassWindow.obj
 0001:0001a210       ?HandleFocusDisabledEvent@GlassWindow@@AEAAXXZ 000000018001b210 f   GlassWindow.obj
 0001:0001a250       ?HandleMoveEvent@GlassWindow@@AEAAXPEAUtagRECT@@@Z 000000018001b250 f   GlassWindow.obj
 0001:0001a2e0       ?HandleSizeEvent@GlassWindow@@AEAAXHPEAUtagRECT@@@Z 000000018001b2e0 f   GlassWindow.obj
 0001:0001a380       ?HandleWindowPosChangedEvent@GlassWindow@@QEAAXXZ 000000018001b380 f   GlassWindow.obj
 0001:0001a400       __acrt_thread_detach       000000018001b400 f i MSVCRT:ucrt_stubs.obj
 0001:0001a400       __scrt_stub_for_acrt_uninitialize_critical 000000018001b400 f i MSVCRT:ucrt_stubs.obj
 0001:0001a400       __acrt_uninitialize        000000018001b400 f i MSVCRT:ucrt_stubs.obj
 0001:0001a400       __vcrt_thread_attach       000000018001b400 f i MSVCRT:ucrt_stubs.obj
 0001:0001a400       __scrt_stub_for_acrt_thread_detach 000000018001b400 f i MSVCRT:ucrt_stubs.obj
 0001:0001a400       __vcrt_initialize          000000018001b400 f i MSVCRT:ucrt_stubs.obj
 0001:0001a400       __vcrt_uninitialize        000000018001b400 f i MSVCRT:ucrt_stubs.obj
 0001:0001a400       __acrt_uninitialize_critical 000000018001b400 f i MSVCRT:ucrt_stubs.obj
 0001:0001a400       __vcrt_uninitialize_critical 000000018001b400 f i MSVCRT:ucrt_stubs.obj
 0001:0001a400       __scrt_stub_for_acrt_uninitialize 000000018001b400 f i MSVCRT:ucrt_stubs.obj
 0001:0001a400       ?IsGlassWindow@GlassWindow@@UEAA_NXZ 000000018001b400 f i GlassWindow.obj
 0001:0001a400       __vcrt_thread_detach       000000018001b400 f i MSVCRT:ucrt_stubs.obj
 0001:0001a400       __acrt_initialize          000000018001b400 f i MSVCRT:ucrt_stubs.obj
 0001:0001a400       __scrt_stub_for_acrt_thread_attach 000000018001b400 f i MSVCRT:ucrt_stubs.obj
 0001:0001a400       __acrt_thread_attach       000000018001b400 f i MSVCRT:ucrt_stubs.obj
 0001:0001a400       __scrt_stub_for_acrt_initialize 000000018001b400 f i MSVCRT:ucrt_stubs.obj
 0001:0001a410       ?RequestFocus@GlassWindow@@QEAA_NJ@Z 000000018001b410 f   GlassWindow.obj
 0001:0001a4d0       ?ResetGrab@GlassWindow@@SAXXZ 000000018001b4d0 f   GlassWindow.obj
 0001:0001a510       ?SetDelegateWindow@GlassWindow@@QEAAXPEAUHWND__@@@Z 000000018001b510 f   GlassWindow.obj
 0001:0001a5e0       ?UngrabFocus@GlassWindow@@QEAAXXZ 000000018001b5e0 f   GlassWindow.obj
 0001:0001a650       ?WindowProc@GlassWindow@@MEAA_JI_K_J@Z 000000018001b650 f   GlassWindow.obj
 0001:0001b560       Java_com_sun_glass_ui_win_WinWindow__1close 000000018001c560 f   GlassWindow.obj
 0001:0001b590       Java_com_sun_glass_ui_win_WinWindow__1createChildWindow 000000018001c590 f   GlassWindow.obj
 0001:0001b650       Java_com_sun_glass_ui_win_WinWindow__1createWindow 000000018001c650 f   GlassWindow.obj
 0001:0001b720       Java_com_sun_glass_ui_win_WinWindow__1getEmbeddedX 000000018001c720 f   GlassWindow.obj
 0001:0001b750       Java_com_sun_glass_ui_win_WinWindow__1getEmbeddedY 000000018001c750 f   GlassWindow.obj
 0001:0001b780       Java_com_sun_glass_ui_win_WinWindow__1grabFocus 000000018001c780 f   GlassWindow.obj
 0001:0001b7b0       Java_com_sun_glass_ui_win_WinWindow__1initIDs 000000018001c7b0 f   GlassWindow.obj
 0001:0001b9f0       Java_com_sun_glass_ui_win_WinWindow__1maximize 000000018001c9f0 f   GlassWindow.obj
 0001:0001ba20       Java_com_sun_glass_ui_win_WinWindow__1minimize 000000018001ca20 f   GlassWindow.obj
 0001:0001ba50       Java_com_sun_glass_ui_win_WinWindow__1requestFocus 000000018001ca50 f   GlassWindow.obj
 0001:0001ba80       Java_com_sun_glass_ui_win_WinWindow__1setAlpha 000000018001ca80 f   GlassWindow.obj
 0001:0001bac0       Java_com_sun_glass_ui_win_WinWindow__1setBackground 000000018001cac0 f   GlassWindow.obj
 0001:0001bb10       Java_com_sun_glass_ui_win_WinWindow__1setBounds 000000018001cb10 f   GlassWindow.obj
 0001:0001bb90       Java_com_sun_glass_ui_win_WinWindow__1setCursor 000000018001cb90 f   GlassWindow.obj
 0001:0001bc30       Java_com_sun_glass_ui_win_WinWindow__1setEnabled 000000018001cc30 f   GlassWindow.obj
 0001:0001bc60       Java_com_sun_glass_ui_win_WinWindow__1setFocusable 000000018001cc60 f   GlassWindow.obj
 0001:0001bc90       Java_com_sun_glass_ui_win_WinWindow__1setIcon 000000018001cc90 f   GlassWindow.obj
 0001:0001bd40       Java_com_sun_glass_ui_win_WinWindow__1setLevel 000000018001cd40 f   GlassWindow.obj
 0001:0001bd90       Java_com_sun_glass_ui_win_WinWindow__1setMaximumSize 000000018001cd90 f   GlassWindow.obj
 0001:0001bdd0       Java_com_sun_glass_ui_win_WinWindow__1setMenubar 000000018001cdd0 f   GlassWindow.obj
 0001:0001be00       Java_com_sun_glass_ui_win_WinWindow__1setMinimumSize 000000018001ce00 f   GlassWindow.obj
 0001:0001be50       Java_com_sun_glass_ui_win_WinWindow__1setResizable 000000018001ce50 f   GlassWindow.obj
 0001:0001be80       Java_com_sun_glass_ui_win_WinWindow__1setTitle 000000018001ce80 f   GlassWindow.obj
 0001:0001bf40       Java_com_sun_glass_ui_win_WinWindow__1setView 000000018001cf40 f   GlassWindow.obj
 0001:0001bfa0       Java_com_sun_glass_ui_win_WinWindow__1setVisible 000000018001cfa0 f   GlassWindow.obj
 0001:0001bfe0       Java_com_sun_glass_ui_win_WinWindow__1toBack 000000018001cfe0 f   GlassWindow.obj
 0001:0001c010       Java_com_sun_glass_ui_win_WinWindow__1toFront 000000018001d010 f   GlassWindow.obj
 0001:0001c040       Java_com_sun_glass_ui_win_WinWindow__1ungrabFocus 000000018001d040 f   GlassWindow.obj
 0001:0001c070       ?IsExtendedKey@@YAHI@Z     000000018001d070 f   KeyTable.obj
 0001:0001c120       ?JavaKeyToWindowsKey@@YAXJAEAI0@Z 000000018001d120 f   KeyTable.obj
 0001:0001c170       ?WindowsKeyToJavaKey@@YAJI@Z 000000018001d170 f   KeyTable.obj
 0001:0001c1a0       Java_com_sun_glass_ui_win_WinApplication__1getKeyCodeForChar 000000018001d1a0 f   KeyTable.obj
 0001:0001c240       ??0ManipulationEventSink@@QEAA@PEAUIInertiaProcessor@@PEAVViewContainer@@PEAUHWND__@@@Z 000000018001d240 f   ManipulationEvents.obj
 0001:0001c2f0       ??0ManipulationEventSink@@QEAA@PEAUIManipulationProcessor@@PEAVViewContainer@@PEAUHWND__@@@Z 000000018001d2f0 f   ManipulationEvents.obj
 0001:0001c3a0       ??1?$IUnknownImpl@U_IManipulationEvents@@@@UEAA@XZ 000000018001d3a0 f i ManipulationEvents.obj
 0001:0001c3a0       ??1ManipulationEventSink@@UEAA@XZ 000000018001d3a0 f i ManipulationEvents.obj
 0001:0001c3b0       ??_E?$IUnknownImpl@U_IManipulationEvents@@@@UEAAPEAXI@Z 000000018001d3b0 f i ManipulationEvents.obj
 0001:0001c3b0       ??_G?$IUnknownImpl@U_IManipulationEvents@@@@UEAAPEAXI@Z 000000018001d3b0 f i ManipulationEvents.obj
 0001:0001c3e0       ??_EManipulationEventSink@@UEAAPEAXI@Z 000000018001d3e0 f i ManipulationEvents.obj
 0001:0001c3e0       ??_GManipulationEventSink@@UEAAPEAXI@Z 000000018001d3e0 f i ManipulationEvents.obj
 0001:0001c410       ?ManipulationCompleted@ManipulationEventSinkWithInertia@@UEAAJMMMMMMM@Z 000000018001d410 f   ManipulationEvents.obj
 0001:0001c430       ?ManipulationDelta@ManipulationEventSink@@UEAAJMMMMMMMMMMMM@Z 000000018001d430 f   ManipulationEvents.obj
 0001:0001c500       ?ManipulationStarted@ManipulationEventSinkWithInertia@@UEAAJMM@Z 000000018001d500 f   ManipulationEvents.obj
 0001:0001c520       ?QueryInterface@?$IUnknownImpl@U_IManipulationEvents@@@@UEAAJAEBU_GUID@@PEAPEAX@Z 000000018001d520 f i ManipulationEvents.obj
 0001:0001c580       ?Release@?$IUnknownImpl@U_IManipulationEvents@@@@UEAAKXZ 000000018001d580 f i ManipulationEvents.obj
 0001:0001c5b0       ??0Bitmap@@QEAA@HHPEAPEAXPEAUHDC__@@@Z 000000018001d5b0 f   Pixels.obj
 0001:0001c6c0       ??0DIBitmap@@QEAA@AEAVPixels@@@Z 000000018001d6c0 f   Pixels.obj
 0001:0001c7c0       ??0Pixels@@QEAA@PEAUJNIEnv_@@PEAV_jobject@@@Z 000000018001d7c0 f   Pixels.obj
 0001:0001c830       ?CreateIcon@Pixels@@SAPEAUHICON__@@PEAUJNIEnv_@@PEAV_jobject@@HJJ@Z 000000018001d830 f   Pixels.obj
 0001:0001ca40       ?GetBits@Pixels@@QEAAPEAXXZ 000000018001da40 f   Pixels.obj
 0001:0001cb20       ?GetGlobalDIB@BaseBitmap@@QEAAPEAXXZ 000000018001db20 f   Pixels.obj
 0001:0001cc60       Java_com_sun_glass_ui_win_WinPixels__1attachByte 000000018001dc60 f   Pixels.obj
 0001:0001ccc0       Java_com_sun_glass_ui_win_WinPixels__1attachInt 000000018001dcc0 f   Pixels.obj
 0001:0001cd20       Java_com_sun_glass_ui_win_WinPixels__1fillDirectByteBuffer 000000018001dd20 f   Pixels.obj
 0001:0001cde0       Java_com_sun_glass_ui_win_WinPixels__1initIDs 000000018001dde0 f   Pixels.obj
 0001:0001ceb0       GetScreenCapture           000000018001deb0 f   Robot.obj
 0001:0001d0d0       Java_com_sun_glass_ui_win_WinRobot__1getMouseX 000000018001e0d0 f   Robot.obj
 0001:0001d130       Java_com_sun_glass_ui_win_WinRobot__1getMouseY 000000018001e130 f   Robot.obj
 0001:0001d190       Java_com_sun_glass_ui_win_WinRobot__1getPixelColor 000000018001e190 f   Robot.obj
 0001:0001d220       Java_com_sun_glass_ui_win_WinRobot__1getScreenCapture 000000018001e220 f   Robot.obj
 0001:0001d3b0       Java_com_sun_glass_ui_win_WinRobot__1keyPress 000000018001e3b0 f   Robot.obj
 0001:0001d3c0       Java_com_sun_glass_ui_win_WinRobot__1keyRelease 000000018001e3c0 f   Robot.obj
 0001:0001d3d0       Java_com_sun_glass_ui_win_WinRobot__1mouseMove 000000018001e3d0 f   Robot.obj
 0001:0001d500       Java_com_sun_glass_ui_win_WinRobot__1mousePress 000000018001e500 f   Robot.obj
 0001:0001d5c0       Java_com_sun_glass_ui_win_WinRobot__1mouseRelease 000000018001e5c0 f   Robot.obj
 0001:0001d670       Java_com_sun_glass_ui_win_WinRobot__1mouseWheel 000000018001e670 f   Robot.obj
 0001:0001d6a0       ??1Timer@@UEAA@XZ          000000018001e6a0 f i Timer.obj
 0001:0001d6e0       ??_ERunnableTimer@@UEAAPEAXI@Z 000000018001e6e0 f i Timer.obj
 0001:0001d6e0       ??_GRunnableTimer@@UEAAPEAXI@Z 000000018001e6e0 f i Timer.obj
 0001:0001d780       ??_ETimer@@UEAAPEAXI@Z     000000018001e780 f i Timer.obj
 0001:0001d780       ??_GTimer@@UEAAPEAXI@Z     000000018001e780 f i Timer.obj
 0001:0001d7e0       ?InitTC@Timer@@CA_NXZ      000000018001e7e0 f i Timer.obj
 0001:0001d850       ?Start@RunnableTimer@@SA_JPEAV_jobject@@J@Z 000000018001e850 f i Timer.obj
 0001:0001d990       ?StaticTimeCallback@Timer@@CAXII_K00@Z 000000018001e990 f i Timer.obj
 0001:0001d9a0       ?TimerCallback@RunnableTimer@@UEAAXXZ 000000018001e9a0 f i Timer.obj
 0001:0001da20       Java_com_sun_glass_ui_win_WinTimer__1getMaxPeriod 000000018001ea20 f   Timer.obj
 0001:0001da40       Java_com_sun_glass_ui_win_WinTimer__1getMinPeriod 000000018001ea40 f   Timer.obj
 0001:0001da60       Java_com_sun_glass_ui_win_WinTimer__1start 000000018001ea60 f   Timer.obj
 0001:0001da70       Java_com_sun_glass_ui_win_WinTimer__1stop 000000018001ea70 f   Timer.obj
 0001:0001da90       ?CheckAndClearException@@YAEPEAUJNIEnv_@@@Z 000000018001ea90 f   Utils.obj
 0001:0001db70       ?GetEnv@@YAPEAUJNIEnv_@@XZ 000000018001eb70 f   Utils.obj
 0001:0001dba0       ?GetJVM@@YAPEAUJavaVM_@@XZ 000000018001eba0 f   Utils.obj
 0001:0001dbb0       ?GetModifiers@@YAJXZ       000000018001ebb0 f   Utils.obj
 0001:0001dc90       JNI_OnLoad                 000000018001ec90 f   Utils.obj
 0001:0001dcc0       ??$_Resize@V<lambda_a9b804bd1df033981f51d8cd70da6946>@@@?$vector@UtagTOUCHINPUT@@V?$allocator@UtagTOUCHINPUT@@@std@@@std@@AEAAX_KV<lambda_a9b804bd1df033981f51d8cd70da6946>@@@Z 000000018001ecc0 f i ViewContainer.obj
 0001:0001df00       ??0ViewContainer@@QEAA@XZ  000000018001ef00 f   ViewContainer.obj
 0001:0001df90       ??_EManipulationEventSinkWithInertia@@UEAAPEAXI@Z 000000018001ef90 f i ViewContainer.obj
 0001:0001df90       ??_GManipulationEventSinkWithInertia@@UEAAPEAXI@Z 000000018001ef90 f i ViewContainer.obj
 0001:0001dff0       ?GetView@ViewContainer@@QEAAPEAV_jobject@@XZ 000000018001eff0 f   ViewContainer.obj
 0001:0001e000       ?HandleViewDeadKeyEvent@ViewContainer@@IEAAXPEAUHWND__@@I_K_J@Z 000000018001f000 f   ViewContainer.obj
 0001:0001e0a0       ?HandleViewGetAccessible@ViewContainer@@IEAA_JPEAUHWND__@@_K_J@Z 000000018001f0a0 f   ViewContainer.obj
 0001:0001e1b0       ?HandleViewInputLangChange@ViewContainer@@IEAAXPEAUHWND__@@I_K_J@Z 000000018001f1b0 f   ViewContainer.obj
 0001:0001e1f0       ?HandleViewInputMethodEvent@ViewContainer@@IEAAHPEAUHWND__@@I_K_J@Z 000000018001f1f0 f   ViewContainer.obj
 0001:0001e400       ?HandleViewKeyEvent@ViewContainer@@IEAAXPEAUHWND__@@I_K_J@Z 000000018001f400 f   ViewContainer.obj
 0001:0001eb90       ?HandleViewMenuEvent@ViewContainer@@IEAAXPEAUHWND__@@I_K_J@Z 000000018001fb90 f   ViewContainer.obj
 0001:0001ed00       ?HandleViewMouseEvent@ViewContainer@@IEAAHPEAUHWND__@@I_K_J@Z 000000018001fd00 f   ViewContainer.obj
 0001:0001f2d0       ?HandleViewPaintEvent@ViewContainer@@IEAAXPEAUHWND__@@I_K_J@Z 00000001800202d0 f   ViewContainer.obj
 0001:0001f380       ?HandleViewSizeEvent@ViewContainer@@IEAAXPEAUHWND__@@I_K_J@Z 0000000180020380 f   ViewContainer.obj
 0001:0001f430       ?HandleViewTimerEvent@ViewContainer@@MEAAXPEAUHWND__@@_K@Z 0000000180020430 f   ViewContainer.obj
 0001:0001f4d0       ?HandleViewTouchEvent@ViewContainer@@QEAAIPEAUHWND__@@I_K_J@Z 00000001800204d0 f   ViewContainer.obj
 0001:0001fb30       ?HandleViewTypedEvent@ViewContainer@@IEAAXPEAUHWND__@@I_K_J@Z 0000000180020b30 f   ViewContainer.obj
 0001:00020070       ?InitDropTarget@ViewContainer@@IEAAXPEAUHWND__@@@Z 0000000180021070 f   ViewContainer.obj
 0001:000200f0       ?InitManipProcessor@ViewContainer@@IEAAXPEAUHWND__@@@Z 00000001800210f0 f   ViewContainer.obj
 0001:000202f0       ?NotifyCaptureChanged@ViewContainer@@IEAAXPEAUHWND__@@0@Z 00000001800212f0 f   ViewContainer.obj
 0001:00020300       ?NotifyGesturePerformed@ViewContainer@@QEAAXPEAUHWND__@@_N1MMMMMMMMMMMM@Z 0000000180021300 f   ViewContainer.obj
 0001:00020760       ?NotifyViewSize@ViewContainer@@QEAAXPEAUHWND__@@@Z 0000000180021760 f   ViewContainer.obj
 0001:00020800       ?ReleaseDropTarget@ViewContainer@@IEAAXXZ 0000000180021800 f   ViewContainer.obj
 0001:00020840       ?ReleaseManipProcessor@ViewContainer@@IEAAXXZ 0000000180021840 f   ViewContainer.obj
 0001:000208e0       ?ResetMouseTracking@ViewContainer@@QEAAXPEAUHWND__@@@Z 00000001800218e0 f   ViewContainer.obj
 0001:00020a60       ?SendInputMethodEvent@ViewContainer@@AEAAXPEAV_jstring@@HPEAHH1PEAEHHH@Z 0000000180021a60 f   ViewContainer.obj
 0001:00020c60       ?SendViewTypedEvent@ViewContainer@@AEAAXHG@Z 0000000180021c60 f   ViewContainer.obj
 0001:00020d60       ?StartTouchInputInertia@ViewContainer@@QEAAXPEAUHWND__@@@Z 0000000180021d60 f   ViewContainer.obj
 0001:00020e80       ?StopTouchInputInertia@ViewContainer@@QEAAXPEAUHWND__@@@Z 0000000180021e80 f   ViewContainer.obj
 0001:00020e90       ?WmImeComposition@ViewContainer@@AEAAXPEAUHWND__@@_K_J@Z 0000000180021e90 f   ViewContainer.obj
 0001:00021020       Java_com_sun_glass_ui_win_WinGestureSupport__1initIDs 0000000180022020 f   ViewContainer.obj
 0001:00021110       printf                     0000000180022110 f i ViewContainer.obj
 0001:00021165       __imp_load_CopyStgMedium   0000000180022165 f   urlmon:urlmon.dll
 0001:00021171       CopyStgMedium              0000000180022171 f   urlmon:urlmon.dll
 0001:00021177       __tailMerge_urlmon_dll     0000000180022177     urlmon:urlmon.dll
 0001:000211f0       __imp_load_timeSetEvent    00000001800221f0 f   winmm:WINMM.dll
 0001:000211fc       __tailMerge_winmm_dll      00000001800221fc     winmm:WINMM.dll
 0001:00021275       __imp_load_timeKillEvent   0000000180022275 f   winmm:WINMM.dll
 0001:00021281       __imp_load_timeGetDevCaps  0000000180022281 f   winmm:WINMM.dll
 0001:0002128d       __imp_load_timeBeginPeriod 000000018002228d f   winmm:WINMM.dll
 0001:00021299       __imp_load_timeEndPeriod   0000000180022299 f   winmm:WINMM.dll
 0001:000212a5       ImmGetCompositionStringW   00000001800222a5 f   imm32:IMM32.dll
 0001:000212ab       ImmGetContext              00000001800222ab f   imm32:IMM32.dll
 0001:000212b1       ImmReleaseContext          00000001800222b1 f   imm32:IMM32.dll
 0001:000212b7       ImmNotifyIME               00000001800222b7 f   imm32:IMM32.dll
 0001:000212bd       ImmSetCandidateWindow      00000001800222bd f   imm32:IMM32.dll
 0001:000212c3       __imp_load_SHCreateItemFromParsingName 00000001800222c3 f   shell32:SHELL32.dll
 0001:000212cf       __tailMerge_shell32_dll    00000001800222cf     shell32:SHELL32.dll
 0001:00021348       __imp_load_SHGetPathFromIDListW 0000000180022348 f   shell32:SHELL32.dll
 0001:00021354       __imp_load_SHBrowseForFolderW 0000000180022354 f   shell32:SHELL32.dll
 0001:00021360       __imp_load_SHBindToParent  0000000180022360 f   shell32:SHELL32.dll
 0001:0002136c       __imp_load_UiaClientsAreListening 000000018002236c f   Uiautomationcore:UIAutomationCore.DLL
 0001:00021378       UiaClientsAreListening     0000000180022378 f   Uiautomationcore:UIAutomationCore.DLL
 0001:0002137e       __tailMerge_uiautomationcore_dll 000000018002237e     Uiautomationcore:UIAutomationCore.DLL
 0001:000213f7       __imp_load_UiaRaiseAutomationPropertyChangedEvent 00000001800223f7 f   Uiautomationcore:UIAutomationCore.DLL
 0001:00021403       UiaRaiseAutomationPropertyChangedEvent 0000000180022403 f   Uiautomationcore:UIAutomationCore.DLL
 0001:00021409       __imp_load_UiaRaiseAutomationEvent 0000000180022409 f   Uiautomationcore:UIAutomationCore.DLL
 0001:00021415       UiaRaiseAutomationEvent    0000000180022415 f   Uiautomationcore:UIAutomationCore.DLL
 0001:0002141b       __imp_load_UiaHostProviderFromHwnd 000000018002241b f   Uiautomationcore:UIAutomationCore.DLL
 0001:00021427       UiaHostProviderFromHwnd    0000000180022427 f   Uiautomationcore:UIAutomationCore.DLL
 0001:0002142d       __imp_load_UiaReturnRawElementProvider 000000018002242d f   Uiautomationcore:UIAutomationCore.DLL
 0001:00021439       UiaReturnRawElementProvider 0000000180022439 f   Uiautomationcore:UIAutomationCore.DLL
 0001:0002143f       __imp_load_DwmExtendFrameIntoClientArea 000000018002243f f   dwmapi:dwmapi.dll
 0001:0002144b       __tailMerge_dwmapi_dll     000000018002244b     dwmapi:dwmapi.dll
 0001:000214c4       __imp_load_DwmIsCompositionEnabled 00000001800224c4 f   dwmapi:dwmapi.dll
 0001:000214d0       ?_com_issue_error@@YAXJ@Z  00000001800224d0 f   comsuppw:comsupp.obj
 0001:000214e0       ?ConvertStringToBSTR@_com_util@@YAPEA_WPEBD@Z 00000001800224e0 f   comsuppw:comutil.obj
 0001:000216a0       ??0_com_error@@QEAA@AEBV0@@Z 00000001800226a0 f i comsuppw:comraise.obj
 0001:000216f0       ??0_com_error@@QEAA@JPEAUIErrorInfo@@_N@Z 00000001800226f0 f i comsuppw:comraise.obj
 0001:00021740       ??1_com_error@@UEAA@XZ     0000000180022740 f i comsuppw:comraise.obj
 0001:00021790       ??_G_com_error@@UEAAPEAXI@Z 0000000180022790 f i comsuppw:comraise.obj
 0001:00021790       ??_E_com_error@@UEAAPEAXI@Z 0000000180022790 f i comsuppw:comraise.obj
 0001:000217f0       ?_com_raise_error@@YAXJPEAUIErrorInfo@@@Z 00000001800227f0 f   comsuppw:comraise.obj
 0001:00021818       __imp_load_DefWindowProcW  0000000180022818 f   user32:USER32.dll
 0001:00021824       __tailMerge_user32_dll     0000000180022824     user32:USER32.dll
 0001:0002189d       __imp_load_RegisterClassW  000000018002289d f   user32:USER32.dll
 0001:000218a9       __imp_load_UnregisterClassW 00000001800228a9 f   user32:USER32.dll
 0001:000218b5       __imp_load_RegisterClassExW 00000001800228b5 f   user32:USER32.dll
 0001:000218c1       __imp_load_CreateWindowExW 00000001800228c1 f   user32:USER32.dll
 0001:000218cd       __imp_load_DestroyWindow   00000001800228cd f   user32:USER32.dll
 0001:000218d9       __imp_load_SetPropW        00000001800228d9 f   user32:USER32.dll
 0001:000218e5       __imp_load_GetPropW        00000001800228e5 f   user32:USER32.dll
 0001:000218f1       __imp_load_RemovePropW     00000001800228f1 f   user32:USER32.dll
 0001:000218fd       __imp_load_GetWindowRect   00000001800228fd f   user32:USER32.dll
 0001:00021909       __imp_load_SetCursor       0000000180022909 f   user32:USER32.dll
 0001:00021915       __imp_load_LoadCursorW     0000000180022915 f   user32:USER32.dll
 0001:00021921       __imp_load_SendMessageW    0000000180022921 f   user32:USER32.dll
 0001:0002192d       __imp_load_GetParent       000000018002292d f   user32:USER32.dll
 0001:00021939       __imp_load_GetMessagePos   0000000180022939 f   user32:USER32.dll
 0001:00021945       __imp_load_ShowWindow      0000000180022945 f   user32:USER32.dll
 0001:00021951       __imp_load_SetLayeredWindowAttributes 0000000180022951 f   user32:USER32.dll
 0001:0002195d       __imp_load_SetWindowPos    000000018002295d f   user32:USER32.dll
 0001:00021969       __imp_load_SetFocus        0000000180022969 f   user32:USER32.dll
 0001:00021975       __imp_load_SetTimer        0000000180022975 f   user32:USER32.dll
 0001:00021981       __imp_load_KillTimer       0000000180022981 f   user32:USER32.dll
 0001:0002198d       __imp_load_SetForegroundWindow 000000018002298d f   user32:USER32.dll
 0001:00021999       __imp_load_GetClientRect   0000000180022999 f   user32:USER32.dll
 0001:000219a5       __imp_load_MapWindowPoints 00000001800229a5 f   user32:USER32.dll
 0001:000219b1       __imp_load_CopyRect        00000001800229b1 f   user32:USER32.dll
 0001:000219bd       __imp_load_MonitorFromWindow 00000001800229bd f   user32:USER32.dll
 0001:000219c9       __imp_load_GetMonitorInfoW 00000001800229c9 f   user32:USER32.dll
 0001:000219d5       __imp_load_GetMessageW     00000001800229d5 f   user32:USER32.dll
 0001:000219e1       __imp_load_TranslateMessage 00000001800229e1 f   user32:USER32.dll
 0001:000219ed       __imp_load_DispatchMessageW 00000001800229ed f   user32:USER32.dll
 0001:000219f9       __imp_load_PostMessageW    00000001800229f9 f   user32:USER32.dll
 0001:00021a05       __imp_load_IsWindow        0000000180022a05 f   user32:USER32.dll
 0001:00021a11       __imp_load_SetClipboardViewer 0000000180022a11 f   user32:USER32.dll
 0001:00021a1d       __imp_load_ChangeClipboardChain 0000000180022a1d f   user32:USER32.dll
 0001:00021a29       __imp_load_WindowFromPoint 0000000180022a29 f   user32:USER32.dll
 0001:00021a35       __imp_load_SetWindowsHookExW 0000000180022a35 f   user32:USER32.dll
 0001:00021a41       __imp_load_UnhookWindowsHookEx 0000000180022a41 f   user32:USER32.dll
 0001:00021a4d       __imp_load_CallNextHookEx  0000000180022a4d f   user32:USER32.dll
 0001:00021a59       __imp_load_SystemParametersInfoW 0000000180022a59 f   user32:USER32.dll
 0001:00021a65       __imp_load_GetAncestor     0000000180022a65 f   user32:USER32.dll
 0001:00021a71       __imp_load_PeekMessageW    0000000180022a71 f   user32:USER32.dll
 0001:00021a7d       __imp_load_RegisterClipboardFormatW 0000000180022a7d f   user32:USER32.dll
 0001:00021a89       __imp_load_GetClipboardFormatNameW 0000000180022a89 f   user32:USER32.dll
 0001:00021a95       __imp_load_GetSystemMetrics 0000000180022a95 f   user32:USER32.dll
 0001:00021aa1       __imp_load_ShowCursor      0000000180022aa1 f   user32:USER32.dll
 0001:00021aad       __imp_load_ScreenToClient  0000000180022aad f   user32:USER32.dll
 0001:00021ab9       __imp_load_IsMenu          0000000180022ab9 f   user32:USER32.dll
 0001:00021ac5       __imp_load_CreateMenu      0000000180022ac5 f   user32:USER32.dll
 0001:00021ad1       __imp_load_DestroyMenu     0000000180022ad1 f   user32:USER32.dll
 0001:00021add       __imp_load_CheckMenuItem   0000000180022add f   user32:USER32.dll
 0001:00021ae9       __imp_load_EnableMenuItem  0000000180022ae9 f   user32:USER32.dll
 0001:00021af5       __imp_load_GetMenuItemCount 0000000180022af5 f   user32:USER32.dll
 0001:00021b01       __imp_load_InsertMenuW     0000000180022b01 f   user32:USER32.dll
 0001:00021b0d       __imp_load_RemoveMenu      0000000180022b0d f   user32:USER32.dll
 0001:00021b19       __imp_load_InsertMenuItemW 0000000180022b19 f   user32:USER32.dll
 0001:00021b25       __imp_load_GetMenuItemInfoW 0000000180022b25 f   user32:USER32.dll
 0001:00021b31       __imp_load_SetMenuItemInfoW 0000000180022b31 f   user32:USER32.dll
 0001:00021b3d       __imp_load_EnumDisplayMonitors 0000000180022b3d f   user32:USER32.dll
 0001:00021b49       __imp_load_SetProcessDPIAware 0000000180022b49 f   user32:USER32.dll
 0001:00021b55       __imp_load_GetDoubleClickTime 0000000180022b55 f   user32:USER32.dll
 0001:00021b61       __imp_load_UpdateLayeredWindow 0000000180022b61 f   user32:USER32.dll
 0001:00021b6d       __imp_load_GetDC           0000000180022b6d f   user32:USER32.dll
 0001:00021b79       __imp_load_ReleaseDC       0000000180022b79 f   user32:USER32.dll
 0001:00021b85       __imp_load_InvalidateRect  0000000180022b85 f   user32:USER32.dll
 0001:00021b91       __imp_load_IsWindowVisible 0000000180022b91 f   user32:USER32.dll
 0001:00021b9d       __imp_load_IsIconic        0000000180022b9d f   user32:USER32.dll
 0001:00021ba9       __imp_load_GetFocus        0000000180022ba9 f   user32:USER32.dll
 0001:00021bb5       __imp_load_EnableWindow    0000000180022bb5 f   user32:USER32.dll
 0001:00021bc1       __imp_load_GetMenu         0000000180022bc1 f   user32:USER32.dll
 0001:00021bcd       __imp_load_SetMenu         0000000180022bcd f   user32:USER32.dll
 0001:00021bd9       __imp_load_GetSystemMenu   0000000180022bd9 f   user32:USER32.dll
 0001:00021be5       __imp_load_UpdateWindow    0000000180022be5 f   user32:USER32.dll
 0001:00021bf1       __imp_load_GetForegroundWindow 0000000180022bf1 f   user32:USER32.dll
 0001:00021bfd       __imp_load_SetWindowTextW  0000000180022bfd f   user32:USER32.dll
 0001:00021c09       __imp_load_GetWindowLongW  0000000180022c09 f   user32:USER32.dll
 0001:00021c15       __imp_load_SetWindowLongW  0000000180022c15 f   user32:USER32.dll
 0001:00021c21       __imp_load_GetWindowLongPtrW 0000000180022c21 f   user32:USER32.dll
 0001:00021c2d       __imp_load_SetWindowLongPtrW 0000000180022c2d f   user32:USER32.dll
 0001:00021c39       __imp_load_SetClassLongPtrW 0000000180022c39 f   user32:USER32.dll
 0001:00021c45       __imp_load_SetParent       0000000180022c45 f   user32:USER32.dll
 0001:00021c51       __imp_load_EnumChildWindows 0000000180022c51 f   user32:USER32.dll
 0001:00021c5d       __imp_load_EnumThreadWindows 0000000180022c5d f   user32:USER32.dll
 0001:00021c69       __imp_load_DestroyIcon     0000000180022c69 f   user32:USER32.dll
 0001:00021c75       __imp_load_GetKeyboardLayout 0000000180022c75 f   user32:USER32.dll
 0001:00021c81       __imp_load_VkKeyScanExW    0000000180022c81 f   user32:USER32.dll
 0001:00021c8d       __imp_load_CreateIconIndirect 0000000180022c8d f   user32:USER32.dll
 0001:00021c99       __imp_load_mouse_event     0000000180022c99 f   user32:USER32.dll
 0001:00021ca5       __imp_load_SendInput       0000000180022ca5 f   user32:USER32.dll
 0001:00021cb1       __imp_load_MapVirtualKeyW  0000000180022cb1 f   user32:USER32.dll
 0001:00021cbd       __imp_load_GetCursorPos    0000000180022cbd f   user32:USER32.dll
 0001:00021cc9       __imp_load_GetKeyState     0000000180022cc9 f   user32:USER32.dll
 0001:00021cd5       __imp_load_ToUnicodeEx     0000000180022cd5 f   user32:USER32.dll
 0001:00021ce1       __imp_load_TrackMouseEvent 0000000180022ce1 f   user32:USER32.dll
 0001:00021ced       __imp_load_GetMessageExtraInfo 0000000180022ced f   user32:USER32.dll
 0001:00021cf9       __imp_load_GetKeyboardState 0000000180022cf9 f   user32:USER32.dll
 0001:00021d05       __imp_load_ToAsciiEx       0000000180022d05 f   user32:USER32.dll
 0001:00021d11       __imp_load_GetTouchInputInfo 0000000180022d11 f   user32:USER32.dll
 0001:00021d1d       __imp_load_CloseTouchInputHandle 0000000180022d1d f   user32:USER32.dll
 0001:00021d29       __imp_load_RegisterTouchWindow 0000000180022d29 f   user32:USER32.dll
 0001:00021d35       __imp_load_MapVirtualKeyExW 0000000180022d35 f   user32:USER32.dll
 0001:00021d41       __imp_load_GetCapture      0000000180022d41 f   user32:USER32.dll
 0001:00021d4d       __imp_load_SetCapture      0000000180022d4d f   user32:USER32.dll
 0001:00021d59       __imp_load_ReleaseCapture  0000000180022d59 f   user32:USER32.dll
 0001:00021d65       __imp_load_GetUpdateRect   0000000180022d65 f   user32:USER32.dll
 0001:00021d71       __imp_load_ClientToScreen  0000000180022d71 f   user32:USER32.dll
 0001:00021d7d       __imp_load_ChildWindowFromPointEx 0000000180022d7d f   user32:USER32.dll
 0001:00021d89       __imp_load_PtInRect        0000000180022d89 f   user32:USER32.dll
 0001:00021d95       __imp_load_GetDesktopWindow 0000000180022d95 f   user32:USER32.dll
 0001:00021da1       __imp_load_GetWindowThreadProcessId 0000000180022da1 f   user32:USER32.dll
 0001:00021dad       ?_Xlength_error@std@@YAXPEBD@Z 0000000180022dad f   msvcprt:MSVCP140.dll
 0001:00021db4       ??2@YAPEAX_K@Z             0000000180022db4 f   MSVCRT:new_scalar.obj
 0001:00021df0       ??3@YAXPEAX_K@Z            0000000180022df0 f   MSVCRT:delete_scalar_size.obj
 0001:00021df0       ??_V@YAXPEAX@Z             0000000180022df0 f   MSVCRT:delete_array.obj
 0001:00021df8       __GSHandlerCheck           0000000180022df8 f   MSVCRT:gshandler.obj
 0001:00021e18       __GSHandlerCheckCommon     0000000180022e18 f   MSVCRT:gshandler.obj
 0001:00021e90       __security_check_cookie    0000000180022e90 f   MSVCRT:amdsecgs.obj
 0001:00021eb4       ??_Etype_info@@UEAAPEAXI@Z 0000000180022eb4 f i MSVCRT:std_type_info_static.obj
 0001:00021eb4       ??_Gtype_info@@UEAAPEAXI@Z 0000000180022eb4 f i MSVCRT:std_type_info_static.obj
 0001:00021ee0       ??_U@YAPEAX_K@Z            0000000180022ee0 f   MSVCRT:new_array.obj
 0001:00021ee8       __GSHandlerCheck_EH        0000000180022ee8 f   MSVCRT:gshandlereh.obj
 0001:00021f68       ??2@YAPEAX_KAEBUnothrow_t@std@@@Z 0000000180022f68 f   MSVCRT:new_scalar_nothrow.obj
 0001:00021f88       __scrt_acquire_startup_lock 0000000180022f88 f   MSVCRT:utility.obj
 0001:00021fc4       __scrt_dllmain_after_initialize_c 0000000180022fc4 f   MSVCRT:utility.obj
 0001:00021ff8       __scrt_dllmain_before_initialize_c 0000000180022ff8 f   MSVCRT:utility.obj
 0001:00022010       __scrt_dllmain_crt_thread_attach 0000000180023010 f   MSVCRT:utility.obj
 0001:00022038       __scrt_dllmain_crt_thread_detach 0000000180023038 f   MSVCRT:utility.obj
 0001:00022050       __scrt_dllmain_exception_filter 0000000180023050 f   MSVCRT:utility.obj
 0001:000220b0       __scrt_dllmain_uninitialize_c 00000001800230b0 f   MSVCRT:utility.obj
 0001:000220e0       __scrt_dllmain_uninitialize_critical 00000001800230e0 f   MSVCRT:utility.obj
 0001:000220f4       __scrt_initialize_crt      00000001800230f4 f   MSVCRT:utility.obj
 0001:00022140       __scrt_initialize_onexit_tables 0000000180023140 f   MSVCRT:utility.obj
 0001:00022218       __scrt_is_nonwritable_in_current_image 0000000180023218 f   MSVCRT:utility.obj
 0001:000222b4       __scrt_release_startup_lock 00000001800232b4 f   MSVCRT:utility.obj
 0001:000222d8       __scrt_uninitialize_crt    00000001800232d8 f   MSVCRT:utility.obj
 0001:00022304       _onexit                    0000000180023304 f   MSVCRT:utility.obj
 0001:00022354       atexit                     0000000180023354 f   MSVCRT:utility.obj
 0001:000224f4       _Init_thread_abort         00000001800234f4 f   MSVCRT:thread_safe_statics.obj
 0001:00022524       _Init_thread_footer        0000000180023524 f   MSVCRT:thread_safe_statics.obj
 0001:00022584       _Init_thread_header        0000000180023584 f   MSVCRT:thread_safe_statics.obj
 0001:000225ec       _Init_thread_notify        00000001800235ec f   MSVCRT:thread_safe_statics.obj
 0001:0002263c       _Init_thread_wait          000000018002363c f   MSVCRT:thread_safe_statics.obj
 0001:000229e4       _DllMainCRTStartup         00000001800239e4 f   MSVCRT:dll_dllmain.obj
 0001:00022a24       __GSHandlerCheck_SEH       0000000180023a24 f   MSVCRT:gshandlerseh.obj
 0001:00022ac0       _alloca_probe              0000000180023ac0 f   MSVCRT:chkstk.obj
 0001:00022ac0       __chkstk                   0000000180023ac0 f   MSVCRT:chkstk.obj
 0001:00022b14       ??0bad_alloc@std@@QEAA@AEBV01@@Z 0000000180023b14 f i MSVCRT:throw_bad_alloc.obj
 0001:00022b54       ??0bad_alloc@std@@QEAA@XZ  0000000180023b54 f i MSVCRT:throw_bad_alloc.obj
 0001:00022b74       ??0bad_array_new_length@std@@QEAA@AEBV01@@Z 0000000180023b74 f i MSVCRT:throw_bad_alloc.obj
 0001:00022bb4       ??0bad_array_new_length@std@@QEAA@XZ 0000000180023bb4 f i MSVCRT:throw_bad_alloc.obj
 0001:00022bd4       ??0exception@std@@QEAA@AEBV01@@Z 0000000180023bd4 f i MSVCRT:throw_bad_alloc.obj
 0001:00022c0c       ??1bad_array_new_length@std@@UEAA@XZ 0000000180023c0c f i MSVCRT:throw_bad_alloc.obj
 0001:00022c0c       ??1bad_alloc@std@@UEAA@XZ  0000000180023c0c f i MSVCRT:throw_bad_alloc.obj
 0001:00022c20       ??_Gbad_array_new_length@std@@UEAAPEAXI@Z 0000000180023c20 f i MSVCRT:throw_bad_alloc.obj
 0001:00022c20       ??_Gbad_alloc@std@@UEAAPEAXI@Z 0000000180023c20 f i MSVCRT:throw_bad_alloc.obj
 0001:00022c20       ??_Gexception@std@@UEAAPEAXI@Z 0000000180023c20 f i MSVCRT:throw_bad_alloc.obj
 0001:00022c20       ??_Ebad_array_new_length@std@@UEAAPEAXI@Z 0000000180023c20 f i MSVCRT:throw_bad_alloc.obj
 0001:00022c20       ??_Ebad_alloc@std@@UEAAPEAXI@Z 0000000180023c20 f i MSVCRT:throw_bad_alloc.obj
 0001:00022c20       ??_Eexception@std@@UEAAPEAXI@Z 0000000180023c20 f i MSVCRT:throw_bad_alloc.obj
 0001:00022c64       ?__scrt_throw_std_bad_alloc@@YAXXZ 0000000180023c64 f   MSVCRT:throw_bad_alloc.obj
 0001:00022c84       ?__scrt_throw_std_bad_array_new_length@@YAXXZ 0000000180023c84 f   MSVCRT:throw_bad_alloc.obj
 0001:00022ca4       ?what@exception@std@@UEBAPEBDXZ 0000000180023ca4 f i MSVCRT:throw_bad_alloc.obj
 0001:00022cb8       ??3@YAXPEAX@Z              0000000180023cb8 f   MSVCRT:delete_scalar.obj
 0001:00022cc0       __raise_securityfailure    0000000180023cc0 f   MSVCRT:gs_report.obj
 0001:00022cf4       __report_gsfailure         0000000180023cf4 f   MSVCRT:gs_report.obj
 0001:00022e3c       __isa_available_init       0000000180023e3c f   MSVCRT:cpu_disp.obj
 0001:00022ff8       _get_startup_argv_mode     0000000180023ff8 f   MSVCRT:argv_mode.obj
 0001:00023000       __scrt_is_ucrt_dll_in_use  0000000180024000 f   MSVCRT:ucrt_detection.obj
 0001:0002300c       __crt_debugger_hook        000000018002400c f   MSVCRT:utility_desktop.obj
 0001:00023014       __scrt_fastfail            0000000180024014 f   MSVCRT:utility_desktop.obj
 0001:00023160       __security_init_cookie     0000000180024160 f   MSVCRT:gs_support.obj
 0001:0002320c       ?__scrt_initialize_type_info@@YAXXZ 000000018002420c f   MSVCRT:tncleanup.obj
 0001:0002321c       ?__scrt_uninitialize_type_info@@YAXXZ 000000018002421c f   MSVCRT:tncleanup.obj
 0001:00023228       __local_stdio_scanf_options 0000000180024228 f i MSVCRT:default_local_stdio_options.obj
 0001:00023230       __scrt_initialize_default_local_stdio_options 0000000180024230 f   MSVCRT:default_local_stdio_options.obj
 0001:0002324c       __scrt_get_dyn_tls_init_callback 000000018002424c f   MSVCRT:dyn_tls_init.obj
 0001:00023254       _RTC_Initialize            0000000180024254 f   MSVCRT:initsect.obj
 0001:00023290       _RTC_Terminate             0000000180024290 f   MSVCRT:initsect.obj
 0001:000232d0       IsProcessorFeaturePresent  00000001800242d0 f   kernel32:KERNEL32.dll
 0001:000232d6       _purecall                  00000001800242d6 f   vcruntime:VCRUNTIME140.dll
 0001:000232dc       __std_terminate            00000001800242dc f   vcruntime:VCRUNTIME140.dll
 0001:000232e2       __CxxFrameHandler3         00000001800242e2 f   vcruntime:VCRUNTIME140.dll
 0001:000232e8       memset                     00000001800242e8 f   vcruntime:VCRUNTIME140.dll
 0001:000232ee       memcpy                     00000001800242ee f   vcruntime:VCRUNTIME140.dll
 0001:000232f4       wcschr                     00000001800242f4 f   vcruntime:VCRUNTIME140.dll
 0001:000232fa       _CxxThrowException         00000001800242fa f   vcruntime:VCRUNTIME140.dll
 0001:00023300       __RTDynamicCast            0000000180024300 f   vcruntime:VCRUNTIME140.dll
 0001:00023306       memmove                    0000000180024306 f   vcruntime:VCRUNTIME140.dll
 0001:0002330c       __C_specific_handler       000000018002430c f   vcruntime:VCRUNTIME140.dll
 0001:00023312       __std_exception_copy       0000000180024312 f   vcruntime:VCRUNTIME140.dll
 0001:00023318       __std_exception_destroy    0000000180024318 f   vcruntime:VCRUNTIME140.dll
 0001:0002331e       __std_type_info_destroy_list 000000018002431e f   vcruntime:VCRUNTIME140.dll
 0001:00023324       wmemcpy_s                  0000000180024324 f   ucrt:api-ms-win-crt-string-l1-1-0.dll
 0001:0002332a       free                       000000018002432a f   ucrt:api-ms-win-crt-heap-l1-1-0.dll
 0001:00023330       malloc                     0000000180024330 f   ucrt:api-ms-win-crt-heap-l1-1-0.dll
 0001:00023336       ceilf                      0000000180024336 f   ucrt:api-ms-win-crt-math-l1-1-0.dll
 0001:0002333c       floorf                     000000018002433c f   ucrt:api-ms-win-crt-math-l1-1-0.dll
 0001:00023342       _callnewh                  0000000180024342 f   ucrt:api-ms-win-crt-heap-l1-1-0.dll
 0001:00023348       _seh_filter_dll            0000000180024348 f   ucrt:api-ms-win-crt-runtime-l1-1-0.dll
 0001:0002334e       _configure_narrow_argv     000000018002434e f   ucrt:api-ms-win-crt-runtime-l1-1-0.dll
 0001:00023354       _initialize_narrow_environment 0000000180024354 f   ucrt:api-ms-win-crt-runtime-l1-1-0.dll
 0001:0002335a       _initialize_onexit_table   000000018002435a f   ucrt:api-ms-win-crt-runtime-l1-1-0.dll
 0001:00023360       _register_onexit_function  0000000180024360 f   ucrt:api-ms-win-crt-runtime-l1-1-0.dll
 0001:00023366       _execute_onexit_table      0000000180024366 f   ucrt:api-ms-win-crt-runtime-l1-1-0.dll
 0001:0002336c       _crt_atexit                000000018002436c f   ucrt:api-ms-win-crt-runtime-l1-1-0.dll
 0001:00023372       _cexit                     0000000180024372 f   ucrt:api-ms-win-crt-runtime-l1-1-0.dll
 0001:00023378       _initterm                  0000000180024378 f   ucrt:api-ms-win-crt-runtime-l1-1-0.dll
 0001:0002337e       _initterm_e                000000018002437e f   ucrt:api-ms-win-crt-runtime-l1-1-0.dll
 0001:00023384       ?DloadAcquireSectionWriteAccess@@YAXXZ 0000000180024384 f i delayimp:delayhlp.obj
 0001:00023430       ?DloadGetSRWLockFunctionPointers@@YAEXZ 0000000180024430 f i delayimp:delayhlp.obj
 0001:000234cc       ?DloadMakePermanentImageCommit@@YAXPEAX_K@Z 00000001800244cc f i delayimp:delayhlp.obj
 0001:00023564       ?DloadObtainSection@@YAPEAXPEAK0@Z 0000000180024564 f i delayimp:delayhlp.obj
 0001:00023600       ?DloadProtectSection@@YAXKPEAK@Z 0000000180024600 f i delayimp:delayhlp.obj
 0001:00023690       ?DloadReleaseSectionWriteAccess@@YAXXZ 0000000180024690 f i delayimp:delayhlp.obj
 0001:00023724       __delayLoadHelper2         0000000180024724 f   delayimp:delayhlp.obj
 0001:00023a00       _guard_dispatch_icall_nop  0000000180024a00 f   MSVCRT:guard_dispatch.obj
 0001:000255e0       ??__FbsAcessType@?CN@??_UserDo@_MyAction@?1??Java_com_sun_glass_ui_win_WinSystemClipboard_popMimesFromSystem@@YAPEAV_jobjectArray@@PEAUJNIEnv_@@PEAV_jobject@@@Z@QEAAPEAV3@XZ@YAXXZ 00000001800265e0 f i GlassClipboard.obj
 0001:00025650       ??__FbsContentHeader@?P@??GetData@ClipboardData@@UEAAJPEAUtagFORMATETC@@PEAUtagSTGMEDIUM@@@Z@YAXXZ 0000000180026650 f i GlassClipboard.obj
 0001:000256c0       ??__Fempty@?1??getString@BinaryChunk@@QEAA?AV_bstr_t@@XZ@YAXXZ 00000001800266c0 f i GlassClipboard.obj
 0002:00000000       __imp_GetSaveFileNameW     0000000180027000     Comdlg32:COMDLG32.dll
 0002:00000008       __imp_GetOpenFileNameW     0000000180027008     Comdlg32:COMDLG32.dll
 0002:00000010       \177COMDLG32_NULL_THUNK_DATA 0000000180027010     Comdlg32:COMDLG32.dll
 0002:00000018       __imp_DeleteDC             0000000180027018     gdi32:GDI32.dll
 0002:00000020       __imp_DeleteObject         0000000180027020     gdi32:GDI32.dll
 0002:00000028       __imp_GetDeviceCaps        0000000180027028     gdi32:GDI32.dll
 0002:00000030       __imp_SelectObject         0000000180027030     gdi32:GDI32.dll
 0002:00000038       __imp_CreateDCW            0000000180027038     gdi32:GDI32.dll
 0002:00000040       __imp_SetDIBitsToDevice    0000000180027040     gdi32:GDI32.dll
 0002:00000048       __imp_CreateBitmap         0000000180027048     gdi32:GDI32.dll
 0002:00000050       __imp_GetDIBits            0000000180027050     gdi32:GDI32.dll
 0002:00000058       __imp_CreateDIBSection     0000000180027058     gdi32:GDI32.dll
 0002:00000060       __imp_GetObjectW           0000000180027060     gdi32:GDI32.dll
 0002:00000068       __imp_GdiFlush             0000000180027068     gdi32:GDI32.dll
 0002:00000070       __imp_BitBlt               0000000180027070     gdi32:GDI32.dll
 0002:00000078       __imp_CreateCompatibleBitmap 0000000180027078     gdi32:GDI32.dll
 0002:00000080       __imp_StretchBlt           0000000180027080     gdi32:GDI32.dll
 0002:00000088       __imp_CreateCompatibleDC   0000000180027088     gdi32:GDI32.dll
 0002:00000090       __imp_CreateSolidBrush     0000000180027090     gdi32:GDI32.dll
 0002:00000098       __imp_GetStockObject       0000000180027098     gdi32:GDI32.dll
 0002:000000a0       \177GDI32_NULL_THUNK_DATA  00000001800270a0     gdi32:GDI32.dll
 0002:000000a8       __imp_ImmGetContext        00000001800270a8     imm32:IMM32.dll
 0002:000000b0       __imp_ImmReleaseContext    00000001800270b0     imm32:IMM32.dll
 0002:000000b8       __imp_ImmNotifyIME         00000001800270b8     imm32:IMM32.dll
 0002:000000c0       __imp_ImmSetCandidateWindow 00000001800270c0     imm32:IMM32.dll
 0002:000000c8       __imp_ImmGetCompositionStringW 00000001800270c8     imm32:IMM32.dll
 0002:000000d0       \177IMM32_NULL_THUNK_DATA  00000001800270d0     imm32:IMM32.dll
 0002:000000d8       __imp_FreeLibrary          00000001800270d8     kernel32:KERNEL32.dll
 0002:000000e0       __imp_VirtualQuery         00000001800270e0     kernel32:KERNEL32.dll
 0002:000000e8       __imp_VirtualProtect       00000001800270e8     kernel32:KERNEL32.dll
 0002:000000f0       __imp_GetSystemInfo        00000001800270f0     kernel32:KERNEL32.dll
 0002:000000f8       __imp_RaiseException       00000001800270f8     kernel32:KERNEL32.dll
 0002:00000100       __imp_InitializeSListHead  0000000180027100     kernel32:KERNEL32.dll
 0002:00000108       __imp_GetSystemTimeAsFileTime 0000000180027108     kernel32:KERNEL32.dll
 0002:00000110       __imp_QueryPerformanceCounter 0000000180027110     kernel32:KERNEL32.dll
 0002:00000118       __imp_IsDebuggerPresent    0000000180027118     kernel32:KERNEL32.dll
 0002:00000120       __imp_IsProcessorFeaturePresent 0000000180027120     kernel32:KERNEL32.dll
 0002:00000128       __imp_TerminateProcess     0000000180027128     kernel32:KERNEL32.dll
 0002:00000130       __imp_GetCurrentProcess    0000000180027130     kernel32:KERNEL32.dll
 0002:00000138       __imp_SetUnhandledExceptionFilter 0000000180027138     kernel32:KERNEL32.dll
 0002:00000140       __imp_UnhandledExceptionFilter 0000000180027140     kernel32:KERNEL32.dll
 0002:00000148       __imp_RtlVirtualUnwind     0000000180027148     kernel32:KERNEL32.dll
 0002:00000150       __imp_RtlLookupFunctionEntry 0000000180027150     kernel32:KERNEL32.dll
 0002:00000158       __imp_RtlCaptureContext    0000000180027158     kernel32:KERNEL32.dll
 0002:00000160       __imp_CreateEventW         0000000180027160     kernel32:KERNEL32.dll
 0002:00000168       __imp_WaitForSingleObjectEx 0000000180027168     kernel32:KERNEL32.dll
 0002:00000170       __imp_ResetEvent           0000000180027170     kernel32:KERNEL32.dll
 0002:00000178       __imp_SetEvent             0000000180027178     kernel32:KERNEL32.dll
 0002:00000180       __imp_DeleteCriticalSection 0000000180027180     kernel32:KERNEL32.dll
 0002:00000188       __imp_InitializeCriticalSectionAndSpinCount 0000000180027188     kernel32:KERNEL32.dll
 0002:00000190       __imp_LeaveCriticalSection 0000000180027190     kernel32:KERNEL32.dll
 0002:00000198       __imp_EnterCriticalSection 0000000180027198     kernel32:KERNEL32.dll
 0002:000001a0       __imp_CloseHandle          00000001800271a0     kernel32:KERNEL32.dll
 0002:000001a8       __imp_LocalFree            00000001800271a8     kernel32:KERNEL32.dll
 0002:000001b0       __imp_GetLocaleInfoW       00000001800271b0     kernel32:KERNEL32.dll
 0002:000001b8       __imp_GetACP               00000001800271b8     kernel32:KERNEL32.dll
 0002:000001c0       __imp_MultiByteToWideChar  00000001800271c0     kernel32:KERNEL32.dll
 0002:000001c8       __imp_FoldStringW          00000001800271c8     kernel32:KERNEL32.dll
 0002:000001d0       __imp_GetCurrentProcessId  00000001800271d0     kernel32:KERNEL32.dll
 0002:000001d8       __imp_GlobalFree           00000001800271d8     kernel32:KERNEL32.dll
 0002:000001e0       __imp_GetLastError         00000001800271e0     kernel32:KERNEL32.dll
 0002:000001e8       __imp_GetModuleHandleW     00000001800271e8     kernel32:KERNEL32.dll
 0002:000001f0       __imp_GetVersion           00000001800271f0     kernel32:KERNEL32.dll
 0002:000001f8       __imp_LocalAlloc           00000001800271f8     kernel32:KERNEL32.dll
 0002:00000200       __imp_FormatMessageW       0000000180027200     kernel32:KERNEL32.dll
 0002:00000208       __imp_GetCurrentThreadId   0000000180027208     kernel32:KERNEL32.dll
 0002:00000210       __imp_GetSystemTime        0000000180027210     kernel32:KERNEL32.dll
 0002:00000218       __imp_GlobalAlloc          0000000180027218     kernel32:KERNEL32.dll
 0002:00000220       __imp_GlobalSize           0000000180027220     kernel32:KERNEL32.dll
 0002:00000228       __imp_GlobalUnlock         0000000180027228     kernel32:KERNEL32.dll
 0002:00000230       __imp_GlobalLock           0000000180027230     kernel32:KERNEL32.dll
 0002:00000238       __imp_MulDiv               0000000180027238     kernel32:KERNEL32.dll
 0002:00000240       __imp_SystemTimeToFileTime 0000000180027240     kernel32:KERNEL32.dll
 0002:00000248       __imp_GetSystemDirectoryW  0000000180027248     kernel32:KERNEL32.dll
 0002:00000250       __imp_GetProcAddress       0000000180027250     kernel32:KERNEL32.dll
 0002:00000258       __imp_LoadLibraryW         0000000180027258     kernel32:KERNEL32.dll
 0002:00000260       __imp_LoadLibraryExA       0000000180027260     kernel32:KERNEL32.dll
 0002:00000268       \177KERNEL32_NULL_THUNK_DATA 0000000180027268     kernel32:KERNEL32.dll
 0002:00000270       __imp_?_Xlength_error@std@@YAXPEBD@Z 0000000180027270     msvcprt:MSVCP140.dll
 0002:00000278       \177MSVCP140_NULL_THUNK_DATA 0000000180027278     msvcprt:MSVCP140.dll
 0002:00000280       __imp_VariantClear         0000000180027280     oleaut32:OLEAUT32.dll
 0002:00000288       __imp_SafeArrayCreateVector 0000000180027288     oleaut32:OLEAUT32.dll
 0002:00000290       __imp_SafeArrayPutElement  0000000180027290     oleaut32:OLEAUT32.dll
 0002:00000298       __imp_SysAllocStringLen    0000000180027298     oleaut32:OLEAUT32.dll
 0002:000002a0       __imp_SysAllocStringByteLen 00000001800272a0     oleaut32:OLEAUT32.dll
 0002:000002a8       __imp_SysStringLen         00000001800272a8     oleaut32:OLEAUT32.dll
 0002:000002b0       __imp_SysFreeString        00000001800272b0     oleaut32:OLEAUT32.dll
 0002:000002b8       __imp_SysAllocString       00000001800272b8     oleaut32:OLEAUT32.dll
 0002:000002c0       \177OLEAUT32_NULL_THUNK_DATA 00000001800272c0     oleaut32:OLEAUT32.dll
 0002:000002c8       __imp___std_exception_destroy 00000001800272c8     vcruntime:VCRUNTIME140.dll
 0002:000002d0       __imp___std_exception_copy 00000001800272d0     vcruntime:VCRUNTIME140.dll
 0002:000002d8       __imp___C_specific_handler 00000001800272d8     vcruntime:VCRUNTIME140.dll
 0002:000002e0       __imp_memmove              00000001800272e0     vcruntime:VCRUNTIME140.dll
 0002:000002e8       __imp___RTDynamicCast      00000001800272e8     vcruntime:VCRUNTIME140.dll
 0002:000002f0       __imp__CxxThrowException   00000001800272f0     vcruntime:VCRUNTIME140.dll
 0002:000002f8       __imp_wcschr               00000001800272f8     vcruntime:VCRUNTIME140.dll
 0002:00000300       __imp_memcpy               0000000180027300     vcruntime:VCRUNTIME140.dll
 0002:00000308       __imp_memset               0000000180027308     vcruntime:VCRUNTIME140.dll
 0002:00000310       __imp___CxxFrameHandler3   0000000180027310     vcruntime:VCRUNTIME140.dll
 0002:00000318       __imp___std_terminate      0000000180027318     vcruntime:VCRUNTIME140.dll
 0002:00000320       __imp__purecall            0000000180027320     vcruntime:VCRUNTIME140.dll
 0002:00000328       __imp___std_type_info_destroy_list 0000000180027328     vcruntime:VCRUNTIME140.dll
 0002:00000330       \177VCRUNTIME140_NULL_THUNK_DATA 0000000180027330     vcruntime:VCRUNTIME140.dll
 0002:00000338       __imp__itow_s              0000000180027338     ucrt:api-ms-win-crt-convert-l1-1-0.dll
 0002:00000340       __imp__i64tow_s            0000000180027340     ucrt:api-ms-win-crt-convert-l1-1-0.dll
 0002:00000348       __imp__wtoi                0000000180027348     ucrt:api-ms-win-crt-convert-l1-1-0.dll
 0002:00000350       \177api-ms-win-crt-convert-l1-1-0_NULL_THUNK_DATA 0000000180027350     ucrt:api-ms-win-crt-convert-l1-1-0.dll
 0002:00000358       __imp_free                 0000000180027358     ucrt:api-ms-win-crt-heap-l1-1-0.dll
 0002:00000360       __imp__callnewh            0000000180027360     ucrt:api-ms-win-crt-heap-l1-1-0.dll
 0002:00000368       __imp_malloc               0000000180027368     ucrt:api-ms-win-crt-heap-l1-1-0.dll
 0002:00000370       \177api-ms-win-crt-heap-l1-1-0_NULL_THUNK_DATA 0000000180027370     ucrt:api-ms-win-crt-heap-l1-1-0.dll
 0002:00000378       __imp_floorf               0000000180027378     ucrt:api-ms-win-crt-math-l1-1-0.dll
 0002:00000380       __imp_ceilf                0000000180027380     ucrt:api-ms-win-crt-math-l1-1-0.dll
 0002:00000388       \177api-ms-win-crt-math-l1-1-0_NULL_THUNK_DATA 0000000180027388     ucrt:api-ms-win-crt-math-l1-1-0.dll
 0002:00000390       __imp__cexit               0000000180027390     ucrt:api-ms-win-crt-runtime-l1-1-0.dll
 0002:00000398       __imp__initterm_e          0000000180027398     ucrt:api-ms-win-crt-runtime-l1-1-0.dll
 0002:000003a0       __imp__crt_atexit          00000001800273a0     ucrt:api-ms-win-crt-runtime-l1-1-0.dll
 0002:000003a8       __imp__invalid_parameter_noinfo 00000001800273a8     ucrt:api-ms-win-crt-runtime-l1-1-0.dll
 0002:000003b0       __imp__errno               00000001800273b0     ucrt:api-ms-win-crt-runtime-l1-1-0.dll
 0002:000003b8       __imp__execute_onexit_table 00000001800273b8     ucrt:api-ms-win-crt-runtime-l1-1-0.dll
 0002:000003c0       __imp__seh_filter_dll      00000001800273c0     ucrt:api-ms-win-crt-runtime-l1-1-0.dll
 0002:000003c8       __imp__initterm            00000001800273c8     ucrt:api-ms-win-crt-runtime-l1-1-0.dll
 0002:000003d0       __imp__register_onexit_function 00000001800273d0     ucrt:api-ms-win-crt-runtime-l1-1-0.dll
 0002:000003d8       __imp__invalid_parameter_noinfo_noreturn 00000001800273d8     ucrt:api-ms-win-crt-runtime-l1-1-0.dll
 0002:000003e0       __imp__initialize_onexit_table 00000001800273e0     ucrt:api-ms-win-crt-runtime-l1-1-0.dll
 0002:000003e8       __imp__initialize_narrow_environment 00000001800273e8     ucrt:api-ms-win-crt-runtime-l1-1-0.dll
 0002:000003f0       __imp__configure_narrow_argv 00000001800273f0     ucrt:api-ms-win-crt-runtime-l1-1-0.dll
 0002:000003f8       \177api-ms-win-crt-runtime-l1-1-0_NULL_THUNK_DATA 00000001800273f8     ucrt:api-ms-win-crt-runtime-l1-1-0.dll
 0002:00000400       __imp___acrt_iob_func      0000000180027400     ucrt:api-ms-win-crt-stdio-l1-1-0.dll
 0002:00000408       __imp___stdio_common_vfwprintf_s 0000000180027408     ucrt:api-ms-win-crt-stdio-l1-1-0.dll
 0002:00000410       __imp___stdio_common_vfwprintf 0000000180027410     ucrt:api-ms-win-crt-stdio-l1-1-0.dll
 0002:00000418       __imp___stdio_common_vfprintf 0000000180027418     ucrt:api-ms-win-crt-stdio-l1-1-0.dll
 0002:00000420       __imp_fflush               0000000180027420     ucrt:api-ms-win-crt-stdio-l1-1-0.dll
 0002:00000428       __imp___stdio_common_vswprintf_s 0000000180027428     ucrt:api-ms-win-crt-stdio-l1-1-0.dll
 0002:00000430       \177api-ms-win-crt-stdio-l1-1-0_NULL_THUNK_DATA 0000000180027430     ucrt:api-ms-win-crt-stdio-l1-1-0.dll
 0002:00000438       __imp_wcscat_s             0000000180027438     ucrt:api-ms-win-crt-string-l1-1-0.dll
 0002:00000440       __imp_wcscpy_s             0000000180027440     ucrt:api-ms-win-crt-string-l1-1-0.dll
 0002:00000448       __imp__wcsnicmp            0000000180027448     ucrt:api-ms-win-crt-string-l1-1-0.dll
 0002:00000450       __imp_wmemcpy_s            0000000180027450     ucrt:api-ms-win-crt-string-l1-1-0.dll
 0002:00000458       __imp_wcsncpy_s            0000000180027458     ucrt:api-ms-win-crt-string-l1-1-0.dll
 0002:00000460       __imp_wcsncmp              0000000180027460     ucrt:api-ms-win-crt-string-l1-1-0.dll
 0002:00000468       \177api-ms-win-crt-string-l1-1-0_NULL_THUNK_DATA 0000000180027468     ucrt:api-ms-win-crt-string-l1-1-0.dll
 0002:00000470       __imp_ldiv                 0000000180027470     ucrt:api-ms-win-crt-utility-l1-1-0.dll
 0002:00000478       \177api-ms-win-crt-utility-l1-1-0_NULL_THUNK_DATA 0000000180027478     ucrt:api-ms-win-crt-utility-l1-1-0.dll
 0002:00000480       __imp_DoDragDrop           0000000180027480     ole32:ole32.dll
 0002:00000488       __imp_StgCreateDocfile     0000000180027488     ole32:ole32.dll
 0002:00000490       __imp_OleGetClipboard      0000000180027490     ole32:ole32.dll
 0002:00000498       __imp_OleFlushClipboard    0000000180027498     ole32:ole32.dll
 0002:000004a0       __imp_OleCreateStaticFromData 00000001800274a0     ole32:ole32.dll
 0002:000004a8       __imp_ReleaseStgMedium     00000001800274a8     ole32:ole32.dll
 0002:000004b0       __imp_StringFromIID        00000001800274b0     ole32:ole32.dll
 0002:000004b8       __imp_OleQueryCreateFromData 00000001800274b8     ole32:ole32.dll
 0002:000004c0       __imp_CreateDataAdviseHolder 00000001800274c0     ole32:ole32.dll
 0002:000004c8       __imp_RegisterDragDrop     00000001800274c8     ole32:ole32.dll
 0002:000004d0       __imp_RevokeDragDrop       00000001800274d0     ole32:ole32.dll
 0002:000004d8       __imp_OleIsCurrentClipboard 00000001800274d8     ole32:ole32.dll
 0002:000004e0       __imp_CoCreateInstance     00000001800274e0     ole32:ole32.dll
 0002:000004e8       __imp_CoTaskMemAlloc       00000001800274e8     ole32:ole32.dll
 0002:000004f0       __imp_OleUninitialize      00000001800274f0     ole32:ole32.dll
 0002:000004f8       __imp_OleInitialize        00000001800274f8     ole32:ole32.dll
 0002:00000500       __imp_CoTaskMemFree        0000000180027500     ole32:ole32.dll
 0002:00000508       __imp_OleSetClipboard      0000000180027508     ole32:ole32.dll
 0002:00000510       \177ole32_NULL_THUNK_DATA  0000000180027510     ole32:ole32.dll
 0002:00000518       __guard_check_icall_fptr   0000000180027518     MSVCRT:guard_support.obj
 0002:00000520       __guard_dispatch_icall_fptr 0000000180027520     MSVCRT:guard_support.obj
 0002:00000528       __xc_a                     0000000180027528     MSVCRT:initializers.obj
 0002:00000560       __xc_z                     0000000180027560     MSVCRT:initializers.obj
 0002:00000568       __xi_a                     0000000180027568     MSVCRT:initializers.obj
 0002:00000578       __xi_z                     0000000180027578     MSVCRT:initializers.obj
 0002:00000580       __xl_a                     0000000180027580     MSVCRT:tlssup.obj
 0002:00000588       __xl_z                     0000000180027588     MSVCRT:tlssup.obj
 0002:00000590       __xp_a                     0000000180027590     MSVCRT:initializers.obj
 0002:00000598       __xp_z                     0000000180027598     MSVCRT:initializers.obj
 0002:000005a0       __xt_a                     00000001800275a0     MSVCRT:initializers.obj
 0002:000005a8       __xt_z                     00000001800275a8     MSVCRT:initializers.obj
 0002:000005b0       ??_C@_1BI@JDENJJN@?$AAB?$AAa?$AAs?$AAe?$AAW?$AAn?$AAd?$AAP?$AAr?$AAo?$AAp@ 00000001800275b0     BaseWnd.obj
 0002:00000620       ??_7BaseWnd@@6B@           0000000180027620     BaseWnd.obj
 0002:00000660       ??_7Action@@6B@            0000000180027660     BaseWnd.obj
 0002:00000690       ??_C@_1FA@JLKIGBHK@?$AAB?$AAa?$AAs?$AAe?$AAW?$AAn?$AAd?$AA?3?$AA?3?$AAU?$AAn?$AAr?$AAe?$AAg?$AAi@ 0000000180027690     BaseWnd.obj
 0002:000006e0       ??_C@_1CI@PIKIOFPJ@?$AAG?$AAl?$AAa?$AAs?$AAs?$AAW?$AAn?$AAd?$AAC?$AAl?$AAa?$AAs?$AAs?$AA?9?$AA?$CF@ 00000001800276e0     BaseWnd.obj
 0002:00000710       ??_C@_1FA@FJJDDHPE@?$AAB?$AAa?$AAs?$AAe?$AAW?$AAn?$AAd?$AA?3?$AA?3?$AAR?$AAe?$AAg?$AAi?$AAs?$AAt@ 0000000180027710     BaseWnd.obj
 0002:00000760       ??_C@_11LOCGONAA@@         0000000180027760     BaseWnd.obj
 0002:00000768       ??_C@_1DO@BIEDBLII@?$AAB?$AAa?$AAs?$AAe?$AAW?$AAn?$AAd?$AA?3?$AA?3?$AAC?$AAr?$AAe?$AAa?$AAt?$AAe@ 0000000180027768     BaseWnd.obj
 0002:000007a8       ??_C@_1CG@IJEMPCME@?$AAG?$AAL?$AAA?$AAS?$AAS?$AAD?$AAE?$AAF?$AAA?$AAU?$AAL?$AAT?$AAW?$AAI?$AAN@ 00000001800277a8     BaseWnd.obj
 0002:000007d0       ??_C@_0BF@FOHFOJOB@?$CI?$CJLjava?1lang?1String?$DL@ 00000001800277d0     CommonDialogs.obj
 0002:000007e8       ??_C@_0BP@GLJCGFBH@com?1sun?1glass?1ui?1CommonDialogs@ 00000001800277e8     CommonDialogs.obj
 0002:00000810       ??_C@_0HK@OPLICMKO@?$CI?$FLLjava?1lang?1String?$DL?$FLLcom?1sun?1g@ 0000000180027810     CommonDialogs.obj
 0002:00000890       ??_C@_0BI@EOFIGMMD@createFileChooserResult@ 0000000180027890     CommonDialogs.obj
 0002:000008a8       ??_C@_0CP@IJPEMLPH@com?1sun?1glass?1ui?1CommonDialogs$@ 00000001800278a8     CommonDialogs.obj
 0002:000008d8       ??_C@_0P@OAKGNCBA@getDescription@ 00000001800278d8     CommonDialogs.obj
 0002:000008e8       ??_C@_0BG@BMFCIHGD@?$CI?$CJ?$FLLjava?1lang?1String?$DL@ 00000001800278e8     CommonDialogs.obj
 0002:00000900       ??_C@_0BC@MOGKIJKA@extensionsToArray@ 0000000180027900     CommonDialogs.obj
 0002:00000ad0       ??_C@_1CI@KPMALOMG@?$AAI?$AAD?$AAi?$AAs?$AAp?$AAa?$AAt?$AAc?$AAh?$AA?5?$AAe?$AAr?$AAr?$AAo?$AAr@ 0000000180027ad0     CommonDialogs_COM.obj
 0002:00000af8       ??_C@_1CK@DOIMBAJG@?$AAU?$AAn?$AAk?$AAn?$AAo?$AAw?$AAn?$AA?5?$AAe?$AAr?$AAr?$AAo?$AAr?$AA?5?$AA0@ 0000000180027af8     CommonDialogs_COM.obj
 0002:00000b28       ??_C@_0BB@FLFAIHG@java?1lang?1String@ 0000000180027b28     CommonDialogs_COM.obj
 0002:00000b40       ??_C@_0CH@NCPCFFHJ@?$CILjava?1lang?1String?$DL?$CJLjava?1lang?1@ 0000000180027b40     CommonDialogs_COM.obj
 0002:00000b68       ??_C@_06CMLIEHFC@concat@   0000000180027b68     CommonDialogs_COM.obj
 0002:00000b70       ??_C@_13LBAGMAIH@?$AA?6@   0000000180027b70     CommonDialogs_COM.obj
 0002:00000b78       _GUID_d57c7288_d4ad_4768_be02_9d969532d960 0000000180027b78     CommonDialogs_COM.obj
 0002:00000b88       ??_C@_1CE@FPGCAAED@?$AAC?$AAO?$AAM?$AA?5?$AAE?$AAr?$AAr?$AAo?$AAr?$AA?3?$AA?$CF?$AA0?$AA8?$AAx?$AA?5@ 0000000180027b88     CommonDialogs_COM.obj
 0002:00000bac       ??_C@_13PJJBFPED@?$AA?$DL@ 0000000180027bac     CommonDialogs_COM.obj
 0002:00000bb0       ??_C@_1CG@DGFDOOCD@?$AAN?$AAu?$AAl?$AAl?$AA?5?$AAp?$AAo?$AAi?$AAn?$AAt?$AAe?$AAr?$AA?3?$AAp?$AAF@ 0000000180027bb0     CommonDialogs_COM.obj
 0002:00000bd8       ??_C@_1DC@KPBLEAH@?$AAN?$AAu?$AAl?$AAl?$AA?5?$AAp?$AAo?$AAi?$AAn?$AAt?$AAe?$AAr?$AA?3?$AAp?$AAO@ 0000000180027bd8     CommonDialogs_COM.obj
 0002:00000c10       ??_C@_1CI@IAJBIBDP@?$AAN?$AAu?$AAl?$AAl?$AA?5?$AAp?$AAo?$AAi?$AAn?$AAt?$AAe?$AAr?$AA?3?$AAp?$AAF@ 0000000180027c10     CommonDialogs_COM.obj
 0002:00000c40       ??_C@_1EE@JOMOALFO@?$AAO?$AAS?$AAE?$AAr?$AAr?$AAo?$AAr?$AA?3?$AA?$CF?$AAd?$AA?5?$AAi?$AAn?$AA?5?$AAp@ 0000000180027c40     CommonDialogs_COM.obj
 0002:00000d28       ??_C@_13NOLLCAOD@?$AA?$AA@ 0000000180027d28     CommonDialogs_Standard.obj
 0002:00000d2c       ??_C@_13FPGAJAPJ@?$AA?2@   0000000180027d2c     CommonDialogs_Standard.obj
 0002:00000d30       ??_C@_17MIKKDGKI@?$AAO?$AAF?$AAN@ 0000000180027d30     CommonDialogs_Standard.obj
 0002:00000d38       ??_C@_1CM@GKNAHDI@?$AAF?$AAu?$AAl?$AAl?$AAS?$AAc?$AAr?$AAe?$AAe?$AAn?$AAW?$AAi?$AAn?$AAd?$AAo@ 0000000180027d38     FullScreenWindow.obj
 0002:00000d68       ??_C@_1CM@ECGNFJKF@?$AAB?$AAa?$AAc?$AAk?$AAg?$AAr?$AAo?$AAu?$AAn?$AAd?$AAW?$AAi?$AAn?$AAd?$AAo@ 0000000180027d68     FullScreenWindow.obj
 0002:00000df0       ??_7FullScreenWindow@@6BBaseWnd@@@ 0000000180027df0     FullScreenWindow.obj
 0002:00000e30       ??_7FullScreenWindow@@6BViewContainer@@@ 0000000180027e30     FullScreenWindow.obj
 0002:00000e40       ??_7BackgroundWindow@@6B@  0000000180027e40     FullScreenWindow.obj
 0002:00000e78       __real@41f00000            0000000180027e78     FullScreenWindow.obj
 0002:00000ea8       _GUID_00000000_0000_0000_c000_000000000046 0000000180027ea8     GlassAccessible.obj
 0002:00000ec0       ??_7GlassAccessible@@6BIRawElementProviderSimple@@@ 0000000180027ec0     GlassAccessible.obj
 0002:00000f18       ??_7GlassAccessible@@6BIRawElementProviderFragment@@@ 0000000180027f18     GlassAccessible.obj
 0002:00000f68       ??_7GlassAccessible@@6BIRawElementProviderFragmentRoot@@@ 0000000180027f68     GlassAccessible.obj
 0002:00000f98       ??_7GlassAccessible@@6BIRawElementProviderAdviseEvents@@@ 0000000180027f98     GlassAccessible.obj
 0002:00000fc8       ??_7GlassAccessible@@6BIInvokeProvider@@@ 0000000180027fc8     GlassAccessible.obj
 0002:00000ff0       ??_7GlassAccessible@@6BISelectionProvider@@@ 0000000180027ff0     GlassAccessible.obj
 0002:00001028       ??_7GlassAccessible@@6BISelectionItemProvider@@@ 0000000180028028     GlassAccessible.obj
 0002:00001070       ??_7GlassAccessible@@6BIRangeValueProvider@@@ 0000000180028070     GlassAccessible.obj
 0002:000010c8       ??_7GlassAccessible@@6BIValueProvider@@@ 00000001800280c8     GlassAccessible.obj
 0002:00001100       ??_7GlassAccessible@@6BITextProvider@@@ 0000000180028100     GlassAccessible.obj
 0002:00001150       ??_7GlassAccessible@@6BIGridProvider@@@ 0000000180028150     GlassAccessible.obj
 0002:00001188       ??_7GlassAccessible@@6BIGridItemProvider@@@ 0000000180028188     GlassAccessible.obj
 0002:000011d0       ??_7GlassAccessible@@6BITableProvider@@@ 00000001800281d0     GlassAccessible.obj
 0002:00001208       ??_7GlassAccessible@@6BITableItemProvider@@@ 0000000180028208     GlassAccessible.obj
 0002:00001238       ??_7GlassAccessible@@6BIToggleProvider@@@ 0000000180028238     GlassAccessible.obj
 0002:00001268       ??_7GlassAccessible@@6BIExpandCollapseProvider@@@ 0000000180028268     GlassAccessible.obj
 0002:000012a0       ??_7GlassAccessible@@6BITransformProvider@@@ 00000001800282a0     GlassAccessible.obj
 0002:000012f0       ??_7GlassAccessible@@6BIScrollProvider@@@ 00000001800282f0     GlassAccessible.obj
 0002:00001350       ??_7GlassAccessible@@6BIScrollItemProvider@@@ 0000000180028350     GlassAccessible.obj
 0002:00001370       _GUID_d6dd68d1_86fd_4332_8666_9abedea2d24c 0000000180028370     GlassAccessible.obj
 0002:00001380       _GUID_f7063da8_8359_439c_9297_bbc5299a7d87 0000000180028380     GlassAccessible.obj
 0002:00001390       _GUID_620ce2a5_ab8f_40a9_86cb_de3c75599b58 0000000180028390     GlassAccessible.obj
 0002:000013a0       _GUID_a407b27b_0f6d_4427_9292_473c7bf93258 00000001800283a0     GlassAccessible.obj
 0002:000013b0       _GUID_54fcb24b_e18e_47a2_b4d3_eccbe77599a2 00000001800283b0     GlassAccessible.obj
 0002:000013c0       _GUID_fb8b03af_3bdf_48d4_bd36_1a65793be168 00000001800283c0     GlassAccessible.obj
 0002:000013d0       _GUID_2acad808_b2d4_452d_a407_91ff1ad167b2 00000001800283d0     GlassAccessible.obj
 0002:000013e0       _GUID_36dc7aef_33e6_4691_afe1_2be7274b3d33 00000001800283e0     GlassAccessible.obj
 0002:000013f0       _GUID_c7935180_6fb3_4201_b174_7df73adbf64a 00000001800283f0     GlassAccessible.obj
 0002:00001400       _GUID_3589c92c_63f3_4367_99bb_ada653b77cf2 0000000180028400     GlassAccessible.obj
 0002:00001410       _GUID_b17d6187_0907_464b_a168_0ef17a1572b1 0000000180028410     GlassAccessible.obj
 0002:00001420       _GUID_d02541f1_fb81_4d64_ae32_f520f8a6dbd1 0000000180028420     GlassAccessible.obj
 0002:00001430       _GUID_9c860395_97b3_490a_b52a_858cc22af166 0000000180028430     GlassAccessible.obj
 0002:00001440       _GUID_b9734fa6_771f_4d78_9c90_2517999349cd 0000000180028440     GlassAccessible.obj
 0002:00001450       _GUID_56d00bd0_c4f4_433c_a836_1a52a57e0892 0000000180028450     GlassAccessible.obj
 0002:00001460       _GUID_d847d3a5_cab0_4a98_8c32_ecb45c59ad24 0000000180028460     GlassAccessible.obj
 0002:00001470       _GUID_6829ddc4_4f91_4ffa_b86f_bd3e2987cb4c 0000000180028470     GlassAccessible.obj
 0002:00001480       _GUID_b38b8077_1fc3_42a5_8cae_d40c2215055a 0000000180028480     GlassAccessible.obj
 0002:00001490       _GUID_2360c714_4bf1_4b26_ba65_9b21316127eb 0000000180028490     GlassAccessible.obj
 0002:000014a0       ??_C@_04BDHKKBHA@?$CII?$CJJ@ 00000001800284a0     GlassAccessible.obj
 0002:000014a8       ??_C@_0BD@BKBOMLKO@GetPatternProvider@ 00000001800284a8     GlassAccessible.obj
 0002:000014bc       ??_C@_03IGDHHNNC@?$CI?$CJJ@ 00000001800284bc     GlassAccessible.obj
 0002:000014c0       ??_C@_0BL@ICHPBMMH@get_HostRawElementProvider@ 00000001800284c0     GlassAccessible.obj
 0002:000014e0       ??_C@_0CF@FOMJBMJP@?$CII?$CJLcom?1sun?1glass?1ui?1win?1WinVar@ 00000001800284e0     GlassAccessible.obj
 0002:00001508       ??_C@_0BB@CAAPLNHL@GetPropertyValue@ 0000000180028508     GlassAccessible.obj
 0002:0000151c       ??_C@_04NDJMKFEB@?$CI?$CJ?$FLF@ 000000018002851c     GlassAccessible.obj
 0002:00001528       ??_C@_0BG@FBLDMJGD@get_BoundingRectangle@ 0000000180028528     GlassAccessible.obj
 0002:00001540       ??_C@_0BB@PLOLEJIM@get_FragmentRoot@ 0000000180028540     GlassAccessible.obj
 0002:00001554       ??_C@_04HPCJOKEN@?$CI?$CJ?$FLJ@ 0000000180028554     GlassAccessible.obj
 0002:00001560       ??_C@_0BJ@OAKJHIEP@GetEmbeddedFragmentRoots@ 0000000180028560     GlassAccessible.obj
 0002:0000157c       ??_C@_04FEAELJIO@?$CI?$CJ?$FLI@ 000000018002857c     GlassAccessible.obj
 0002:00001588       ??_C@_0N@CIJHHAAK@GetRuntimeId@ 0000000180028588     GlassAccessible.obj
 0002:00001598       ??_C@_08FAFOEMDH@Navigate@ 0000000180028598     GlassAccessible.obj
 0002:000015a4       ??_C@_03GAEACAIP@?$CI?$CJV@ 00000001800285a4     GlassAccessible.obj
 0002:000015a8       ??_C@_08GPNNBNIL@SetFocus@ 00000001800285a8     GlassAccessible.obj
 0002:000015b4       ??_C@_05CBMNDCAE@?$CIDD?$CJJ@ 00000001800285b4     GlassAccessible.obj
 0002:000015c0       ??_C@_0BJ@EODHHPMD@ElementProviderFromPoint@ 00000001800285c0     GlassAccessible.obj
 0002:000015e0       ??_C@_08JOPBAOPG@GetFocus@ 00000001800285e0     GlassAccessible.obj
 0002:000015ec       ??_C@_05NPPFNMNL@?$CIIJ?$CJV@ 00000001800285ec     GlassAccessible.obj
 0002:000015f8       ??_C@_0BB@HEOHBJMA@AdviseEventAdded@ 00000001800285f8     GlassAccessible.obj
 0002:00001610       ??_C@_0BD@CDPAEHAA@AdviseEventRemoved@ 0000000180028610     GlassAccessible.obj
 0002:00001624       ??_C@_06MICBDHBI@Invoke@   0000000180028624     GlassAccessible.obj
 0002:00001630       ??_C@_0N@KIILHCLH@GetSelection@ 0000000180028630     GlassAccessible.obj
 0002:00001640       ??_C@_03MMPFGPID@?$CI?$CJZ@ 0000000180028640     GlassAccessible.obj
 0002:00001648       ??_C@_0BG@ILIBFNDE@get_CanSelectMultiple@ 0000000180028648     GlassAccessible.obj
 0002:00001660       ??_C@_0BI@JBJAIDPJ@get_IsSelectionRequired@ 0000000180028660     GlassAccessible.obj
 0002:00001678       ??_C@_06HJGPBJLE@Select@   0000000180028678     GlassAccessible.obj
 0002:00001680       ??_C@_0P@JKLCIJKK@AddToSelection@ 0000000180028680     GlassAccessible.obj
 0002:00001690       ??_C@_0BE@CCDEHHCA@RemoveFromSelection@ 0000000180028690     GlassAccessible.obj
 0002:000016a8       ??_C@_0P@MPANGLBB@get_IsSelected@ 00000001800286a8     GlassAccessible.obj
 0002:000016b8       ??_C@_0BH@LIDJOAPJ@get_SelectionContainer@ 00000001800286b8     GlassAccessible.obj
 0002:000016d0       ??_C@_04HGHCEPA@?$CID?$CJV@ 00000001800286d0     GlassAccessible.obj
 0002:000016d8       ??_C@_08JHMAAEPA@SetValue@ 00000001800286d8     GlassAccessible.obj
 0002:000016e4       ??_C@_03BILEFAFM@?$CI?$CJD@ 00000001800286e4     GlassAccessible.obj
 0002:000016e8       ??_C@_09IBPIICKK@get_Value@ 00000001800286e8     GlassAccessible.obj
 0002:000016f8       ??_C@_0P@LJNFOPFK@get_IsReadOnly@ 00000001800286f8     GlassAccessible.obj
 0002:00001708       ??_C@_0M@MAFLHFK@get_Maximum@ 0000000180028708     GlassAccessible.obj
 0002:00001718       ??_C@_0M@OKGFBILL@get_Minimum@ 0000000180028718     GlassAccessible.obj
 0002:00001728       ??_C@_0BA@DGAHDOON@get_LargeChange@ 0000000180028728     GlassAccessible.obj
 0002:00001738       ??_C@_0BA@BDBCGBLK@get_SmallChange@ 0000000180028738     GlassAccessible.obj
 0002:00001748       ??_C@_0BG@IKDDPPGD@?$CILjava?1lang?1String?$DL?$CJV@ 0000000180028748     GlassAccessible.obj
 0002:00001760       ??_C@_0P@EBEEFDDL@SetValueString@ 0000000180028760     GlassAccessible.obj
 0002:00001770       ??_C@_0BA@PPMDDCBE@get_ValueString@ 0000000180028770     GlassAccessible.obj
 0002:00001780       ??_C@_0BB@OAEPFKKM@GetVisibleRanges@ 0000000180028780     GlassAccessible.obj
 0002:00001794       ??_C@_04BMPAOJO@?$CIJ?$CJJ@ 0000000180028794     GlassAccessible.obj
 0002:000017a0       ??_C@_0P@BOBKMNFB@RangeFromChild@ 00000001800287a0     GlassAccessible.obj
 0002:000017b0       ??_C@_0P@GADOKHEL@RangeFromPoint@ 00000001800287b0     GlassAccessible.obj
 0002:000017c0       ??_C@_0BC@ONHHJOBB@get_DocumentRange@ 00000001800287c0     GlassAccessible.obj
 0002:000017d4       ??_C@_03KNBKCOBB@?$CI?$CJI@ 00000001800287d4     GlassAccessible.obj
 0002:000017d8       ??_C@_0BL@NHBBLLBC@get_SupportedTextSelection@ 00000001800287d8     GlassAccessible.obj
 0002:000017f8       ??_C@_0BA@NJHAJBEK@get_ColumnCount@ 00000001800287f8     GlassAccessible.obj
 0002:00001808       ??_C@_0N@IOOLCFLN@get_RowCount@ 0000000180028808     GlassAccessible.obj
 0002:00001818       ??_C@_05CLDHCOGI@?$CIII?$CJJ@ 0000000180028818     GlassAccessible.obj
 0002:00001820       ??_C@_07NPEJNGCF@GetItem@  0000000180028820     GlassAccessible.obj
 0002:00001828       ??_C@_0L@MMADHHPM@get_Column@ 0000000180028828     GlassAccessible.obj
 0002:00001838       ??_C@_0P@ICBGPICL@get_ColumnSpan@ 0000000180028838     GlassAccessible.obj
 0002:00001848       ??_C@_0BD@MAEKLDPA@get_ContainingGrid@ 0000000180028848     GlassAccessible.obj
 0002:00001860       ??_C@_07PBHMFJLO@get_Row@  0000000180028860     GlassAccessible.obj
 0002:00001868       ??_C@_0M@HBBHCKFP@get_RowSpan@ 0000000180028868     GlassAccessible.obj
 0002:00001878       ??_C@_0BB@FBEBAJHO@GetColumnHeaders@ 0000000180028878     GlassAccessible.obj
 0002:00001890       ??_C@_0O@HJCPLLJJ@GetRowHeaders@ 0000000180028890     GlassAccessible.obj
 0002:000018a0       ??_C@_0BF@ECMACJEH@get_RowOrColumnMajor@ 00000001800288a0     GlassAccessible.obj
 0002:000018b8       ??_C@_0BF@JAGJOELF@GetColumnHeaderItems@ 00000001800288b8     GlassAccessible.obj
 0002:000018d0       ??_C@_0BC@NDNAFJJJ@GetRowHeaderItems@ 00000001800288d0     GlassAccessible.obj
 0002:000018e4       ??_C@_06JIAPJJOL@Toggle@   00000001800288e4     GlassAccessible.obj
 0002:000018f0       ??_C@_0BA@JMHODBCL@get_ToggleState@ 00000001800288f0     GlassAccessible.obj
 0002:00001900       ??_C@_08EFFCDILO@Collapse@ 0000000180028900     GlassAccessible.obj
 0002:0000190c       ??_C@_06KKEBMNND@Expand@   000000018002890c     GlassAccessible.obj
 0002:00001918       ??_C@_0BI@PGLGCNCO@get_ExpandCollapseState@ 0000000180028918     GlassAccessible.obj
 0002:00001930       ??_C@_0M@JINHDBPA@get_CanMove@ 0000000180028930     GlassAccessible.obj
 0002:00001940       ??_C@_0O@LGLFPELN@get_CanResize@ 0000000180028940     GlassAccessible.obj
 0002:00001950       ??_C@_0O@GKCEAOCO@get_CanRotate@ 0000000180028950     GlassAccessible.obj
 0002:00001960       ??_C@_05MHLKGPFJ@?$CIDD?$CJV@ 0000000180028960     GlassAccessible.obj
 0002:00001968       ??_C@_04LCANPIEP@Move@     0000000180028968     GlassAccessible.obj
 0002:00001970       ??_C@_06DHFABGAE@Resize@   0000000180028970     GlassAccessible.obj
 0002:00001978       ??_C@_06OLMBOMJH@Rotate@   0000000180028978     GlassAccessible.obj
 0002:00001980       ??_C@_05MNEAHDDF@?$CIII?$CJV@ 0000000180028980     GlassAccessible.obj
 0002:00001988       ??_C@_06JGBMOMEK@Scroll@   0000000180028988     GlassAccessible.obj
 0002:00001990       ??_C@_0BB@GDBFJJCG@SetScrollPercent@ 0000000180028990     GlassAccessible.obj
 0002:000019a8       ??_C@_0BL@DDKIPEJO@get_HorizontallyScrollable@ 00000001800289a8     GlassAccessible.obj
 0002:000019c8       ??_C@_0BM@CICMOIDK@get_HorizontalScrollPercent@ 00000001800289c8     GlassAccessible.obj
 0002:000019e8       ??_C@_0BH@CMFNKKMK@get_HorizontalViewSize@ 00000001800289e8     GlassAccessible.obj
 0002:00001a00       ??_C@_0BJ@PIPBDALD@get_VerticallyScrollable@ 0000000180028a00     GlassAccessible.obj
 0002:00001a20       ??_C@_0BK@GNDIONIL@get_VerticalScrollPercent@ 0000000180028a20     GlassAccessible.obj
 0002:00001a40       ??_C@_0BF@EFHBPNFJ@get_VerticalViewSize@ 0000000180028a40     GlassAccessible.obj
 0002:00001a58       ??_C@_0P@NPMFCIGM@ScrollIntoView@ 0000000180028a58     GlassAccessible.obj
 0002:00001a68       ??_C@_0CA@KLCOGAIN@com?1sun?1glass?1ui?1win?1WinVariant@ 0000000180028a68     GlassAccessible.obj
 0002:00001a88       ??_C@_01CPLAODJH@S@        0000000180028a88     GlassAccessible.obj
 0002:00001a8c       ??_C@_02BLJBIOPN@vt@       0000000180028a8c     GlassAccessible.obj
 0002:00001a90       ??_C@_04MDMEMIBM@iVal@     0000000180028a90     GlassAccessible.obj
 0002:00001a98       ??_C@_01JPJNBJEM@I@        0000000180028a98     GlassAccessible.obj
 0002:00001a9c       ??_C@_04LCEEHGM@lVal@      0000000180028a9c     GlassAccessible.obj
 0002:00001aa4       ??_C@_01LELAEKIP@J@        0000000180028aa4     GlassAccessible.obj
 0002:00001aa8       ??_C@_07DKPKLDDO@punkVal@  0000000180028aa8     GlassAccessible.obj
 0002:00001ab0       ??_C@_01BIAFAFID@F@        0000000180028ab0     GlassAccessible.obj
 0002:00001ab4       ??_C@_06JHKKAFLC@fltVal@   0000000180028ab4     GlassAccessible.obj
 0002:00001abc       ??_C@_01CKDDGHAB@D@        0000000180028abc     GlassAccessible.obj
 0002:00001ac0       ??_C@_06GKKPKJKI@dblVal@   0000000180028ac0     GlassAccessible.obj
 0002:00001ac8       ??_C@_01POHCFINO@Z@        0000000180028ac8     GlassAccessible.obj
 0002:00001ad0       ??_C@_07LOLGEJFN@boolVal@  0000000180028ad0     GlassAccessible.obj
 0002:00001ad8       ??_C@_0BD@JFADHEFE@Ljava?1lang?1String?$DL@ 0000000180028ad8     GlassAccessible.obj
 0002:00001af0       ??_C@_07KIAJGEFM@bstrVal@  0000000180028af0     GlassAccessible.obj
 0002:00001af8       ??_C@_02PEECGNLN@?$FLD@    0000000180028af8     GlassAccessible.obj
 0002:00001b00       ??_C@_07PBAMABLD@pDblVal@  0000000180028b00     GlassAccessible.obj
 0002:00001b08       ??_C@_1DA@JIGKBAJ@?$AAG?$AAl?$AAa?$AAs?$AAs?$AAT?$AAo?$AAo?$AAl?$AAk?$AAi?$AAt?$AAW?$AAi?$AAn@ 0000000180028b08     GlassApplication.obj
 0002:00001c58       ??_7GlassApplication@@6B@  0000000180028c58     GlassApplication.obj
 0002:00001c90       ??_C@_0BA@JJLOPNCP@java?1lang?1Class@ 0000000180028c90     GlassApplication.obj
 0002:00001ca0       ??_C@_0CF@FPJGNHJN@ClassForName?5error?3?5classCls?5?$DN?$DN@ 0000000180028ca0     GlassApplication.obj
 0002:00001cc8       ??_C@_0DO@IJDAAHGL@?$CILjava?1lang?1String?$DLZLjava?1lang?1@ 0000000180028cc8     GlassApplication.obj
 0002:00001d08       ??_C@_07ILJBKILD@forName@  0000000180028d08     GlassApplication.obj
 0002:00001d10       ??_C@_0CH@ELFNHLHG@ClassForName?5error?3?5forNameMID?5@ 0000000180028d10     GlassApplication.obj
 0002:00001d38       ??_C@_0CK@GMHGIKHP@ClassForName?5error?3?5classNameSt@ 0000000180028d38     GlassApplication.obj
 0002:00001d68       ??_C@_0BJ@CKBIMPKI@?$CILjava?1lang?1Throwable?$DL?$CJV@ 0000000180028d68     GlassApplication.obj
 0002:00001d88       ??_C@_0BA@DCPEALMM@reportException@ 0000000180028d88     GlassApplication.obj
 0002:00001d98       ??_C@_0BG@CGIGLAGP@?$CILjava?1lang?1String?$DL?$CJZ@ 0000000180028d98     GlassApplication.obj
 0002:00001db0       ??_C@_0BD@PLFHONDO@notifyThemeChanged@ 0000000180028db0     GlassApplication.obj
 0002:00001dc8       ??_C@_0BD@PNNNELGN@java?1lang?1Runnable@ 0000000180028dc8     GlassApplication.obj
 0002:00001ddc       ??_C@_03LGMJKEGG@run@      0000000180028ddc     GlassApplication.obj
 0002:00001e30       ??_C@_1DC@LNJNDKCK@?$AAm?$AAs?$AA?9?$AAs?$AAt?$AAu?$AAf?$AAf?$AA?1?$AAp?$AAa?$AAs?$AAt?$AAe?$AA?9@ 0000000180028e30     GlassClipboard.obj
 0002:00001e68       ??_C@_1DO@HFJHGHPO@?$AAm?$AAs?$AA?9?$AAs?$AAt?$AAu?$AAf?$AAf?$AA?1?$AAp?$AAr?$AAe?$AAf?$AAe?$AAr@ 0000000180028e68     GlassClipboard.obj
 0002:00001ea8       ??_C@_1DO@HONNDKFM@?$AAm?$AAs?$AA?9?$AAs?$AAt?$AAu?$AAf?$AAf?$AA?1?$AAp?$AAe?$AAr?$AAf?$AAo?$AAr@ 0000000180028ea8     GlassClipboard.obj
 0002:00001ee8       ??_C@_1BG@KNJDBECB@?$AAt?$AAe?$AAx?$AAt?$AA?1?$AAp?$AAl?$AAa?$AAi?$AAn@ 0000000180028ee8     GlassClipboard.obj
 0002:00001f00       ??_C@_1CE@HAPKGCE@?$AAt?$AAe?$AAx?$AAt?$AA?1?$AAp?$AAl?$AAa?$AAi?$AAn?$AA?$DL?$AAl?$AAo?$AAc?$AAa@ 0000000180028f00     GlassClipboard.obj
 0002:00001f28       ??_C@_1BE@GIJHKGPE@?$AAt?$AAe?$AAx?$AAt?$AA?1?$AAh?$AAt?$AAm?$AAl@ 0000000180028f28     GlassClipboard.obj
 0002:00001f40       ??_C@_1BC@DJJLBNCN@?$AAt?$AAe?$AAx?$AAt?$AA?1?$AAr?$AAt?$AAf@ 0000000180028f40     GlassClipboard.obj
 0002:00001f58       ??_C@_1DI@FENNPNEN@?$AAa?$AAp?$AAp?$AAl?$AAi?$AAc?$AAa?$AAt?$AAi?$AAo?$AAn?$AA?1?$AAx?$AA?9?$AAj@ 0000000180028f58     GlassClipboard.obj
 0002:00001f90       ??_C@_1DM@NFBCIJCL@?$AAa?$AAp?$AAp?$AAl?$AAi?$AAc?$AAa?$AAt?$AAi?$AAo?$AAn?$AA?1?$AAx?$AA?9?$AAj@ 0000000180028f90     GlassClipboard.obj
 0002:00001fd0       ??_C@_1EK@HKJJNLCF@?$AAa?$AAp?$AAp?$AAl?$AAi?$AAc?$AAa?$AAt?$AAi?$AAo?$AAn?$AA?1?$AAx?$AA?9?$AAj@ 0000000180028fd0     GlassClipboard.obj
 0002:00002020       ??_C@_1BM@KHBMHPMK@?$AAt?$AAe?$AAx?$AAt?$AA?1?$AAu?$AAr?$AAi?$AA?9?$AAl?$AAi?$AAs?$AAt@ 0000000180029020     GlassClipboard.obj
 0002:00002040       ??_C@_1CK@FOFPDAOK@?$AAt?$AAe?$AAx?$AAt?$AA?1?$AAu?$AAr?$AAi?$AA?9?$AAl?$AAi?$AAs?$AAt?$AA?$DL?$AAl@ 0000000180029040     GlassClipboard.obj
 0002:00002070       ??_C@_1DK@EIGNHJHF@?$AAa?$AAp?$AAp?$AAl?$AAi?$AAc?$AAa?$AAt?$AAi?$AAo?$AAn?$AA?1?$AAx?$AA?9?$AAj@ 0000000180029070     GlassClipboard.obj
 0002:000020b0       ??_C@_1CA@DEHGIFNN@?$AAm?$AAs?$AA?9?$AAs?$AAt?$AAu?$AAf?$AAf?$AA?1?$AAl?$AAo?$AAc?$AAa?$AAl?$AAe@ 00000001800290b0     GlassClipboard.obj
 0002:000020d0       ??_C@_1CE@LMIDCDCO@?$AAm?$AAs?$AA?9?$AAs?$AAt?$AAu?$AAf?$AAf?$AA?1?$AAo?$AAe?$AAm?$AA?9?$AAt?$AAe@ 00000001800290d0     GlassClipboard.obj
 0002:000020f8       ??_C@_1DC@ODEEIHDJ@?$AAm?$AAs?$AA?9?$AAs?$AAt?$AAu?$AAf?$AAf?$AA?1?$AAf?$AAi?$AAl?$AAe?$AA?9?$AAd@ 00000001800290f8     GlassClipboard.obj
 0002:00002130       ??_C@_1EC@OHEKINAM@?$AAm?$AAs?$AA?9?$AAs?$AAt?$AAu?$AAf?$AAf?$AA?1?$AAf?$AAi?$AAl?$AAe?$AA?9?$AAd@ 0000000180029130     GlassClipboard.obj
 0002:00002178       ??_C@_1CM@OHKFOJLF@?$AAm?$AAe?$AAs?$AAs?$AAa?$AAg?$AAe?$AA?1?$AAe?$AAx?$AAt?$AAe?$AAr?$AAn?$AAa@ 0000000180029178     GlassClipboard.obj
 0002:000021a8       ??_C@_1DE@JMBEBAAE@?$AAt?$AAe?$AAx?$AAt?$AA?1?$AAi?$AAe?$AA?9?$AAs?$AAh?$AAo?$AAr?$AAt?$AAc?$AAu@ 00000001800291a8     GlassClipboard.obj
 0002:000021e0       ??_C@_1DC@JONGGLIN@?$AAt?$AAe?$AAx?$AAt?$AA?1?$AAi?$AAe?$AA?9?$AAs?$AAh?$AAo?$AAr?$AAt?$AAc?$AAu@ 00000001800291e0     GlassClipboard.obj
 0002:00002a88       _GUID_0000010e_0000_0000_c000_000000000046 0000000180029a88     GlassClipboard.obj
 0002:00002a98       _GUID_00000103_0000_0000_c000_000000000046 0000000180029a98     GlassClipboard.obj
 0002:00002aa8       _GUID_00000112_0000_0000_c000_000000000046 0000000180029aa8     GlassClipboard.obj
 0002:00002ab8       ??_C@_0BE@ILKHHCBH@java?1lang?1Throwable@ 0000000180029ab8     GlassClipboard.obj
 0002:00002ad0       ??_C@_0L@PJEMBDGK@getMessage@ 0000000180029ad0     GlassClipboard.obj
 0002:00002ae0       ??_C@_1CA@LEHJGFFI@?$AAJ?$AAa?$AAv?$AAa?$AA?5?$AAM?$AAe?$AAs?$AAs?$AAs?$AAg?$AAe?$AA?3?$AA?$CF?$AAs@ 0000000180029ae0     GlassClipboard.obj
 0002:00002b08       ??_7BaseBitmap@@6B@        0000000180029b08     GlassClipboard.obj
 0002:00002b10       ??_C@_1BI@NIAPJJDL@?$AAH?$AAT?$AAM?$AAL?$AA?5?$AAF?$AAo?$AAr?$AAm?$AAa?$AAt@ 0000000180029b10     GlassClipboard.obj
 0002:00002b28       ??_C@_1CC@LOOKKCJN@?$AAR?$AAi?$AAc?$AAh?$AA?5?$AAT?$AAe?$AAx?$AAt?$AA?5?$AAF?$AAo?$AAr?$AAm?$AAa@ 0000000180029b28     GlassClipboard.obj
 0002:00002b50       ??_C@_1DA@JNCOJDHF@?$AAU?$AAn?$AAi?$AAf?$AAo?$AAr?$AAm?$AAR?$AAe?$AAs?$AAo?$AAu?$AAr?$AAc?$AAe@ 0000000180029b50     GlassClipboard.obj
 0002:00002b80       ??_C@_1CO@KIKIDCMI@?$AAU?$AAn?$AAi?$AAf?$AAo?$AAr?$AAm?$AAR?$AAe?$AAs?$AAo?$AAu?$AAr?$AAc?$AAe@ 0000000180029b80     GlassClipboard.obj
 0002:00002bb0       ??_C@_1CA@PCFNPDAM@?$AAP?$AAa?$AAs?$AAt?$AAe?$AA?5?$AAS?$AAu?$AAc?$AAc?$AAe?$AAe?$AAd?$AAe?$AAd@ 0000000180029bb0     GlassClipboard.obj
 0002:00002bd0       ??_C@_1CK@PIMKBGGH@?$AAP?$AAe?$AAr?$AAf?$AAo?$AAr?$AAm?$AAe?$AAd?$AA?5?$AAD?$AAr?$AAo?$AAp?$AAE@ 0000000180029bd0     GlassClipboard.obj
 0002:00002c00       ??_C@_1CK@BOCFEOCJ@?$AAP?$AAr?$AAe?$AAf?$AAe?$AAr?$AAr?$AAe?$AAd?$AA?5?$AAD?$AAr?$AAo?$AAp?$AAE@ 0000000180029c00     GlassClipboard.obj
 0002:00002c30       ??_C@_1CI@CEGIFMP@?$AAF?$AAi?$AAl?$AAe?$AAG?$AAr?$AAo?$AAu?$AAp?$AAD?$AAe?$AAs?$AAc?$AAr?$AAi@ 0000000180029c30     GlassClipboard.obj
 0002:00002c58       ??_C@_1CK@IHGKIJHD@?$AAF?$AAi?$AAl?$AAe?$AAG?$AAr?$AAo?$AAu?$AAp?$AAD?$AAe?$AAs?$AAc?$AAr?$AAi@ 0000000180029c58     GlassClipboard.obj
 0002:00002c88       ??_C@_1BK@BPLEJIIK@?$AAF?$AAi?$AAl?$AAe?$AAC?$AAo?$AAn?$AAt?$AAe?$AAn?$AAt?$AAs@ 0000000180029c88     GlassClipboard.obj
 0002:00002ca4       ??_C@_15NOBAILHH@?$AAc?$AAf@ 0000000180029ca4     GlassClipboard.obj
 0002:00002cb0       ??_C@_19OOOIFCF@?$AA?$DL?$AAc?$AAf?$AA?$DN@ 0000000180029cb0     GlassClipboard.obj
 0002:00002cc0       ??_C@_1EC@HOBKJIHP@?$AAO?$AAS?$AAE?$AAr?$AAr?$AAo?$AAr?$AA?3?$AA?$CF?$AAd?$AA?5?$AAi?$AAn?$AA?5?$AAC@ 0000000180029cc0     GlassClipboard.obj
 0002:00002d08       ??_C@_1DO@GGCOKLKG@?$AAO?$AAS?$AAE?$AAr?$AAr?$AAo?$AAr?$AA?3?$AA?$CF?$AAd?$AA?5?$AAi?$AAn?$AA?5?$AAC@ 0000000180029d08     GlassClipboard.obj
 0002:00002d48       ??_C@_1DG@JKBFEDEF@?$AAO?$AAS?$AAE?$AAr?$AAr?$AAo?$AAr?$AA?3?$AA?$CF?$AAd?$AA?5?$AAi?$AAn?$AA?5?$AAS@ 0000000180029d48     GlassClipboard.obj
 0002:00002d80       ??_C@_1DK@IDCPPIAL@?$AAN?$AAu?$AAl?$AAl?$AA?5?$AAp?$AAo?$AAi?$AAn?$AAt?$AAe?$AAr?$AA?3?$AA?$CI?$AAH@ 0000000180029d80     GlassClipboard.obj
 0002:00002dc8       ??_7?$IUnknownImpl@UIDataObject@@@@6B@ 0000000180029dc8     GlassClipboard.obj
 0002:00002e38       ??_7?$IUnknownImpl@UIEnumFORMATETC@@@@6B@ 0000000180029e38     GlassClipboard.obj
 0002:00002e80       ??_7ClipboardEnumFORMATETC@ClipboardData@@6B@ 0000000180029e80     GlassClipboard.obj
 0002:00002ec8       ??_7ClipboardData@@6B@     0000000180029ec8     GlassClipboard.obj
 0002:00002f30       ??_C@_1BM@MFBDLDBB@?$AA?$HL?$AAC?$AAl?$AAi?$AAp?$AAb?$AAo?$AAa?$AAr?$AAd?$AA?5?$AA?$CF?$AAs@ 0000000180029f30     GlassClipboard.obj
 0002:00002f50       ??_C@_1BM@MAKPLNFP@?$AA?$HN?$AAC?$AAl?$AAi?$AAp?$AAb?$AAo?$AAa?$AAr?$AAd?$AA?5?$AA?$CF?$AAs@ 0000000180029f50     GlassClipboard.obj
 0002:00002f70       ?empty_data@?1??pushCommit@ClipboardData@@QEAAJPEAUJNIEnv_@@PEAV_jobjectArray@@J@Z@4UtagSTGMEDIUM@@B 0000000180029f70     GlassClipboard.obj
 0002:00002f90       ??_C@_1FE@HFKBLFJI@?$AAA?$AAc?$AAc?$AAe?$AAp?$AAt?$AA?5?$AAC?$AAl?$AAi?$AAp?$AAb?$AAo?$AAa?$AAr@ 0000000180029f90     GlassClipboard.obj
 0002:00002fe8       ??_C@_19JOELNPGP@?$AA?4?$AAu?$AAr?$AAl@ 0000000180029fe8     GlassClipboard.obj
 0002:00002ff8       ??_C@_1DC@GDAHFNHJ@?$AA?$FL?$AAI?$AAn?$AAt?$AAe?$AAr?$AAn?$AAe?$AAt?$AAS?$AAh?$AAo?$AAr?$AAt?$AAc@ 0000000180029ff8     GlassClipboard.obj
 0002:00003030       ??_C@_1CE@CJPKIKNH@?$AAN?$AAu?$AAl?$AAl?$AA?5?$AAp?$AAo?$AAi?$AAn?$AAt?$AAe?$AAr?$AA?3?$AAd?$AAa@ 000000018002a030     GlassClipboard.obj
 0002:00003058       ??_C@_1BM@LAGIIPPD@?$AA?$HM?$AA?2?$AA?$DP?$AA?$CK?$AA?$DM?$AA?$CC?$AA?8?$AA?3?$AA?$DO?$AA?$CL?$AA?$FL?$AA?$FN?$AA?1@ 000000018002a058     GlassClipboard.obj
 0002:00003078       ??_C@_1DM@DAFJKEJJ@?$AAN?$AAu?$AAl?$AAl?$AA?5?$AAp?$AAo?$AAi?$AAn?$AAt?$AAe?$AAr?$AA?3?$AAp?$AAm@ 000000018002a078     GlassClipboard.obj
 0002:000030b4       ??_C@_03PLHFFLIH@ptr@      000000018002a0b4     GlassClipboard.obj
 0002:000030b8       ??_C@_04MEMAJGDJ@name@     000000018002a0b8     GlassClipboard.obj
 0002:000030c0       ??_C@_0BI@CMLKAMFL@?$CILjava?1lang?1String?$DLJ?$CJ?$FLB@ 000000018002a0c0     GlassClipboard.obj
 0002:000030d8       ??_C@_0N@EPLPJBFA@fosSerialize@ 000000018002a0d8     GlassClipboard.obj
 0002:000030e8       ??_C@_0P@CCAAKCNF@contentChanged@ 000000018002a0e8     GlassClipboard.obj
 0002:000030f8       ??_C@_04PFANPMCN@?$CII?$CJV@ 000000018002a0f8     GlassClipboard.obj
 0002:00003100       ??_C@_0BA@KAGNAOIO@actionPerformed@ 000000018002a100     GlassClipboard.obj
 0002:000031b8       ??_C@_1BA@POFILAIO@?$AA?$DL?$AAi?$AAn?$AAd?$AAe?$AAx?$AA?$DN@ 000000018002a1b8     GlassClipboard.obj
 0002:000031c8       ??_C@_1O@NDGELGBC@?$AA?$DL?$AAs?$AAi?$AAz?$AAe?$AA?$DN@ 000000018002a1c8     GlassClipboard.obj
 0002:000031d8       ??_C@_1BA@CGJNLJLE@?$AA?$DL?$AAc?$AAl?$AAs?$AAi?$AAd?$AA?$DN@ 000000018002a1d8     GlassClipboard.obj
 0002:000031e8       ??_C@_1BA@ECPLHCOD@?$AA?$DL?$AAn?$AAa?$AAm?$AAe?$AA?$DN?$AA?$CC@ 000000018002a1e8     GlassClipboard.obj
 0002:000031f8       ??_C@_01BJJEKLCA@?$CC@     000000018002a1f8     GlassClipboard.obj
 0002:00003200       ??_C@_1CO@GBPOJCDJ@?$AA?$DL?$AAa?$AAc?$AAc?$AAe?$AAs?$AAs?$AA?9?$AAt?$AAy?$AAp?$AAe?$AA?$DN?$AAc?$AAl@ 000000018002a200     GlassClipboard.obj
 0002:00003290       ??_C@_0BD@OLBABOEK@vector?$DMT?$DO?5too?5long@ 000000018002a290     GlassClipboard.obj
 0002:000032a8       ??_C@_0BB@MOGOBHAF@list?$DMT?$DO?5too?5long@ 000000018002a2a8     GlassClipboard.obj
 0002:000032bc       __real@3f800000            000000018002a2bc     GlassClipboard.obj
 0002:000032c0       __real@5f800000            000000018002a2c0     GlassClipboard.obj
 0002:000032c8       ??_C@_1CA@IJNNCDJK@?$AAI?$AAD?$AAC?$AA_?$AAC?$AAL?$AAO?$AAS?$AAE?$AAD?$AA_?$AAH?$AAA?$AAN?$AAD@ 000000018002a2c8     GlassCursor.obj
 0002:000032e8       ??_C@_1BM@DFJIJIPL@?$AAI?$AAD?$AAC?$AA_?$AAO?$AAP?$AAE?$AAN?$AA_?$AAH?$AAA?$AAN?$AAD@ 000000018002a2e8     GlassCursor.obj
 0002:00003308       ??_C@_0BG@BEDKDBCL@com?1sun?1glass?1ui?1Size@ 000000018002a308     GlassCursor.obj
 0002:00003320       ??_C@_06FALKBLGB@?$DMinit?$DO@ 000000018002a320     GlassCursor.obj
 0002:00003328       ??_C@_0BI@CPOEGDKM@com?1sun?1glass?1ui?1Cursor@ 000000018002a328     GlassCursor.obj
 0002:00003340       ??_C@_07JOBBNEAO@getType@  000000018002a340     GlassCursor.obj
 0002:00003348       ??_C@_0BA@FDLHHJHL@getNativeCursor@ 000000018002a348     GlassCursor.obj
 0002:00003358       ??_C@_0BG@KGAEKNHN@com?4sun?4glass?4ui?4Size@ 000000018002a358     GlassCursor.obj
 0002:00003500       _GUID_00000121_0000_0000_c000_000000000046 000000018002a500     GlassDnD.obj
 0002:00003510       _GUID_00000122_0000_0000_c000_000000000046 000000018002a510     GlassDnD.obj
 0002:00003528       ??_7?$IUnknownImpl@UIDropTarget@@@@6B@ 000000018002a528     GlassDnD.obj
 0002:00003570       ??_7GlassDropTarget@@6B@   000000018002a570     GlassDnD.obj
 0002:000035b8       ??_7?$IUnknownImpl@UIDropSource@@@@6B@ 000000018002a5b8     GlassDnD.obj
 0002:000035f0       ??_7GlassDropSource@@6B@   000000018002a5f0     GlassDnD.obj
 0002:00003620       ??_C@_0CF@DGEBIKOB@com?4sun?4glass?4ui?4win?4WinDnDClip@ 000000018002a620     GlassDnD.obj
 0002:00003648       ??_C@_0CJ@MIDDOHHM@?$CI?$CJLcom?1sun?1glass?1ui?1win?1WinDnDC@ 000000018002a648     GlassDnD.obj
 0002:00003678       ??_C@_0M@NBBCBFGN@getInstance@ 000000018002a678     GlassDnD.obj
 0002:00003688       ??_C@_0BK@OIHLMLHN@setSourceSupportedActions@ 000000018002a688     GlassDnD.obj
 0002:000036a8       ??_C@_0O@FBEAIDDP@setDragButton@ 000000018002a6a8     GlassDnD.obj
 0002:000036b8       ??_C@_0O@COFODAEI@getDragButton@ 000000018002a6b8     GlassDnD.obj
 0002:000036c8       ?GCS_INDEX@GlassInputTextInfo@@0QBKB 000000018002a6c8     GlassInputTextInfo.obj
 0002:00003758       ??_C@_0BO@COJPGNC@?$CILcom?1sun?1glass?1ui?1Window?$DLI?$CJZ@ 000000018002a758     GlassMenu.obj
 0002:00003778       ??_C@_0O@DMLMOOA@notifyCommand@ 000000018002a778     GlassMenu.obj
 0002:00003788       ??_C@_1BI@BLMDJBCD@?$AA?2?$AAS?$AAH?$AAC?$AAo?$AAr?$AAe?$AA?4?$AAd?$AAl?$AAl@ 000000018002a788     GlassScreen.obj
 0002:000037a0       ??_C@_0BH@DHHFAFBK@GetProcessDpiAwareness@ 000000018002a7a0     GlassScreen.obj
 0002:000037b8       ??_C@_0BH@DGFLCCMF@SetProcessDpiAwareness@ 000000018002a7b8     GlassScreen.obj
 0002:000037d0       ??_C@_0BB@MAMHPNNC@GetDpiForMonitor@ 000000018002a7d0     GlassScreen.obj
 0002:000037e8       ??_C@_1BA@PICGEGJB@?$AAD?$AAI?$AAS?$AAP?$AAL?$AAA?$AAY@ 000000018002a7e8     GlassScreen.obj
 0002:000037f8       ??_C@_0BI@BGHPFJKP@com?4sun?4glass?4ui?4Screen@ 000000018002a7f8     GlassScreen.obj
 0002:00003810       ??_C@_0BC@EKBEDHKH@?$CIJIIIIIIIIIIIFF?$CJV@ 000000018002a810     GlassScreen.obj
 0002:00003828       ??_C@_0BG@GOKLPBOG@notifySettingsChanged@ 000000018002a828     GlassScreen.obj
 0002:00003840       __real@3f000000            000000018002a840     GlassScreen.obj
 0002:00003844       __real@42c00000            000000018002a844     GlassScreen.obj
 0002:00003878       ??_7GlassTextRangeProvider@@6B@ 000000018002a878     GlassTextRangeProvider.obj
 0002:00003928       _GUID_5347ad7b_c355_46f8_aff5_909033582f63 000000018002a928     GlassTextRangeProvider.obj
 0002:00003938       ??_C@_05KCLFCCEP@Clone@    000000018002a938     GlassTextRangeProvider.obj
 0002:00003940       ??_C@_0CP@KHIBDBAJ@?$CILcom?1sun?1glass?1ui?1win?1WinTextR@ 000000018002a940     GlassTextRangeProvider.obj
 0002:00003970       ??_C@_07MBOMJGGF@Compare@  000000018002a970     GlassTextRangeProvider.obj
 0002:00003978       ??_C@_0DB@FEGPOBAH@?$CIILcom?1sun?1glass?1ui?1win?1WinText@ 000000018002a978     GlassTextRangeProvider.obj
 0002:000039b0       ??_C@_0BB@FEMHFCGN@CompareEndpoints@ 000000018002a9b0     GlassTextRangeProvider.obj
 0002:000039c8       ??_C@_0BG@KHBLGKPG@ExpandToEnclosingUnit@ 000000018002a9c8     GlassTextRangeProvider.obj
 0002:000039e0       ??_C@_0CH@KGJKGKBO@?$CIILcom?1sun?1glass?1ui?1win?1WinVari@ 000000018002a9e0     GlassTextRangeProvider.obj
 0002:00003a08       ??_C@_0O@GLHHGFDF@FindAttribute@ 000000018002aa08     GlassTextRangeProvider.obj
 0002:00003a18       ??_C@_0BI@KKHMKCJN@?$CILjava?1lang?1String?$DLZZ?$CJJ@ 000000018002aa18     GlassTextRangeProvider.obj
 0002:00003a30       ??_C@_08ODOMLLJI@FindText@ 000000018002aa30     GlassTextRangeProvider.obj
 0002:00003a40       ??_C@_0BC@INEKFFKP@GetAttributeValue@ 000000018002aa40     GlassTextRangeProvider.obj
 0002:00003a54       ??_C@_04OBKKMHMD@?$CI?$CJ?$FLD@ 000000018002aa54     GlassTextRangeProvider.obj
 0002:00003a60       ??_C@_0BG@CBJILAPO@GetBoundingRectangles@ 000000018002aa60     GlassTextRangeProvider.obj
 0002:00003a78       ??_C@_0BE@EBOAEDGN@GetEnclosingElement@ 000000018002aa78     GlassTextRangeProvider.obj
 0002:00003a90       ??_C@_0BG@HKHHMCPO@?$CII?$CJLjava?1lang?1String?$DL@ 000000018002aa90     GlassTextRangeProvider.obj
 0002:00003aa8       ??_C@_07CAGCCMNH@GetText@  000000018002aaa8     GlassTextRangeProvider.obj
 0002:00003ab0       ??_C@_05BKHNKL@?$CIII?$CJI@ 000000018002aab0     GlassTextRangeProvider.obj
 0002:00003ab8       ??_C@_06BDEOKIHC@?$CIIII?$CJI@ 000000018002aab8     GlassTextRangeProvider.obj
 0002:00003ac0       ??_C@_0BD@BAEBBNKB@MoveEndpointByUnit@ 000000018002aac0     GlassTextRangeProvider.obj
 0002:00003ad8       ??_C@_0DB@JJDFOPJJ@?$CIILcom?1sun?1glass?1ui?1win?1WinText@ 000000018002aad8     GlassTextRangeProvider.obj
 0002:00003b10       ??_C@_0BE@KFKJMPHI@MoveEndpointByRange@ 000000018002ab10     GlassTextRangeProvider.obj
 0002:00003b24       ??_C@_04LHKBAEFM@?$CIZ?$CJV@ 000000018002ab24     GlassTextRangeProvider.obj
 0002:00003b30       ??_C@_0M@IDBPMMNE@GetChildren@ 000000018002ab30     GlassTextRangeProvider.obj
 0002:00003c88       ??_7GlassView@@6B@         000000018002ac88     GlassView.obj
 0002:00003c90       ??_C@_0N@PEPENGDB@notifyResize@ 000000018002ac90     GlassView.obj
 0002:00003ca0       ??_C@_07CBAIJIEJ@?$CIIIII?$CJV@ 000000018002aca0     GlassView.obj
 0002:00003ca8       ??_C@_0O@OCGEGGOB@notifyRepaint@ 000000018002aca8     GlassView.obj
 0002:00003cb8       ??_C@_08IDOFGICB@?$CIII?$FLCI?$CJV@ 000000018002acb8     GlassView.obj
 0002:00003cc8       ??_C@_09LACOABNC@notifyKey@ 000000018002acc8     GlassView.obj
 0002:00003cd8       ??_C@_0N@MLNPBPAB@?$CIIIIIIIIZZ?$CJV@ 000000018002acd8     GlassView.obj
 0002:00003ce8       ??_C@_0M@FMALCKMK@notifyMouse@ 000000018002ace8     GlassView.obj
 0002:00003cf8       ??_C@_08MFOHCLGB@?$CIIIIIZ?$CJV@ 000000018002acf8     GlassView.obj
 0002:00003d08       ??_C@_0L@KMAMFABP@notifyMenu@ 000000018002ad08     GlassView.obj
 0002:00003d18       ??_C@_0BB@IMNMAPKA@?$CIIIIIDDIIIIIDD?$CJV@ 000000018002ad18     GlassView.obj
 0002:00003d30       ??_C@_0N@FFLICMHP@notifyScroll@ 000000018002ad30     GlassView.obj
 0002:00003d40       ??_C@_0BP@DILCKOCF@?$CILjava?1lang?1String?$DL?$FLI?$FLI?$FLBIII?$CJV@ 000000018002ad40     GlassView.obj
 0002:00003d60       ??_C@_0BC@KDDAAMGL@notifyInputMethod@ 000000018002ad60     GlassView.obj
 0002:00003d78       ??_C@_08EKBBNNIO@?$CIIIIII?$CJI@ 000000018002ad78     GlassView.obj
 0002:00003d88       ??_C@_0BA@PBBPOJMO@notifyDragEnter@ 000000018002ad88     GlassView.obj
 0002:00003d98       ??_C@_0P@LCHKLGMB@notifyDragOver@ 000000018002ad98     GlassView.obj
 0002:00003da8       ??_C@_0BA@NNOELHAF@notifyDragLeave@ 000000018002ada8     GlassView.obj
 0002:00003db8       ??_C@_0P@HFGJPHND@notifyDragDrop@ 000000018002adb8     GlassView.obj
 0002:00003dc8       ??_C@_0L@MPIJMEFH@notifyView@ 000000018002adc8     GlassView.obj
 0002:00003dd8       ??_C@_08GOOJDBNP@getWidth@ 000000018002add8     GlassView.obj
 0002:00003de8       ??_C@_09BDJIKBK@getHeight@ 000000018002ade8     GlassView.obj
 0002:00003df8       ??_C@_0O@CPELCIDO@getAccessible@ 000000018002adf8     GlassView.obj
 0002:00003e08       ??_C@_05NJOHEINL@?$CII?$CJ?$FLD@ 000000018002ae08     GlassView.obj
 0002:00003e10       ??_C@_0CF@BGPJFKOL@notifyInputMethodCandidatePosRe@ 000000018002ae10     GlassView.obj
 0002:00003ef8       ??_C@_1CC@JMHKHDHK@?$AAG?$AAl?$AAa?$AAs?$AAs?$AAW?$AAi?$AAn?$AAd?$AAo?$AAw?$AAC?$AAl?$AAa?$AAs@ 000000018002aef8     GlassWindow.obj
 0002:00004068       ??_7GlassWindow@@6BBaseWnd@@@ 000000018002b068     GlassWindow.obj
 0002:000040a8       ??_7GlassWindow@@6BViewContainer@@@ 000000018002b0a8     GlassWindow.obj
 0002:000040b0       ??_C@_1EC@BNDGDNLO@?$AAS?$AAe?$AAt?$AAD?$AAe?$AAl?$AAe?$AAg?$AAa?$AAt?$AAe?$AAW?$AAi?$AAn?$AAd@ 000000018002b0b0     GlassWindow.obj
 0002:00004100       ??_C@_1JE@HMKBGAAE@?$AAE?$AAn?$AAt?$AAe?$AAr?$AAF?$AAu?$AAl?$AAl?$AAS?$AAc?$AAr?$AAe?$AAe?$AAn@ 000000018002b100     GlassWindow.obj
 0002:00004198       ??_C@_0M@BOAFIGJB@notifyClose@ 000000018002b198     GlassWindow.obj
 0002:000041a8       ??_C@_0L@JLEGFAOC@notifyMove@ 000000018002b1a8     GlassWindow.obj
 0002:000041b4       ??_C@_06NOBEKGOM@?$CIIII?$CJV@ 000000018002b1b4     GlassWindow.obj
 0002:000041bc       ??_C@_05BHHDPELC@?$CIFF?$CJV@ 000000018002b1bc     GlassWindow.obj
 0002:000041c8       ??_C@_0BD@KIKNFHNE@notifyScaleChanged@ 000000018002b1c8     GlassWindow.obj
 0002:000041e0       ??_C@_0M@FLKLBLCP@notifyFocus@ 000000018002b1e0     GlassWindow.obj
 0002:000041f0       ??_C@_0BE@PGOKJDBF@notifyFocusDisabled@ 000000018002b1f0     GlassWindow.obj
 0002:00004208       ??_C@_0BC@KMKAINGH@notifyFocusUngrab@ 000000018002b208     GlassWindow.obj
 0002:00004220       ??_C@_0BN@DCGGBNJB@?$CILcom?1sun?1glass?1ui?1Screen?$DL?$CJV@ 000000018002b220     GlassWindow.obj
 0002:00004240       ??_C@_0BK@CJDFNEOM@notifyMoveToAnotherScreen@ 000000018002b240     GlassWindow.obj
 0002:00004260       ??_C@_0O@EFFAPAPF@notifyDestroy@ 000000018002b260     GlassWindow.obj
 0002:00004270       ??_C@_04OHLIFDMD@?$CIJ?$CJV@ 000000018002b270     GlassWindow.obj
 0002:00004278       ??_C@_0BC@NJLLIKPC@notifyDelegatePtr@ 000000018002b278     GlassWindow.obj
 0002:00004500       __real@437f0000            000000018002b500     GlassWindow.obj
 0002:00004510       __xmm@ffffffffffffffffffffffffffffffff 000000018002b510     GlassWindow.obj
 0002:00004878       CLSID_InertiaProcessor     000000018002b878     ManipulationEvents.obj
 0002:00004888       CLSID_ManipulationProcessor 000000018002b888     ManipulationEvents.obj
 0002:000048f0       ??_7?$IUnknownImpl@U_IManipulationEvents@@@@6B@ 000000018002b8f0     ManipulationEvents.obj
 0002:00004930       ??_7ManipulationEventSink@@6B@ 000000018002b930     ManipulationEvents.obj
 0002:00004968       _GUID_4f62c8da_9c53_4b22_93df_927a862bbb03 000000018002b968     ManipulationEvents.obj
 0002:000049f8       ??_7Bitmap@@6B@            000000018002b9f8     Pixels.obj
 0002:00004a08       ??_7DIBitmap@@6B@          000000018002ba08     Pixels.obj
 0002:00004a10       ??_C@_0L@BEIADPDP@attachData@ 000000018002ba10     Pixels.obj
 0002:00004a80       ??_7Timer@@6B@             000000018002ba80     Timer.obj
 0002:00004a98       ??_7RunnableTimer@@6B@     000000018002ba98     Timer.obj
 0002:00004aa8       ??_C@_0BN@PMLEHDJL@com?1sun?1glass?1ui?1Application@ 000000018002baa8     Utils.obj
 0002:00004b98       ??_7ViewContainer@@6B@     000000018002bb98     ViewContainer.obj
 0002:00004ba8       ??_7ManipulationEventSinkWithInertia@@6B@ 000000018002bba8     ViewContainer.obj
 0002:00004be0       ??_C@_1EE@HJKCKAGB@?$AAM?$AAi?$AAc?$AAr?$AAo?$AAs?$AAo?$AAf?$AAt?$AAT?$AAa?$AAb?$AAl?$AAe?$AAt@ 000000018002bbe0     ViewContainer.obj
 0002:00004c28       ??_C@_0CH@BBPAOJCF@com?4sun?4glass?4ui?4win?4WinGesture@ 000000018002bc28     ViewContainer.obj
 0002:00004c50       ??_C@_04LPPGDFDD@MOVE@     000000018002bc50     ViewContainer.obj
 0002:00004c58       ??_C@_05FDMGPMHB@PRESS@    000000018002bc58     ViewContainer.obj
 0002:00004c60       ??_C@_07LDDIIHCM@RELEASE@  000000018002bc60     ViewContainer.obj
 0002:00004c68       ??_C@_06MNHBPGAA@UNKOWN@   000000018002bc68     ViewContainer.obj
 0002:00004c70       ??_C@_0BG@HAFLLIGG@TOUCH?5FIX?5UP?5?5?$CFd?0?5?$CFs?6@ 000000018002bc70     ViewContainer.obj
 0002:00004c88       ??_C@_0BM@OCCHOIOO@TOUCH?5FIX?5MV?9?$DODOWN?5?5?$CFd?0?5?$CFs?6@ 000000018002bc88     ViewContainer.obj
 0002:00004ca8       ??_C@_0CO@GKLDOLEM@Touch?5Sequence?5?$CFd?1?$CFd?5win?$DN?$CFd?5vie@ 000000018002bca8     ViewContainer.obj
 0002:00004cd8       ??_C@_0P@IDHPHH@?5?5old?5?5?$CFd?0?5?$CFs?6@ 000000018002bcd8     ViewContainer.obj
 0002:00004ce8       ??_C@_0P@CKMMFEFI@?5?5in?5?5?5?$CFd?0?5?$CFs?6@ 000000018002bce8     ViewContainer.obj
 0002:00004cf8       ??_C@_0P@NAJFJIMI@?5?5this?5?$CFd?0?5?$CFd?6@ 000000018002bcf8     ViewContainer.obj
 0002:00004d08       ??_C@_06LPBLNEE@?5?5?9?9?9?6@ 000000018002bd08     ViewContainer.obj
 0002:00004d10       ??_C@_0CJ@DGJDDDIM@?$CILcom?1sun?1glass?1ui?1View?$DLIZZIIII@ 000000018002bd10     ViewContainer.obj
 0002:00004d40       ??_C@_0BB@NJDGDIJM@gesturePerformed@ 000000018002bd40     ViewContainer.obj
 0002:00004d58       ??_C@_0BL@FOOHPFJN@?$CILcom?1sun?1glass?1ui?1View?$DL?$CJV@ 000000018002bd58     ViewContainer.obj
 0002:00004d78       ??_C@_0BH@PDNFGFNM@inertiaGestureFinished@ 000000018002bd78     ViewContainer.obj
 0002:00004d90       ??_C@_0BO@FCALDLIP@?$CILcom?1sun?1glass?1ui?1View?$DLIZI?$CJV@ 000000018002bd90     ViewContainer.obj
 0002:00004db0       ??_C@_0BG@MIMJIOJN@notifyBeginTouchEvent@ 000000018002bdb0     ViewContainer.obj
 0002:00004dc8       ??_C@_0CB@OKJHMEHH@?$CILcom?1sun?1glass?1ui?1View?$DLIJIIII?$CJ@ 000000018002bdc8     ViewContainer.obj
 0002:00004df0       ??_C@_0BF@HFAOGJBF@notifyNextTouchEvent@ 000000018002bdf0     ViewContainer.obj
 0002:00004e08       ??_C@_0BE@KGJEHDIA@notifyEndTouchEvent@ 000000018002be08     ViewContainer.obj
 0002:00004e1c       __real@3e6b851f            000000018002be1c     ViewContainer.obj
 0002:00004e20       __real@3fe0000000000000    000000018002be20     ViewContainer.obj
 0002:00004e28       __real@4059000000000000    000000018002be28     ViewContainer.obj
 0002:00004e30       __real@405e000000000000    000000018002be30     ViewContainer.obj
 0002:00004e38       __real@41200000            000000018002be38     ViewContainer.obj
 0002:00004e3c       __real@42c80000            000000018002be3c     ViewContainer.obj
 0002:00004e40       __xmm@40440000000000004044000000000000 000000018002be40     ViewContainer.obj
 0002:00004e50       __xmm@7fffffffffffffff7fffffffffffffff 000000018002be50     ViewContainer.obj
 0002:00004e60       __xmm@80000000000000008000000000000000 000000018002be60     ViewContainer.obj
 0002:00004e70       __sz_urlmon_dll            000000018002be70     urlmon:urlmon.dll
 0002:00004e80       __sz_WINMM_dll             000000018002be80     winmm:WINMM.dll
 0002:00004e90       __sz_SHELL32_dll           000000018002be90     shell32:SHELL32.dll
 0002:00004ea0       IID_IShellFolder           000000018002bea0     shell32:shguid.obj
 0002:00004eb0       CLSID_DragDropHelper       000000018002beb0     shell32:shguid.obj
 0002:00004ec0       IID_IShellLinkW            000000018002bec0     shell32:shguid.obj
 0002:00004ed0       __sz_UIAutomationCore_DLL  000000018002bed0     Uiautomationcore:UIAutomationCore.DLL
 0002:00004ef0       __sz_dwmapi_dll            000000018002bef0     dwmapi:dwmapi.dll
 0002:00004f00       IID_IFileSaveDialog        000000018002bf00     uuid:shguids.obj
 0002:00004f10       IID_IFileOpenDialog        000000018002bf10     uuid:shguids.obj
 0002:00004f20       CLSID_FileOpenDialog       000000018002bf20     uuid:shguids.obj
 0002:00004f30       CLSID_FileSaveDialog       000000018002bf30     uuid:shguids.obj
 0002:00004f40       IID_IShellItem             000000018002bf40     uuid:shguids.obj
 0002:00004f50       IID_IDropTargetHelper      000000018002bf50     uuid:shguids.obj
 0002:00004f60       IID_IDragSourceHelper      000000018002bf60     uuid:shguids.obj
 0002:00004f70       IID_IUnknown               000000018002bf70     uuid:unknwn_i.obj
 0002:00004f80       IID_IViewObject2           000000018002bf80     uuid:oleidl_i.obj
 0002:00004f90       IID_IConnectionPointContainer 000000018002bf90     uuid:ocidl_i.obj
 0002:00004fa0       ??_7_com_error@@6B@        000000018002bfa0     comsuppw:comraise.obj
 0002:00004fb0       __sz_USER32_dll            000000018002bfb0     user32:USER32.dll
 0002:00004fc8       ??_7type_info@@6B@         000000018002bfc8     MSVCRT:std_type_info_static.obj
 0002:00005020       ??_C@_1EC@JIJBPKFM@?$AAa?$AAp?$AAi?$AA?9?$AAm?$AAs?$AA?9?$AAw?$AAi?$AAn?$AA?9?$AAc?$AAo?$AAr?$AAe@ 000000018002c020     MSVCRT:thread_safe_statics.obj
 0002:00005068       ??_C@_1BK@MGMFAEKH@?$AAk?$AAe?$AAr?$AAn?$AAe?$AAl?$AA3?$AA2?$AA?4?$AAd?$AAl?$AAl@ 000000018002c068     MSVCRT:thread_safe_statics.obj
 0002:00005088       ??_C@_0BM@HLJJNPAH@InitializeConditionVariable@ 000000018002c088     MSVCRT:thread_safe_statics.obj
 0002:000050a8       ??_C@_0BJ@JEBJOJFJ@SleepConditionVariableCS@ 000000018002c0a8     MSVCRT:thread_safe_statics.obj
 0002:000050c8       ??_C@_0BJ@PGPPEPCC@WakeAllConditionVariable@ 000000018002c0c8     MSVCRT:thread_safe_statics.obj
 0002:000050e8       _pDefaultRawDllMain        000000018002c0e8     MSVCRT:dll_dllmain.obj
 0002:000050e8       _pRawDllMain               000000018002c0e8     MSVCRT:dll_dllmain.obj
 0002:000050f8       ??_7exception@std@@6B@     000000018002c0f8     MSVCRT:throw_bad_alloc.obj
 0002:00005108       ??_C@_0BC@EOODALEL@Unknown?5exception@ 000000018002c108     MSVCRT:throw_bad_alloc.obj
 0002:00005128       ??_7bad_alloc@std@@6B@     000000018002c128     MSVCRT:throw_bad_alloc.obj
 0002:00005138       ??_C@_0P@GHFPNOJB@bad?5allocation@ 000000018002c138     MSVCRT:throw_bad_alloc.obj
 0002:00005150       ??_7bad_array_new_length@std@@6B@ 000000018002c150     MSVCRT:throw_bad_alloc.obj
 0002:00005160       ??_C@_0BF@KINCDENJ@bad?5array?5new?5length@ 000000018002c160     MSVCRT:throw_bad_alloc.obj
 0002:00005188       ??_C@_1BK@DBDEIDLH@?$AAK?$AAE?$AAR?$AAN?$AAE?$AAL?$AA3?$AA2?$AA?4?$AAD?$AAL?$AAL@ 000000018002c188     delayimp:delayhlp.obj
 0002:000051a8       ??_C@_0BI@OMNLIJDB@AcquireSRWLockExclusive@ 000000018002c1a8     delayimp:delayhlp.obj
 0002:000051c0       ??_C@_0BI@HMIEPCNJ@ReleaseSRWLockExclusive@ 000000018002c1c0     delayimp:delayhlp.obj
 0002:000051d8       __pfnDliNotifyHook2        000000018002c1d8     delayimp:delayhk2.obj
 0002:000051e0       __pfnDliFailureHook2       000000018002c1e0     delayimp:delayhk1.obj
 0002:000051f0       _load_config_used          000000018002c1f0     MSVCRT:loadcfg.obj
 0002:00005310       _tls_used                  000000018002c310     MSVCRT:tlssup.obj
 0002:00005340       ??_R4BaseWnd@@6B@          000000018002c340     BaseWnd.obj
 0002:00005368       ??_R3BaseWnd@@8            000000018002c368     BaseWnd.obj
 0002:00005380       ??_R2BaseWnd@@8            000000018002c380     BaseWnd.obj
 0002:00005390       ??_R1A@?0A@EA@BaseWnd@@8   000000018002c390     BaseWnd.obj
 0002:000053b8       ??_R4Action@@6B@           000000018002c3b8     BaseWnd.obj
 0002:000053e0       ??_R3Action@@8             000000018002c3e0     BaseWnd.obj
 0002:000053f8       ??_R2Action@@8             000000018002c3f8     BaseWnd.obj
 0002:00005408       ??_R1A@?0A@EA@Action@@8    000000018002c408     BaseWnd.obj
 0002:000054b0       ??_R4BackgroundWindow@@6B@ 000000018002c4b0     FullScreenWindow.obj
 0002:000054d8       ??_R3BackgroundWindow@@8   000000018002c4d8     FullScreenWindow.obj
 0002:000054f0       ??_R2BackgroundWindow@@8   000000018002c4f0     FullScreenWindow.obj
 0002:00005508       ??_R1A@?0A@EA@BackgroundWindow@@8 000000018002c508     FullScreenWindow.obj
 0002:00005530       ??_R4FullScreenWindow@@6BBaseWnd@@@ 000000018002c530     FullScreenWindow.obj
 0002:00005558       ??_R3FullScreenWindow@@8   000000018002c558     FullScreenWindow.obj
 0002:00005570       ??_R2FullScreenWindow@@8   000000018002c570     FullScreenWindow.obj
 0002:00005590       ??_R1A@?0A@EA@FullScreenWindow@@8 000000018002c590     FullScreenWindow.obj
 0002:000055b8       ??_R1CI@?0A@EA@ViewContainer@@8 000000018002c5b8     FullScreenWindow.obj
 0002:000055e0       ??_R3ViewContainer@@8      000000018002c5e0     FullScreenWindow.obj
 0002:000055f8       ??_R2ViewContainer@@8      000000018002c5f8     FullScreenWindow.obj
 0002:00005608       ??_R1A@?0A@EA@ViewContainer@@8 000000018002c608     FullScreenWindow.obj
 0002:00005630       ??_R4FullScreenWindow@@6BViewContainer@@@ 000000018002c630     FullScreenWindow.obj
 0002:00005658       ??_R3IUnknown@@8           000000018002c658     GlassAccessible.obj
 0002:00005670       ??_R2IUnknown@@8           000000018002c670     GlassAccessible.obj
 0002:00005680       ??_R1A@?0A@EA@IUnknown@@8  000000018002c680     GlassAccessible.obj
 0002:000056a8       ??_R3IRawElementProviderSimple@@8 000000018002c6a8     GlassAccessible.obj
 0002:000056c0       ??_R2IRawElementProviderSimple@@8 000000018002c6c0     GlassAccessible.obj
 0002:000056d8       ??_R1A@?0A@EA@IRawElementProviderSimple@@8 000000018002c6d8     GlassAccessible.obj
 0002:00005700       ??_R3IRawElementProviderFragmentRoot@@8 000000018002c700     GlassAccessible.obj
 0002:00005718       ??_R2IRawElementProviderFragmentRoot@@8 000000018002c718     GlassAccessible.obj
 0002:00005730       ??_R1A@?0A@EA@IRawElementProviderFragmentRoot@@8 000000018002c730     GlassAccessible.obj
 0002:00005758       ??_R3IRawElementProviderFragment@@8 000000018002c758     GlassAccessible.obj
 0002:00005770       ??_R2IRawElementProviderFragment@@8 000000018002c770     GlassAccessible.obj
 0002:00005788       ??_R1A@?0A@EA@IRawElementProviderFragment@@8 000000018002c788     GlassAccessible.obj
 0002:000057b0       ??_R3IRawElementProviderAdviseEvents@@8 000000018002c7b0     GlassAccessible.obj
 0002:000057c8       ??_R2IRawElementProviderAdviseEvents@@8 000000018002c7c8     GlassAccessible.obj
 0002:000057e0       ??_R1A@?0A@EA@IRawElementProviderAdviseEvents@@8 000000018002c7e0     GlassAccessible.obj
 0002:00005808       ??_R3IExpandCollapseProvider@@8 000000018002c808     GlassAccessible.obj
 0002:00005820       ??_R2IExpandCollapseProvider@@8 000000018002c820     GlassAccessible.obj
 0002:00005838       ??_R1A@?0A@EA@IExpandCollapseProvider@@8 000000018002c838     GlassAccessible.obj
 0002:00005860       ??_R3IGridProvider@@8      000000018002c860     GlassAccessible.obj
 0002:00005878       ??_R2IGridProvider@@8      000000018002c878     GlassAccessible.obj
 0002:00005890       ??_R1A@?0A@EA@IGridProvider@@8 000000018002c890     GlassAccessible.obj
 0002:000058b8       ??_R3IGridItemProvider@@8  000000018002c8b8     GlassAccessible.obj
 0002:000058d0       ??_R2IGridItemProvider@@8  000000018002c8d0     GlassAccessible.obj
 0002:000058e8       ??_R1A@?0A@EA@IGridItemProvider@@8 000000018002c8e8     GlassAccessible.obj
 0002:00005910       ??_R3IInvokeProvider@@8    000000018002c910     GlassAccessible.obj
 0002:00005928       ??_R2IInvokeProvider@@8    000000018002c928     GlassAccessible.obj
 0002:00005940       ??_R1A@?0A@EA@IInvokeProvider@@8 000000018002c940     GlassAccessible.obj
 0002:00005968       ??_R3IRangeValueProvider@@8 000000018002c968     GlassAccessible.obj
 0002:00005980       ??_R2IRangeValueProvider@@8 000000018002c980     GlassAccessible.obj
 0002:00005998       ??_R1A@?0A@EA@IRangeValueProvider@@8 000000018002c998     GlassAccessible.obj
 0002:000059c0       ??_R3IScrollItemProvider@@8 000000018002c9c0     GlassAccessible.obj
 0002:000059d8       ??_R2IScrollItemProvider@@8 000000018002c9d8     GlassAccessible.obj
 0002:000059f0       ??_R1A@?0A@EA@IScrollItemProvider@@8 000000018002c9f0     GlassAccessible.obj
 0002:00005a18       ??_R3ISelectionProvider@@8 000000018002ca18     GlassAccessible.obj
 0002:00005a30       ??_R2ISelectionProvider@@8 000000018002ca30     GlassAccessible.obj
 0002:00005a48       ??_R1A@?0A@EA@ISelectionProvider@@8 000000018002ca48     GlassAccessible.obj
 0002:00005a70       ??_R3IScrollProvider@@8    000000018002ca70     GlassAccessible.obj
 0002:00005a88       ??_R2IScrollProvider@@8    000000018002ca88     GlassAccessible.obj
 0002:00005aa0       ??_R1A@?0A@EA@IScrollProvider@@8 000000018002caa0     GlassAccessible.obj
 0002:00005ac8       ??_R3ISelectionItemProvider@@8 000000018002cac8     GlassAccessible.obj
 0002:00005ae0       ??_R2ISelectionItemProvider@@8 000000018002cae0     GlassAccessible.obj
 0002:00005af8       ??_R1A@?0A@EA@ISelectionItemProvider@@8 000000018002caf8     GlassAccessible.obj
 0002:00005b20       ??_R3ITableProvider@@8     000000018002cb20     GlassAccessible.obj
 0002:00005b38       ??_R2ITableProvider@@8     000000018002cb38     GlassAccessible.obj
 0002:00005b50       ??_R1A@?0A@EA@ITableProvider@@8 000000018002cb50     GlassAccessible.obj
 0002:00005b78       ??_R3ITableItemProvider@@8 000000018002cb78     GlassAccessible.obj
 0002:00005b90       ??_R2ITableItemProvider@@8 000000018002cb90     GlassAccessible.obj
 0002:00005ba8       ??_R1A@?0A@EA@ITableItemProvider@@8 000000018002cba8     GlassAccessible.obj
 0002:00005bd0       ??_R3IToggleProvider@@8    000000018002cbd0     GlassAccessible.obj
 0002:00005be8       ??_R2IToggleProvider@@8    000000018002cbe8     GlassAccessible.obj
 0002:00005c00       ??_R1A@?0A@EA@IToggleProvider@@8 000000018002cc00     GlassAccessible.obj
 0002:00005c28       ??_R3ITransformProvider@@8 000000018002cc28     GlassAccessible.obj
 0002:00005c40       ??_R2ITransformProvider@@8 000000018002cc40     GlassAccessible.obj
 0002:00005c58       ??_R1A@?0A@EA@ITransformProvider@@8 000000018002cc58     GlassAccessible.obj
 0002:00005c80       ??_R3IValueProvider@@8     000000018002cc80     GlassAccessible.obj
 0002:00005c98       ??_R2IValueProvider@@8     000000018002cc98     GlassAccessible.obj
 0002:00005cb0       ??_R1A@?0A@EA@IValueProvider@@8 000000018002ccb0     GlassAccessible.obj
 0002:00005cd8       ??_R3ITextProvider@@8      000000018002ccd8     GlassAccessible.obj
 0002:00005cf0       ??_R2ITextProvider@@8      000000018002ccf0     GlassAccessible.obj
 0002:00005d08       ??_R1A@?0A@EA@ITextProvider@@8 000000018002cd08     GlassAccessible.obj
 0002:00005d30       ??_R4GlassAccessible@@6BIRawElementProviderSimple@@@ 000000018002cd30     GlassAccessible.obj
 0002:00005d58       ??_R3GlassAccessible@@8    000000018002cd58     GlassAccessible.obj
 0002:00005d70       ??_R2GlassAccessible@@8    000000018002cd70     GlassAccessible.obj
 0002:00005eb0       ??_R1A@?0A@EA@GlassAccessible@@8 000000018002ceb0     GlassAccessible.obj
 0002:00005ed8       ??_R1A@?0A@EC@IUnknown@@8  000000018002ced8     GlassAccessible.obj
 0002:00005f00       ??_R17?0A@EA@IRawElementProviderFragment@@8 000000018002cf00     GlassAccessible.obj
 0002:00005f28       ??_R17?0A@EC@IUnknown@@8   000000018002cf28     GlassAccessible.obj
 0002:00005f50       ??_R1BA@?0A@EA@IRawElementProviderFragmentRoot@@8 000000018002cf50     GlassAccessible.obj
 0002:00005f78       ??_R1BA@?0A@EC@IUnknown@@8 000000018002cf78     GlassAccessible.obj
 0002:00005fa0       ??_R1BI@?0A@EA@IRawElementProviderAdviseEvents@@8 000000018002cfa0     GlassAccessible.obj
 0002:00005fc8       ??_R1BI@?0A@EC@IUnknown@@8 000000018002cfc8     GlassAccessible.obj
 0002:00005ff0       ??_R1CA@?0A@EA@IInvokeProvider@@8 000000018002cff0     GlassAccessible.obj
 0002:00006018       ??_R1CA@?0A@EC@IUnknown@@8 000000018002d018     GlassAccessible.obj
 0002:00006040       ??_R1CI@?0A@EA@ISelectionProvider@@8 000000018002d040     GlassAccessible.obj
 0002:00006068       ??_R1CI@?0A@EC@IUnknown@@8 000000018002d068     GlassAccessible.obj
 0002:00006090       ??_R1DA@?0A@EA@ISelectionItemProvider@@8 000000018002d090     GlassAccessible.obj
 0002:000060b8       ??_R1DA@?0A@EC@IUnknown@@8 000000018002d0b8     GlassAccessible.obj
 0002:000060e0       ??_R1DI@?0A@EA@IRangeValueProvider@@8 000000018002d0e0     GlassAccessible.obj
 0002:00006108       ??_R1DI@?0A@EC@IUnknown@@8 000000018002d108     GlassAccessible.obj
 0002:00006130       ??_R1EA@?0A@EA@IValueProvider@@8 000000018002d130     GlassAccessible.obj
 0002:00006158       ??_R1EA@?0A@EC@IUnknown@@8 000000018002d158     GlassAccessible.obj
 0002:00006180       ??_R1EI@?0A@EA@ITextProvider@@8 000000018002d180     GlassAccessible.obj
 0002:000061a8       ??_R1EI@?0A@EC@IUnknown@@8 000000018002d1a8     GlassAccessible.obj
 0002:000061d0       ??_R1FA@?0A@EA@IGridProvider@@8 000000018002d1d0     GlassAccessible.obj
 0002:000061f8       ??_R1FA@?0A@EC@IUnknown@@8 000000018002d1f8     GlassAccessible.obj
 0002:00006220       ??_R1FI@?0A@EA@IGridItemProvider@@8 000000018002d220     GlassAccessible.obj
 0002:00006248       ??_R1FI@?0A@EC@IUnknown@@8 000000018002d248     GlassAccessible.obj
 0002:00006270       ??_R1GA@?0A@EA@ITableProvider@@8 000000018002d270     GlassAccessible.obj
 0002:00006298       ??_R1GA@?0A@EC@IUnknown@@8 000000018002d298     GlassAccessible.obj
 0002:000062c0       ??_R1GI@?0A@EA@ITableItemProvider@@8 000000018002d2c0     GlassAccessible.obj
 0002:000062e8       ??_R1GI@?0A@EC@IUnknown@@8 000000018002d2e8     GlassAccessible.obj
 0002:00006310       ??_R1HA@?0A@EA@IToggleProvider@@8 000000018002d310     GlassAccessible.obj
 0002:00006338       ??_R1HA@?0A@EC@IUnknown@@8 000000018002d338     GlassAccessible.obj
 0002:00006360       ??_R1HI@?0A@EA@IExpandCollapseProvider@@8 000000018002d360     GlassAccessible.obj
 0002:00006388       ??_R1HI@?0A@EC@IUnknown@@8 000000018002d388     GlassAccessible.obj
 0002:000063b0       ??_R1IA@?0A@EA@ITransformProvider@@8 000000018002d3b0     GlassAccessible.obj
 0002:000063d8       ??_R1IA@?0A@EC@IUnknown@@8 000000018002d3d8     GlassAccessible.obj
 0002:00006400       ??_R1II@?0A@EA@IScrollProvider@@8 000000018002d400     GlassAccessible.obj
 0002:00006428       ??_R1II@?0A@EC@IUnknown@@8 000000018002d428     GlassAccessible.obj
 0002:00006450       ??_R1JA@?0A@EA@IScrollItemProvider@@8 000000018002d450     GlassAccessible.obj
 0002:00006478       ??_R1JA@?0A@EC@IUnknown@@8 000000018002d478     GlassAccessible.obj
 0002:000064a0       ??_R4GlassAccessible@@6BIRawElementProviderFragment@@@ 000000018002d4a0     GlassAccessible.obj
 0002:000064c8       ??_R4GlassAccessible@@6BIRawElementProviderFragmentRoot@@@ 000000018002d4c8     GlassAccessible.obj
 0002:000064f0       ??_R4GlassAccessible@@6BIRawElementProviderAdviseEvents@@@ 000000018002d4f0     GlassAccessible.obj
 0002:00006518       ??_R4GlassAccessible@@6BIInvokeProvider@@@ 000000018002d518     GlassAccessible.obj
 0002:00006540       ??_R4GlassAccessible@@6BISelectionProvider@@@ 000000018002d540     GlassAccessible.obj
 0002:00006568       ??_R4GlassAccessible@@6BISelectionItemProvider@@@ 000000018002d568     GlassAccessible.obj
 0002:00006590       ??_R4GlassAccessible@@6BIRangeValueProvider@@@ 000000018002d590     GlassAccessible.obj
 0002:000065b8       ??_R4GlassAccessible@@6BIValueProvider@@@ 000000018002d5b8     GlassAccessible.obj
 0002:000065e0       ??_R4GlassAccessible@@6BITextProvider@@@ 000000018002d5e0     GlassAccessible.obj
 0002:00006608       ??_R4GlassAccessible@@6BIGridProvider@@@ 000000018002d608     GlassAccessible.obj
 0002:00006630       ??_R4GlassAccessible@@6BIGridItemProvider@@@ 000000018002d630     GlassAccessible.obj
 0002:00006658       ??_R4GlassAccessible@@6BITableProvider@@@ 000000018002d658     GlassAccessible.obj
 0002:00006680       ??_R4GlassAccessible@@6BITableItemProvider@@@ 000000018002d680     GlassAccessible.obj
 0002:000066a8       ??_R4GlassAccessible@@6BIToggleProvider@@@ 000000018002d6a8     GlassAccessible.obj
 0002:000066d0       ??_R4GlassAccessible@@6BIExpandCollapseProvider@@@ 000000018002d6d0     GlassAccessible.obj
 0002:000066f8       ??_R4GlassAccessible@@6BITransformProvider@@@ 000000018002d6f8     GlassAccessible.obj
 0002:00006720       ??_R4GlassAccessible@@6BIScrollProvider@@@ 000000018002d720     GlassAccessible.obj
 0002:00006748       ??_R4GlassAccessible@@6BIScrollItemProvider@@@ 000000018002d748     GlassAccessible.obj
 0002:00006770       ??_R4GlassApplication@@6B@ 000000018002d770     GlassApplication.obj
 0002:00006798       ??_R3GlassApplication@@8   000000018002d798     GlassApplication.obj
 0002:000067b0       ??_R2GlassApplication@@8   000000018002d7b0     GlassApplication.obj
 0002:000067c8       ??_R1A@?0A@EA@GlassApplication@@8 000000018002d7c8     GlassApplication.obj
 0002:000067f0       ??_R1A@?0A@EN@BaseWnd@@8   000000018002d7f0     GlassApplication.obj
 0002:00006918       ??_R3IEnumFORMATETC@@8     000000018002d918     GlassClipboard.obj
 0002:00006930       ??_R2IEnumFORMATETC@@8     000000018002d930     GlassClipboard.obj
 0002:00006948       ??_R1A@?0A@EA@IEnumFORMATETC@@8 000000018002d948     GlassClipboard.obj
 0002:00006970       ??_R3IDataObject@@8        000000018002d970     GlassClipboard.obj
 0002:00006988       ??_R2IDataObject@@8        000000018002d988     GlassClipboard.obj
 0002:000069a0       ??_R1A@?0A@EA@IDataObject@@8 000000018002d9a0     GlassClipboard.obj
 0002:000069c8       ??_R4BaseBitmap@@6B@       000000018002d9c8     GlassClipboard.obj
 0002:000069f0       ??_R3BaseBitmap@@8         000000018002d9f0     GlassClipboard.obj
 0002:00006a08       ??_R2BaseBitmap@@8         000000018002da08     GlassClipboard.obj
 0002:00006a18       ??_R1A@?0A@EA@BaseBitmap@@8 000000018002da18     GlassClipboard.obj
 0002:00006a40       ??_R4ClipboardData@@6B@    000000018002da40     GlassClipboard.obj
 0002:00006a68       ??_R3ClipboardData@@8      000000018002da68     GlassClipboard.obj
 0002:00006a80       ??_R2ClipboardData@@8      000000018002da80     GlassClipboard.obj
 0002:00006aa8       ??_R1A@?0A@EA@ClipboardData@@8 000000018002daa8     GlassClipboard.obj
 0002:00006ad0       ??_R1A@?0A@EA@?$IUnknownImpl@UIDataObject@@@@8 000000018002dad0     GlassClipboard.obj
 0002:00006af8       ??_R3?$IUnknownImpl@UIDataObject@@@@8 000000018002daf8     GlassClipboard.obj
 0002:00006b10       ??_R2?$IUnknownImpl@UIDataObject@@@@8 000000018002db10     GlassClipboard.obj
 0002:00006b30       ??_R4?$IUnknownImpl@UIDataObject@@@@6B@ 000000018002db30     GlassClipboard.obj
 0002:00006b58       ??_R4ClipboardEnumFORMATETC@ClipboardData@@6B@ 000000018002db58     GlassClipboard.obj
 0002:00006b80       ??_R3ClipboardEnumFORMATETC@ClipboardData@@8 000000018002db80     GlassClipboard.obj
 0002:00006b98       ??_R2ClipboardEnumFORMATETC@ClipboardData@@8 000000018002db98     GlassClipboard.obj
 0002:00006bc0       ??_R1A@?0A@EA@ClipboardEnumFORMATETC@ClipboardData@@8 000000018002dbc0     GlassClipboard.obj
 0002:00006be8       ??_R1A@?0A@EA@?$IUnknownImpl@UIEnumFORMATETC@@@@8 000000018002dbe8     GlassClipboard.obj
 0002:00006c10       ??_R3?$IUnknownImpl@UIEnumFORMATETC@@@@8 000000018002dc10     GlassClipboard.obj
 0002:00006c28       ??_R2?$IUnknownImpl@UIEnumFORMATETC@@@@8 000000018002dc28     GlassClipboard.obj
 0002:00006c48       ??_R4?$IUnknownImpl@UIEnumFORMATETC@@@@6B@ 000000018002dc48     GlassClipboard.obj
 0002:000071f0       ??_R3IDropSource@@8        000000018002e1f0     GlassDnD.obj
 0002:00007208       ??_R2IDropSource@@8        000000018002e208     GlassDnD.obj
 0002:00007220       ??_R1A@?0A@EA@IDropSource@@8 000000018002e220     GlassDnD.obj
 0002:00007248       ??_R3IDropTarget@@8        000000018002e248     GlassDnD.obj
 0002:00007260       ??_R2IDropTarget@@8        000000018002e260     GlassDnD.obj
 0002:00007278       ??_R1A@?0A@EA@IDropTarget@@8 000000018002e278     GlassDnD.obj
 0002:000072a0       ??_R4GlassDropTarget@@6B@  000000018002e2a0     GlassDnD.obj
 0002:000072c8       ??_R3GlassDropTarget@@8    000000018002e2c8     GlassDnD.obj
 0002:000072e0       ??_R2GlassDropTarget@@8    000000018002e2e0     GlassDnD.obj
 0002:00007308       ??_R1A@?0A@EA@GlassDropTarget@@8 000000018002e308     GlassDnD.obj
 0002:00007330       ??_R1A@?0A@EA@?$IUnknownImpl@UIDropTarget@@@@8 000000018002e330     GlassDnD.obj
 0002:00007358       ??_R3?$IUnknownImpl@UIDropTarget@@@@8 000000018002e358     GlassDnD.obj
 0002:00007370       ??_R2?$IUnknownImpl@UIDropTarget@@@@8 000000018002e370     GlassDnD.obj
 0002:00007390       ??_R4?$IUnknownImpl@UIDropTarget@@@@6B@ 000000018002e390     GlassDnD.obj
 0002:000073b8       ??_R4GlassDropSource@@6B@  000000018002e3b8     GlassDnD.obj
 0002:000073e0       ??_R3GlassDropSource@@8    000000018002e3e0     GlassDnD.obj
 0002:000073f8       ??_R2GlassDropSource@@8    000000018002e3f8     GlassDnD.obj
 0002:00007420       ??_R1A@?0A@EA@GlassDropSource@@8 000000018002e420     GlassDnD.obj
 0002:00007448       ??_R1A@?0A@EA@?$IUnknownImpl@UIDropSource@@@@8 000000018002e448     GlassDnD.obj
 0002:00007470       ??_R3?$IUnknownImpl@UIDropSource@@@@8 000000018002e470     GlassDnD.obj
 0002:00007488       ??_R2?$IUnknownImpl@UIDropSource@@@@8 000000018002e488     GlassDnD.obj
 0002:000074a8       ??_R4?$IUnknownImpl@UIDropSource@@@@6B@ 000000018002e4a8     GlassDnD.obj
 0002:000074d0       ??_R3ITextRangeProvider@@8 000000018002e4d0     GlassTextRangeProvider.obj
 0002:000074e8       ??_R2ITextRangeProvider@@8 000000018002e4e8     GlassTextRangeProvider.obj
 0002:00007500       ??_R1A@?0A@EA@ITextRangeProvider@@8 000000018002e500     GlassTextRangeProvider.obj
 0002:00007528       ??_R4GlassTextRangeProvider@@6B@ 000000018002e528     GlassTextRangeProvider.obj
 0002:00007550       ??_R3GlassTextRangeProvider@@8 000000018002e550     GlassTextRangeProvider.obj
 0002:00007568       ??_R2GlassTextRangeProvider@@8 000000018002e568     GlassTextRangeProvider.obj
 0002:00007588       ??_R1A@?0A@EA@GlassTextRangeProvider@@8 000000018002e588     GlassTextRangeProvider.obj
 0002:000075b0       ??_R4GlassView@@6B@        000000018002e5b0     GlassView.obj
 0002:000075d8       ??_R3GlassView@@8          000000018002e5d8     GlassView.obj
 0002:000075f0       ??_R2GlassView@@8          000000018002e5f0     GlassView.obj
 0002:00007600       ??_R1A@?0A@EA@GlassView@@8 000000018002e600     GlassView.obj
 0002:00007a28       ??_R4GlassWindow@@6BBaseWnd@@@ 000000018002ea28     GlassWindow.obj
 0002:00007a50       ??_R3GlassWindow@@8        000000018002ea50     GlassWindow.obj
 0002:00007a68       ??_R2GlassWindow@@8        000000018002ea68     GlassWindow.obj
 0002:00007a88       ??_R1A@?0A@EA@GlassWindow@@8 000000018002ea88     GlassWindow.obj
 0002:00007ab0       ??_R4GlassWindow@@6BViewContainer@@@ 000000018002eab0     GlassWindow.obj
 0002:000087d8       ??_R3_IManipulationEvents@@8 000000018002f7d8     ManipulationEvents.obj
 0002:000087f0       ??_R2_IManipulationEvents@@8 000000018002f7f0     ManipulationEvents.obj
 0002:00008808       ??_R1A@?0A@EA@_IManipulationEvents@@8 000000018002f808     ManipulationEvents.obj
 0002:00008830       ??_R4ManipulationEventSink@@6B@ 000000018002f830     ManipulationEvents.obj
 0002:00008858       ??_R3ManipulationEventSink@@8 000000018002f858     ManipulationEvents.obj
 0002:00008870       ??_R2ManipulationEventSink@@8 000000018002f870     ManipulationEvents.obj
 0002:00008898       ??_R1A@?0A@EA@ManipulationEventSink@@8 000000018002f898     ManipulationEvents.obj
 0002:000088c0       ??_R1A@?0A@EA@?$IUnknownImpl@U_IManipulationEvents@@@@8 000000018002f8c0     ManipulationEvents.obj
 0002:000088e8       ??_R3?$IUnknownImpl@U_IManipulationEvents@@@@8 000000018002f8e8     ManipulationEvents.obj
 0002:00008900       ??_R2?$IUnknownImpl@U_IManipulationEvents@@@@8 000000018002f900     ManipulationEvents.obj
 0002:00008920       ??_R4?$IUnknownImpl@U_IManipulationEvents@@@@6B@ 000000018002f920     ManipulationEvents.obj
 0002:00008948       ??_R4Bitmap@@6B@           000000018002f948     Pixels.obj
 0002:00008970       ??_R3Bitmap@@8             000000018002f970     Pixels.obj
 0002:00008988       ??_R2Bitmap@@8             000000018002f988     Pixels.obj
 0002:000089a0       ??_R1A@?0A@EA@Bitmap@@8    000000018002f9a0     Pixels.obj
 0002:000089c8       ??_R4DIBitmap@@6B@         000000018002f9c8     Pixels.obj
 0002:000089f0       ??_R3DIBitmap@@8           000000018002f9f0     Pixels.obj
 0002:00008a08       ??_R2DIBitmap@@8           000000018002fa08     Pixels.obj
 0002:00008a20       ??_R1A@?0A@EA@DIBitmap@@8  000000018002fa20     Pixels.obj
 0002:00008a48       ??_R4Timer@@6B@            000000018002fa48     Timer.obj
 0002:00008a70       ??_R3Timer@@8              000000018002fa70     Timer.obj
 0002:00008a88       ??_R2Timer@@8              000000018002fa88     Timer.obj
 0002:00008a98       ??_R1A@?0A@EA@Timer@@8     000000018002fa98     Timer.obj
 0002:00008ac0       ??_R4RunnableTimer@@6B@    000000018002fac0     Timer.obj
 0002:00008ae8       ??_R3RunnableTimer@@8      000000018002fae8     Timer.obj
 0002:00008b00       ??_R2RunnableTimer@@8      000000018002fb00     Timer.obj
 0002:00008b18       ??_R1A@?0A@EA@RunnableTimer@@8 000000018002fb18     Timer.obj
 0002:00008b40       ??_R4ViewContainer@@6B@    000000018002fb40     ViewContainer.obj
 0002:00008b68       ??_R4ManipulationEventSinkWithInertia@@6B@ 000000018002fb68     ViewContainer.obj
 0002:00008b90       ??_R3ManipulationEventSinkWithInertia@@8 000000018002fb90     ViewContainer.obj
 0002:00008ba8       ??_R2ManipulationEventSinkWithInertia@@8 000000018002fba8     ViewContainer.obj
 0002:00008bd8       ??_R1A@?0A@EA@ManipulationEventSinkWithInertia@@8 000000018002fbd8     ViewContainer.obj
 0002:00008c00       ??_R4type_info@@6B@        000000018002fc00     MSVCRT:std_type_info_static.obj
 0002:00008c28       ??_R3type_info@@8          000000018002fc28     MSVCRT:std_type_info_static.obj
 0002:00008c40       ??_R2type_info@@8          000000018002fc40     MSVCRT:std_type_info_static.obj
 0002:00008c50       ??_R1A@?0A@EA@type_info@@8 000000018002fc50     MSVCRT:std_type_info_static.obj
 0002:00008c78       ??_R4exception@std@@6B@    000000018002fc78     MSVCRT:throw_bad_alloc.obj
 0002:00008ca0       ??_R3exception@std@@8      000000018002fca0     MSVCRT:throw_bad_alloc.obj
 0002:00008cb8       ??_R2exception@std@@8      000000018002fcb8     MSVCRT:throw_bad_alloc.obj
 0002:00008cc8       ??_R1A@?0A@EA@exception@std@@8 000000018002fcc8     MSVCRT:throw_bad_alloc.obj
 0002:00008cf0       ??_R4bad_alloc@std@@6B@    000000018002fcf0     MSVCRT:throw_bad_alloc.obj
 0002:00008d18       ??_R3bad_alloc@std@@8      000000018002fd18     MSVCRT:throw_bad_alloc.obj
 0002:00008d30       ??_R2bad_alloc@std@@8      000000018002fd30     MSVCRT:throw_bad_alloc.obj
 0002:00008d48       ??_R1A@?0A@EA@bad_alloc@std@@8 000000018002fd48     MSVCRT:throw_bad_alloc.obj
 0002:00008d70       ??_R4bad_array_new_length@std@@6B@ 000000018002fd70     MSVCRT:throw_bad_alloc.obj
 0002:00008d98       ??_R3bad_array_new_length@std@@8 000000018002fd98     MSVCRT:throw_bad_alloc.obj
 0002:00008db0       ??_R2bad_array_new_length@std@@8 000000018002fdb0     MSVCRT:throw_bad_alloc.obj
 0002:00008dd0       ??_R1A@?0A@EA@bad_array_new_length@std@@8 000000018002fdd0     MSVCRT:throw_bad_alloc.obj
 0002:000091a8       __rtc_iaa                  00000001800301a8     MSVCRT:initsect.obj
 0002:000091b0       __rtc_izz                  00000001800301b0     MSVCRT:initsect.obj
 0002:000091b8       __rtc_taa                  00000001800301b8     MSVCRT:initsect.obj
 0002:000091c0       __rtc_tzz                  00000001800301c0     MSVCRT:initsect.obj
 0002:000091c8       _tls_start                 00000001800301c8     MSVCRT:tlssup.obj
 0002:000091cc       _Init_thread_epoch         00000001800301cc     MSVCRT:thread_safe_statics.obj
 0002:000091d0       _tls_end                   00000001800301d0     MSVCRT:tlssup.obj
 0002:0000e210       _TI1?AVException@Timer@@   0000000180035210     Timer.obj
 0002:0000e230       _CTA1?AVException@Timer@@  0000000180035230     Timer.obj
 0002:0000e240       _CT??_R0?AVException@Timer@@@81 0000000180035240     Timer.obj
 0002:0000e268       _TI1?AV_com_error@@        0000000180035268     comsuppw:comraise.obj
 0002:0000e288       _CTA1?AV_com_error@@       0000000180035288     comsuppw:comraise.obj
 0002:0000e298       _CT??_R0?AV_com_error@@@8??0_com_error@@QEAA@AEBV0@@Z32 0000000180035298     comsuppw:comraise.obj
 0002:0000e2c0       _TI2?AVbad_alloc@std@@     00000001800352c0     MSVCRT:throw_bad_alloc.obj
 0002:0000e2e0       _CTA2?AVbad_alloc@std@@    00000001800352e0     MSVCRT:throw_bad_alloc.obj
 0002:0000e2f8       _CT??_R0?AVbad_alloc@std@@@8??0bad_alloc@std@@QEAA@AEBV01@@Z24 00000001800352f8     MSVCRT:throw_bad_alloc.obj
 0002:0000e320       _CT??_R0?AVexception@std@@@8??0exception@std@@QEAA@AEBV01@@Z24 0000000180035320     MSVCRT:throw_bad_alloc.obj
 0002:0000e348       _TI3?AVbad_array_new_length@std@@ 0000000180035348     MSVCRT:throw_bad_alloc.obj
 0002:0000e368       _CTA3?AVbad_array_new_length@std@@ 0000000180035368     MSVCRT:throw_bad_alloc.obj
 0002:0000e388       _CT??_R0?AVbad_array_new_length@std@@@8??0bad_array_new_length@std@@QEAA@AEBV01@@Z24 0000000180035388     MSVCRT:throw_bad_alloc.obj
 0002:0000e3ac       __DELAY_IMPORT_DESCRIPTOR_urlmon_dll 00000001800353ac     urlmon:urlmon.dll
 0002:0000e3cc       __DELAY_IMPORT_DESCRIPTOR_WINMM_dll 00000001800353cc     winmm:WINMM.dll
 0002:0000e3ec       __DELAY_IMPORT_DESCRIPTOR_SHELL32_dll 00000001800353ec     shell32:SHELL32.dll
 0002:0000e40c       __DELAY_IMPORT_DESCRIPTOR_UIAutomationCore_DLL 000000018003540c     Uiautomationcore:UIAutomationCore.DLL
 0002:0000e42c       __DELAY_IMPORT_DESCRIPTOR_dwmapi_dll 000000018003542c     dwmapi:dwmapi.dll
 0002:0000e44c       __DELAY_IMPORT_DESCRIPTOR_USER32_dll 000000018003544c     user32:USER32.dll
 0002:0000e46c       __NULL_DELAY_IMPORT_DESCRIPTOR 000000018003546c     urlmon:urlmon.dll
 0002:0000e4b0       \177SHELL32_NULL_THUNK_DATA_DLN 00000001800354b0     shell32:SHELL32.dll
 0002:0000e4e0       \177UIAutomationCore_NULL_THUNK_DATA_DLN 00000001800354e0     Uiautomationcore:UIAutomationCore.DLL
 0002:0000e850       \177USER32_NULL_THUNK_DATA_DLN 0000000180035850     user32:USER32.dll
 0002:0000e880       \177WINMM_NULL_THUNK_DATA_DLN 0000000180035880     winmm:WINMM.dll
 0002:0000e898       \177dwmapi_NULL_THUNK_DATA_DLN 0000000180035898     dwmapi:dwmapi.dll
 0002:0000e8a8       \177urlmon_NULL_THUNK_DATA_DLN 00000001800358a8     urlmon:urlmon.dll
 0002:0000f1b0       \177urlmon_NULL_THUNK_DATA_DLB 00000001800361b0     urlmon:urlmon.dll
 0002:0000f1c0       \177WINMM_NULL_THUNK_DATA_DLB 00000001800361c0     winmm:WINMM.dll
 0002:0000f1f0       \177SHELL32_NULL_THUNK_DATA_DLB 00000001800361f0     shell32:SHELL32.dll
 0002:0000f218       \177UIAutomationCore_NULL_THUNK_DATA_DLB 0000000180036218     Uiautomationcore:UIAutomationCore.DLL
 0002:0000f248       \177dwmapi_NULL_THUNK_DATA_DLB 0000000180036248     dwmapi:dwmapi.dll
 0002:0000f260       \177USER32_NULL_THUNK_DATA_DLB 0000000180036260     user32:USER32.dll
 0002:00011304       __IMPORT_DESCRIPTOR_GDI32  0000000180038304     gdi32:GDI32.dll
 0002:00011318       __IMPORT_DESCRIPTOR_COMDLG32 0000000180038318     Comdlg32:COMDLG32.dll
 0002:0001132c       __IMPORT_DESCRIPTOR_IMM32  000000018003832c     imm32:IMM32.dll
 0002:00011340       __IMPORT_DESCRIPTOR_ole32  0000000180038340     ole32:ole32.dll
 0002:00011354       __IMPORT_DESCRIPTOR_OLEAUT32 0000000180038354     oleaut32:OLEAUT32.dll
 0002:00011368       __IMPORT_DESCRIPTOR_MSVCP140 0000000180038368     msvcprt:MSVCP140.dll
 0002:0001137c       __IMPORT_DESCRIPTOR_KERNEL32 000000018003837c     kernel32:KERNEL32.dll
 0002:00011390       __IMPORT_DESCRIPTOR_VCRUNTIME140 0000000180038390     vcruntime:VCRUNTIME140.dll
 0002:000113a4       __IMPORT_DESCRIPTOR_api-ms-win-crt-stdio-l1-1-0 00000001800383a4     ucrt:api-ms-win-crt-stdio-l1-1-0.dll
 0002:000113b8       __IMPORT_DESCRIPTOR_api-ms-win-crt-runtime-l1-1-0 00000001800383b8     ucrt:api-ms-win-crt-runtime-l1-1-0.dll
 0002:000113cc       __IMPORT_DESCRIPTOR_api-ms-win-crt-string-l1-1-0 00000001800383cc     ucrt:api-ms-win-crt-string-l1-1-0.dll
 0002:000113e0       __IMPORT_DESCRIPTOR_api-ms-win-crt-heap-l1-1-0 00000001800383e0     ucrt:api-ms-win-crt-heap-l1-1-0.dll
 0002:000113f4       __IMPORT_DESCRIPTOR_api-ms-win-crt-convert-l1-1-0 00000001800383f4     ucrt:api-ms-win-crt-convert-l1-1-0.dll
 0002:00011408       __IMPORT_DESCRIPTOR_api-ms-win-crt-utility-l1-1-0 0000000180038408     ucrt:api-ms-win-crt-utility-l1-1-0.dll
 0002:0001141c       __IMPORT_DESCRIPTOR_api-ms-win-crt-math-l1-1-0 000000018003841c     ucrt:api-ms-win-crt-math-l1-1-0.dll
 0002:00011430       __NULL_IMPORT_DESCRIPTOR   0000000180038430     gdi32:GDI32.dll
 0003:00000020       ?overrideUIScale@GlassApplication@@2MA 000000018003a020     GlassApplication.obj
 0003:00000024       ?overrideRenderScale@GlassApplication@@2MA 000000018003a024     GlassApplication.obj
 0003:00000028       ?minDPIScale@GlassApplication@@2MA 000000018003a028     GlassApplication.obj
 0003:0000002c       ?forceIntegerRenderScale@GlassApplication@@2EA 000000018003a02c     GlassApplication.obj
 0003:000000e0       ?pairs@@3PAUMime2oscfstrPair@@A 000000018003a0e0     GlassClipboard.obj
 0003:00000180       ?urlExt@?CI@??GetData@ClipboardData@@UEAAJPEAUtagFORMATETC@@PEAUtagSTGMEDIUM@@@Z@4PEA_WEA 000000018003a180     GlassClipboard.obj
 0003:000001a8       ?__errorPfn@@3P6AXJPEAUIErrorInfo@@@ZEA 000000018003a1a8     comsuppw:comsupp.obj
 0003:000001b0       ?vtMissing@@3V_variant_t@@A 000000018003a1b0     comsuppw:comutil.obj
 0003:000001d0       __security_cookie_complement 000000018003a1d0     MSVCRT:gs_cookie.obj
 0003:000001d8       __security_cookie          000000018003a1d8     MSVCRT:gs_cookie.obj
 0003:000001e0       _fltused                   000000018003a1e0     MSVCRT:fltused.obj
 0003:000001e4       __scrt_native_dllmain_reason 000000018003a1e4     MSVCRT:utility.obj
 0003:000001e8       _Init_global_epoch         000000018003a1e8     MSVCRT:thread_safe_statics.obj
 0003:000001f0       __isa_available            000000018003a1f0     MSVCRT:cpu_disp.obj
 0003:000001f4       __isa_enabled              000000018003a1f4     MSVCRT:cpu_disp.obj
 0003:000001f8       __memcpy_nt_iters          000000018003a1f8     MSVCRT:cpu_disp.obj
 0003:00000200       __scrt_ucrt_dll_is_in_use  000000018003a200     MSVCRT:ucrt_stubs.obj
 0003:00000210       ??_R0?AVBaseWnd@@@8        000000018003a210     BaseWnd.obj
 0003:00000230       ??_R0?AVAction@@@8         000000018003a230     BaseWnd.obj
 0003:00000288       ??_R0?AV_com_error@@@8     000000018003a288     CommonDialogs_COM.obj
 0003:000002b0       ??_R0?AVBackgroundWindow@@@8 000000018003a2b0     FullScreenWindow.obj
 0003:000002d8       ??_R0?AVFullScreenWindow@@@8 000000018003a2d8     FullScreenWindow.obj
 0003:00000300       ??_R0?AVViewContainer@@@8  000000018003a300     FullScreenWindow.obj
 0003:00000328       ??_R0?AUIUnknown@@@8       000000018003a328     GlassAccessible.obj
 0003:00000348       ??_R0?AUIRawElementProviderSimple@@@8 000000018003a348     GlassAccessible.obj
 0003:00000378       ??_R0?AUIRawElementProviderFragmentRoot@@@8 000000018003a378     GlassAccessible.obj
 0003:000003b0       ??_R0?AUIRawElementProviderFragment@@@8 000000018003a3b0     GlassAccessible.obj
 0003:000003e8       ??_R0?AUIRawElementProviderAdviseEvents@@@8 000000018003a3e8     GlassAccessible.obj
 0003:00000420       ??_R0?AUIExpandCollapseProvider@@@8 000000018003a420     GlassAccessible.obj
 0003:00000450       ??_R0?AUIGridProvider@@@8  000000018003a450     GlassAccessible.obj
 0003:00000478       ??_R0?AUIGridItemProvider@@@8 000000018003a478     GlassAccessible.obj
 0003:000004a0       ??_R0?AUIInvokeProvider@@@8 000000018003a4a0     GlassAccessible.obj
 0003:000004c8       ??_R0?AUIRangeValueProvider@@@8 000000018003a4c8     GlassAccessible.obj
 0003:000004f8       ??_R0?AUIScrollItemProvider@@@8 000000018003a4f8     GlassAccessible.obj
 0003:00000528       ??_R0?AUISelectionProvider@@@8 000000018003a528     GlassAccessible.obj
 0003:00000558       ??_R0?AUIScrollProvider@@@8 000000018003a558     GlassAccessible.obj
 0003:00000580       ??_R0?AUISelectionItemProvider@@@8 000000018003a580     GlassAccessible.obj
 0003:000005b0       ??_R0?AUITableProvider@@@8 000000018003a5b0     GlassAccessible.obj
 0003:000005d8       ??_R0?AUITableItemProvider@@@8 000000018003a5d8     GlassAccessible.obj
 0003:00000608       ??_R0?AUIToggleProvider@@@8 000000018003a608     GlassAccessible.obj
 0003:00000630       ??_R0?AUITransformProvider@@@8 000000018003a630     GlassAccessible.obj
 0003:00000660       ??_R0?AUIValueProvider@@@8 000000018003a660     GlassAccessible.obj
 0003:00000688       ??_R0?AUITextProvider@@@8  000000018003a688     GlassAccessible.obj
 0003:000006b0       ??_R0?AVGlassAccessible@@@8 000000018003a6b0     GlassAccessible.obj
 0003:000006d8       ??_R0?AVGlassApplication@@@8 000000018003a6d8     GlassApplication.obj
 0003:00000810       ??_R0?AUIEnumFORMATETC@@@8 000000018003a810     GlassClipboard.obj
 0003:00000838       ??_R0?AUIDataObject@@@8    000000018003a838     GlassClipboard.obj
 0003:00000860       ??_R0?AVBaseBitmap@@@8     000000018003a860     GlassClipboard.obj
 0003:00000888       ??_R0?AVClipboardData@@@8  000000018003a888     GlassClipboard.obj
 0003:000008b0       ??_R0?AU?$IUnknownImpl@UIDataObject@@@@@8 000000018003a8b0     GlassClipboard.obj
 0003:000008e8       ??_R0?AVClipboardEnumFORMATETC@ClipboardData@@@8 000000018003a8e8     GlassClipboard.obj
 0003:00000928       ??_R0?AU?$IUnknownImpl@UIEnumFORMATETC@@@@@8 000000018003a928     GlassClipboard.obj
 0003:00000f58       ??_R0?AUIDropSource@@@8    000000018003af58     GlassDnD.obj
 0003:00000f80       ??_R0?AUIDropTarget@@@8    000000018003af80     GlassDnD.obj
 0003:00000fa8       ??_R0?AVGlassDropTarget@@@8 000000018003afa8     GlassDnD.obj
 0003:00000fd0       ??_R0?AU?$IUnknownImpl@UIDropTarget@@@@@8 000000018003afd0     GlassDnD.obj
 0003:00001008       ??_R0?AVGlassDropSource@@@8 000000018003b008     GlassDnD.obj
 0003:00001030       ??_R0?AU?$IUnknownImpl@UIDropSource@@@@@8 000000018003b030     GlassDnD.obj
 0003:00001068       ??_R0?AVbad_alloc@std@@@8  000000018003b068     GlassInputTextInfo.obj
 0003:00001090       ??_R0?AUITextRangeProvider@@@8 000000018003b090     GlassTextRangeProvider.obj
 0003:000010c0       ??_R0?AVGlassTextRangeProvider@@@8 000000018003b0c0     GlassTextRangeProvider.obj
 0003:000010f0       ??_R0?AVGlassView@@@8      000000018003b0f0     GlassView.obj
 0003:000014f0       ??_R0?AVGlassWindow@@@8    000000018003b4f0     GlassWindow.obj
 0003:00002238       ??_R0?AU_IManipulationEvents@@@8 000000018003c238     ManipulationEvents.obj
 0003:00002268       ??_R0?AVManipulationEventSink@@@8 000000018003c268     ManipulationEvents.obj
 0003:00002298       ??_R0?AU?$IUnknownImpl@U_IManipulationEvents@@@@@8 000000018003c298     ManipulationEvents.obj
 0003:000022d8       ??_R0?AVBitmap@@@8         000000018003c2d8     Pixels.obj
 0003:000022f8       ??_R0?AVDIBitmap@@@8       000000018003c2f8     Pixels.obj
 0003:00002318       ??_R0?AVException@Timer@@@8 000000018003c318     Timer.obj
 0003:00002340       ??_R0?AVTimer@@@8          000000018003c340     Timer.obj
 0003:00002360       ??_R0?AVRunnableTimer@@@8  000000018003c360     Timer.obj
 0003:00002388       ??_R0?AVManipulationEventSinkWithInertia@@@8 000000018003c388     ViewContainer.obj
 0003:000023c0       ??_R0?AVtype_info@@@8      000000018003c3c0     MSVCRT:std_type_info_static.obj
 0003:000023e0       ??_R0?AVexception@std@@@8  000000018003c3e0     MSVCRT:throw_bad_alloc.obj
 0003:00002408       ??_R0?AVbad_array_new_length@std@@@8 000000018003c408     MSVCRT:throw_bad_alloc.obj
 0003:00002438       __imp_SHGetPathFromIDListW 000000018003c438     shell32:SHELL32.dll
 0003:00002440       __imp_SHBrowseForFolderW   000000018003c440     shell32:SHELL32.dll
 0003:00002448       __imp_SHBindToParent       000000018003c448     shell32:SHELL32.dll
 0003:00002450       __imp_SHCreateItemFromParsingName 000000018003c450     shell32:SHELL32.dll
 0003:00002458       \177SHELL32_NULL_THUNK_DATA_DLA 000000018003c458     shell32:SHELL32.dll
 0003:00002460       __imp_UiaRaiseAutomationEvent 000000018003c460     Uiautomationcore:UIAutomationCore.DLL
 0003:00002468       __imp_UiaHostProviderFromHwnd 000000018003c468     Uiautomationcore:UIAutomationCore.DLL
 0003:00002470       __imp_UiaClientsAreListening 000000018003c470     Uiautomationcore:UIAutomationCore.DLL
 0003:00002478       __imp_UiaRaiseAutomationPropertyChangedEvent 000000018003c478     Uiautomationcore:UIAutomationCore.DLL
 0003:00002480       __imp_UiaReturnRawElementProvider 000000018003c480     Uiautomationcore:UIAutomationCore.DLL
 0003:00002488       \177UIAutomationCore_NULL_THUNK_DATA_DLA 000000018003c488     Uiautomationcore:UIAutomationCore.DLL
 0003:00002490       __imp_ReleaseCapture       000000018003c490     user32:USER32.dll
 0003:00002498       __imp_GetUpdateRect        000000018003c498     user32:USER32.dll
 0003:000024a0       __imp_ClientToScreen       000000018003c4a0     user32:USER32.dll
 0003:000024a8       __imp_SetCapture           000000018003c4a8     user32:USER32.dll
 0003:000024b0       __imp_ChildWindowFromPointEx 000000018003c4b0     user32:USER32.dll
 0003:000024b8       __imp_PtInRect             000000018003c4b8     user32:USER32.dll
 0003:000024c0       __imp_GetDesktopWindow     000000018003c4c0     user32:USER32.dll
 0003:000024c8       __imp_GetSystemMetrics     000000018003c4c8     user32:USER32.dll
 0003:000024d0       __imp_GetCapture           000000018003c4d0     user32:USER32.dll
 0003:000024d8       __imp_MapVirtualKeyExW     000000018003c4d8     user32:USER32.dll
 0003:000024e0       __imp_RegisterTouchWindow  000000018003c4e0     user32:USER32.dll
 0003:000024e8       __imp_DefWindowProcW       000000018003c4e8     user32:USER32.dll
 0003:000024f0       __imp_CloseTouchInputHandle 000000018003c4f0     user32:USER32.dll
 0003:000024f8       __imp_RegisterClassW       000000018003c4f8     user32:USER32.dll
 0003:00002500       __imp_UnregisterClassW     000000018003c500     user32:USER32.dll
 0003:00002508       __imp_RegisterClassExW     000000018003c508     user32:USER32.dll
 0003:00002510       __imp_CreateWindowExW      000000018003c510     user32:USER32.dll
 0003:00002518       __imp_DestroyWindow        000000018003c518     user32:USER32.dll
 0003:00002520       __imp_SetPropW             000000018003c520     user32:USER32.dll
 0003:00002528       __imp_GetPropW             000000018003c528     user32:USER32.dll
 0003:00002530       __imp_RemovePropW          000000018003c530     user32:USER32.dll
 0003:00002538       __imp_GetWindowRect        000000018003c538     user32:USER32.dll
 0003:00002540       __imp_SetCursor            000000018003c540     user32:USER32.dll
 0003:00002548       __imp_LoadCursorW          000000018003c548     user32:USER32.dll
 0003:00002550       __imp_SendMessageW         000000018003c550     user32:USER32.dll
 0003:00002558       __imp_GetParent            000000018003c558     user32:USER32.dll
 0003:00002560       __imp_GetMessagePos        000000018003c560     user32:USER32.dll
 0003:00002568       __imp_ShowWindow           000000018003c568     user32:USER32.dll
 0003:00002570       __imp_SetLayeredWindowAttributes 000000018003c570     user32:USER32.dll
 0003:00002578       __imp_SetWindowPos         000000018003c578     user32:USER32.dll
 0003:00002580       __imp_SetFocus             000000018003c580     user32:USER32.dll
 0003:00002588       __imp_SetTimer             000000018003c588     user32:USER32.dll
 0003:00002590       __imp_KillTimer            000000018003c590     user32:USER32.dll
 0003:00002598       __imp_SetForegroundWindow  000000018003c598     user32:USER32.dll
 0003:000025a0       __imp_GetClientRect        000000018003c5a0     user32:USER32.dll
 0003:000025a8       __imp_MapWindowPoints      000000018003c5a8     user32:USER32.dll
 0003:000025b0       __imp_CopyRect             000000018003c5b0     user32:USER32.dll
 0003:000025b8       __imp_MonitorFromWindow    000000018003c5b8     user32:USER32.dll
 0003:000025c0       __imp_GetMonitorInfoW      000000018003c5c0     user32:USER32.dll
 0003:000025c8       __imp_GetMessageW          000000018003c5c8     user32:USER32.dll
 0003:000025d0       __imp_TranslateMessage     000000018003c5d0     user32:USER32.dll
 0003:000025d8       __imp_DispatchMessageW     000000018003c5d8     user32:USER32.dll
 0003:000025e0       __imp_PostMessageW         000000018003c5e0     user32:USER32.dll
 0003:000025e8       __imp_IsWindow             000000018003c5e8     user32:USER32.dll
 0003:000025f0       __imp_SetClipboardViewer   000000018003c5f0     user32:USER32.dll
 0003:000025f8       __imp_ChangeClipboardChain 000000018003c5f8     user32:USER32.dll
 0003:00002600       __imp_WindowFromPoint      000000018003c600     user32:USER32.dll
 0003:00002608       __imp_SetWindowsHookExW    000000018003c608     user32:USER32.dll
 0003:00002610       __imp_UnhookWindowsHookEx  000000018003c610     user32:USER32.dll
 0003:00002618       __imp_CallNextHookEx       000000018003c618     user32:USER32.dll
 0003:00002620       __imp_SystemParametersInfoW 000000018003c620     user32:USER32.dll
 0003:00002628       __imp_GetAncestor          000000018003c628     user32:USER32.dll
 0003:00002630       __imp_PeekMessageW         000000018003c630     user32:USER32.dll
 0003:00002638       __imp_RegisterClipboardFormatW 000000018003c638     user32:USER32.dll
 0003:00002640       __imp_GetClipboardFormatNameW 000000018003c640     user32:USER32.dll
 0003:00002648       __imp_GetWindowThreadProcessId 000000018003c648     user32:USER32.dll
 0003:00002650       __imp_ShowCursor           000000018003c650     user32:USER32.dll
 0003:00002658       __imp_ScreenToClient       000000018003c658     user32:USER32.dll
 0003:00002660       __imp_IsMenu               000000018003c660     user32:USER32.dll
 0003:00002668       __imp_CreateMenu           000000018003c668     user32:USER32.dll
 0003:00002670       __imp_DestroyMenu          000000018003c670     user32:USER32.dll
 0003:00002678       __imp_CheckMenuItem        000000018003c678     user32:USER32.dll
 0003:00002680       __imp_EnableMenuItem       000000018003c680     user32:USER32.dll
 0003:00002688       __imp_GetMenuItemCount     000000018003c688     user32:USER32.dll
 0003:00002690       __imp_InsertMenuW          000000018003c690     user32:USER32.dll
 0003:00002698       __imp_RemoveMenu           000000018003c698     user32:USER32.dll
 0003:000026a0       __imp_InsertMenuItemW      000000018003c6a0     user32:USER32.dll
 0003:000026a8       __imp_GetMenuItemInfoW     000000018003c6a8     user32:USER32.dll
 0003:000026b0       __imp_SetMenuItemInfoW     000000018003c6b0     user32:USER32.dll
 0003:000026b8       __imp_EnumDisplayMonitors  000000018003c6b8     user32:USER32.dll
 0003:000026c0       __imp_SetProcessDPIAware   000000018003c6c0     user32:USER32.dll
 0003:000026c8       __imp_GetDoubleClickTime   000000018003c6c8     user32:USER32.dll
 0003:000026d0       __imp_UpdateLayeredWindow  000000018003c6d0     user32:USER32.dll
 0003:000026d8       __imp_GetDC                000000018003c6d8     user32:USER32.dll
 0003:000026e0       __imp_ReleaseDC            000000018003c6e0     user32:USER32.dll
 0003:000026e8       __imp_InvalidateRect       000000018003c6e8     user32:USER32.dll
 0003:000026f0       __imp_IsWindowVisible      000000018003c6f0     user32:USER32.dll
 0003:000026f8       __imp_IsIconic             000000018003c6f8     user32:USER32.dll
 0003:00002700       __imp_GetFocus             000000018003c700     user32:USER32.dll
 0003:00002708       __imp_EnableWindow         000000018003c708     user32:USER32.dll
 0003:00002710       __imp_GetMenu              000000018003c710     user32:USER32.dll
 0003:00002718       __imp_SetMenu              000000018003c718     user32:USER32.dll
 0003:00002720       __imp_GetSystemMenu        000000018003c720     user32:USER32.dll
 0003:00002728       __imp_UpdateWindow         000000018003c728     user32:USER32.dll
 0003:00002730       __imp_GetForegroundWindow  000000018003c730     user32:USER32.dll
 0003:00002738       __imp_SetWindowTextW       000000018003c738     user32:USER32.dll
 0003:00002740       __imp_GetWindowLongW       000000018003c740     user32:USER32.dll
 0003:00002748       __imp_SetWindowLongW       000000018003c748     user32:USER32.dll
 0003:00002750       __imp_GetWindowLongPtrW    000000018003c750     user32:USER32.dll
 0003:00002758       __imp_SetWindowLongPtrW    000000018003c758     user32:USER32.dll
 0003:00002760       __imp_SetClassLongPtrW     000000018003c760     user32:USER32.dll
 0003:00002768       __imp_SetParent            000000018003c768     user32:USER32.dll
 0003:00002770       __imp_EnumChildWindows     000000018003c770     user32:USER32.dll
 0003:00002778       __imp_EnumThreadWindows    000000018003c778     user32:USER32.dll
 0003:00002780       __imp_DestroyIcon          000000018003c780     user32:USER32.dll
 0003:00002788       __imp_GetKeyboardLayout    000000018003c788     user32:USER32.dll
 0003:00002790       __imp_VkKeyScanExW         000000018003c790     user32:USER32.dll
 0003:00002798       __imp_CreateIconIndirect   000000018003c798     user32:USER32.dll
 0003:000027a0       __imp_mouse_event          000000018003c7a0     user32:USER32.dll
 0003:000027a8       __imp_SendInput            000000018003c7a8     user32:USER32.dll
 0003:000027b0       __imp_MapVirtualKeyW       000000018003c7b0     user32:USER32.dll
 0003:000027b8       __imp_GetCursorPos         000000018003c7b8     user32:USER32.dll
 0003:000027c0       __imp_GetKeyState          000000018003c7c0     user32:USER32.dll
 0003:000027c8       __imp_ToUnicodeEx          000000018003c7c8     user32:USER32.dll
 0003:000027d0       __imp_TrackMouseEvent      000000018003c7d0     user32:USER32.dll
 0003:000027d8       __imp_GetMessageExtraInfo  000000018003c7d8     user32:USER32.dll
 0003:000027e0       __imp_GetKeyboardState     000000018003c7e0     user32:USER32.dll
 0003:000027e8       __imp_ToAsciiEx            000000018003c7e8     user32:USER32.dll
 0003:000027f0       __imp_GetTouchInputInfo    000000018003c7f0     user32:USER32.dll
 0003:000027f8       \177USER32_NULL_THUNK_DATA_DLA 000000018003c7f8     user32:USER32.dll
 0003:00002800       __imp_timeSetEvent         000000018003c800     winmm:WINMM.dll
 0003:00002808       __imp_timeKillEvent        000000018003c808     winmm:WINMM.dll
 0003:00002810       __imp_timeGetDevCaps       000000018003c810     winmm:WINMM.dll
 0003:00002818       __imp_timeEndPeriod        000000018003c818     winmm:WINMM.dll
 0003:00002820       __imp_timeBeginPeriod      000000018003c820     winmm:WINMM.dll
 0003:00002828       \177WINMM_NULL_THUNK_DATA_DLA 000000018003c828     winmm:WINMM.dll
 0003:00002830       __imp_DwmIsCompositionEnabled 000000018003c830     dwmapi:dwmapi.dll
 0003:00002838       __imp_DwmExtendFrameIntoClientArea 000000018003c838     dwmapi:dwmapi.dll
 0003:00002840       \177dwmapi_NULL_THUNK_DATA_DLA 000000018003c840     dwmapi:dwmapi.dll
 0003:00002848       __imp_CopyStgMedium        000000018003c848     urlmon:urlmon.dll
 0003:00002850       \177urlmon_NULL_THUNK_DATA_DLA 000000018003c850     urlmon:urlmon.dll
 0003:00002860       ?sm_classNameCounter@BaseWnd@@0IA 000000018003c860     BaseWnd.obj
 0003:00002868       ?_OptionsStorage@?1??__local_stdio_printf_options@@9@4_KA 000000018003c868     BaseWnd.obj
 0003:00002af0       ?pInstance@GlassApplication@@0PEAV1@EA 000000018003caf0     GlassApplication.obj
 0003:00002af8       ?sm_glassClassLoader@GlassApplication@@0PEAV_jobject@@EA 000000018003caf8     GlassApplication.obj
 0003:00002b00       ?sm_shouldLeaveNestedLoop@GlassApplication@@0_NA 000000018003cb00     GlassApplication.obj
 0003:00002b08       ?hInstace@GlassApplication@@0PEAUHINSTANCE__@@EA 000000018003cb08     GlassApplication.obj
 0003:00002b10       ?sm_mouseLLHookCounter@GlassApplication@@0IA 000000018003cb10     GlassApplication.obj
 0003:00002b14       ?s_accessibilityCount@GlassApplication@@0KA 000000018003cb14     GlassApplication.obj
 0003:00002b18       ?sm_hMouseLLHook@GlassApplication@@0PEAUHHOOK__@@EA 000000018003cb18     GlassApplication.obj
 0003:00002b20       ?sm_nestedLoopReturnValue@GlassApplication@@0V?$JGlobalRef@PEAV_jobject@@@@A 000000018003cb20     GlassApplication.obj
 0003:00002b30       ?fidPtr@@3PEAU_jfieldID@@EA 000000018003cb30     GlassClipboard.obj
 0003:00002b38       ?midContentChanged@@3PEAU_jmethodID@@EA 000000018003cb38     GlassClipboard.obj
 0003:00002b40       ?midActionPerformed@@3PEAU_jmethodID@@EA 000000018003cb40     GlassClipboard.obj
 0003:00002b60       ?mime2oscf@@3V?$hash_map@V_bstr_t@@GV?$hash_compare@V_bstr_t@@U?$less@V_bstr_t@@@std@@@stdext@@V?$allocator@U?$pair@$$CBV_bstr_t@@G@std@@@std@@@stdext@@A 000000018003cb60     GlassClipboard.obj
 0003:00002ba0       ?oscf2mime@@3V?$hash_map@GV_bstr_t@@V?$hash_compare@GU?$less@G@std@@@stdext@@V?$allocator@U?$pair@$$CBGV_bstr_t@@@std@@@std@@@stdext@@A 000000018003cba0     GlassClipboard.obj
 0003:00002be0       ?s_jcidThrowable_getMessage@?9??checkJavaException@@YAJPEAUJNIEnv_@@@Z@4PEAU_jmethodID@@EA 000000018003cbe0     GlassClipboard.obj
 0003:00002be8       ?$TSS0@?9??checkJavaException@@YAJPEAUJNIEnv_@@@Z@4HA 000000018003cbe8     GlassClipboard.obj
 0003:00002bf0       ?empty@?1??getString@BinaryChunk@@QEAA?AV_bstr_t@@XZ@4V3@B 000000018003cbf0     GlassClipboard.obj
 0003:00002bf8       ?$TSS0@?1??getString@BinaryChunk@@QEAA?AV_bstr_t@@XZ@4HA 000000018003cbf8     GlassClipboard.obj
 0003:00002c00       ?fcsSize@?3??pushCommit@ClipboardData@@QEAAJPEAUJNIEnv_@@PEAV_jobjectArray@@J@Z@4_KB 000000018003cc00     GlassClipboard.obj
 0003:00002c08       ?$TSS0@?3??pushCommit@ClipboardData@@QEAAJPEAUJNIEnv_@@PEAV_jobjectArray@@J@Z@4HA 000000018003cc08     GlassClipboard.obj
 0003:00002c10       ?gulSize@?3??pushCommit@ClipboardData@@QEAAJPEAUJNIEnv_@@PEAV_jobjectArray@@J@Z@4_KB 000000018003cc10     GlassClipboard.obj
 0003:00002c18       ?$TSS1@?3??pushCommit@ClipboardData@@QEAAJPEAUJNIEnv_@@PEAV_jobjectArray@@J@Z@4HA 000000018003cc18     GlassClipboard.obj
 0003:00002c20       ?gulAFNSize@?3??pushCommit@ClipboardData@@QEAAJPEAUJNIEnv_@@PEAV_jobjectArray@@J@Z@4_KB 000000018003cc20     GlassClipboard.obj
 0003:00002c28       ?$TSS2@?3??pushCommit@ClipboardData@@QEAAJPEAUJNIEnv_@@PEAV_jobjectArray@@J@Z@4HA 000000018003cc28     GlassClipboard.obj
 0003:00002c30       ?fmtFileDescriptor@?BC@??pushCommit@ClipboardData@@QEAAJPEAUJNIEnv_@@PEAV_jobjectArray@@J@Z@4UtagFORMATETC@@B 000000018003cc30     GlassClipboard.obj
 0003:00002c50       ?$TSS3@?BC@??pushCommit@ClipboardData@@QEAAJPEAUJNIEnv_@@PEAV_jobjectArray@@J@Z@4HA 000000018003cc50     GlassClipboard.obj
 0003:00002c58       ?fmtFileContent@?BC@??pushCommit@ClipboardData@@QEAAJPEAUJNIEnv_@@PEAV_jobjectArray@@J@Z@4UtagFORMATETC@@B 000000018003cc58     GlassClipboard.obj
 0003:00002c78       ?$TSS4@?BC@??pushCommit@ClipboardData@@QEAAJPEAUJNIEnv_@@PEAV_jobjectArray@@J@Z@4HA 000000018003cc78     GlassClipboard.obj
 0003:00002c80       ?fmt@?BF@??pushCommit@ClipboardData@@QEAAJPEAUJNIEnv_@@PEAV_jobjectArray@@J@Z@4UtagFORMATETC@@B 000000018003cc80     GlassClipboard.obj
 0003:00002ca0       ?$TSS5@?BF@??pushCommit@ClipboardData@@QEAAJPEAUJNIEnv_@@PEAV_jobjectArray@@J@Z@4HA 000000018003cca0     GlassClipboard.obj
 0003:00002ca8       ?bsContentHeader@?P@??GetData@ClipboardData@@UEAAJPEAUtagFORMATETC@@PEAUtagSTGMEDIUM@@@Z@4V_bstr_t@@B 000000018003cca8     GlassClipboard.obj
 0003:00002cb0       ?$TSS0@?P@??GetData@ClipboardData@@UEAAJPEAUtagFORMATETC@@PEAUtagSTGMEDIUM@@@Z@4HA 000000018003ccb0     GlassClipboard.obj
 0003:00002cb4       ?cf@?8??SetData@ClipboardData@@UEAAJPEAUtagFORMATETC@@PEAUtagSTGMEDIUM@@H@Z@4GB 000000018003ccb4     GlassClipboard.obj
 0003:00002cb8       ?$TSS0@?8??SetData@ClipboardData@@UEAAJPEAUtagFORMATETC@@PEAUtagSTGMEDIUM@@H@Z@4HA 000000018003ccb8     GlassClipboard.obj
 0003:00002cbc       ?stuffFormas@?CD@??_UserDo@_MyAction@?1??Java_com_sun_glass_ui_win_WinSystemClipboard_popMimesFromSystem@@YAPEAV_jobjectArray@@PEAUJNIEnv_@@PEAV_jobject@@@Z@QEAAPEAV4@XZ@4QBGB 000000018003ccbc     GlassClipboard.obj
 0003:00002cc0       ?$TSS0@?CD@??_UserDo@_MyAction@?1??Java_com_sun_glass_ui_win_WinSystemClipboard_popMimesFromSystem@@YAPEAV_jobjectArray@@PEAUJNIEnv_@@PEAV_jobject@@@Z@QEAAPEAV4@XZ@4HA 000000018003ccc0     GlassClipboard.obj
 0003:00002cc8       ?bsAcessType@?CN@??_UserDo@_MyAction@?1??Java_com_sun_glass_ui_win_WinSystemClipboard_popMimesFromSystem@@YAPEAV_jobjectArray@@PEAUJNIEnv_@@PEAV_jobject@@@Z@QEAAPEAV4@XZ@4V_bstr_t@@B 000000018003ccc8     GlassClipboard.obj
 0003:00002cd0       ?$TSS1@?CN@??_UserDo@_MyAction@?1??Java_com_sun_glass_ui_win_WinSystemClipboard_popMimesFromSystem@@YAPEAV_jobjectArray@@PEAUJNIEnv_@@PEAV_jobject@@@Z@QEAAPEAV4@XZ@4HA 000000018003ccd0     GlassClipboard.obj
 0003:00002cd4       ?stuffFormas@?4??Do@_MyAction@?1??Java_com_sun_glass_ui_win_WinSystemClipboard_pushTargetActionToSystem@@YAXPEAUJNIEnv_@@PEAV_jobject@@J@Z@UEAAXXZ@4QBGB 000000018003ccd4     GlassClipboard.obj
 0003:00002cd8       ?$TSS0@?4??Do@_MyAction@?1??Java_com_sun_glass_ui_win_WinSystemClipboard_pushTargetActionToSystem@@YAXPEAUJNIEnv_@@PEAV_jobject@@J@Z@UEAAXXZ@4HA 000000018003ccd8     GlassClipboard.obj
 0003:00002d58       ?g_MonitorInfos@@3U<unnamed-type-g_MonitorInfos>@@A 000000018003cd58     GlassScreen.obj
 0003:00002d68       ?triedToFindDPIFuncs@@3HA  000000018003cd68     GlassScreen.obj
 0003:00002d70       ?pGetDPIForMonitor@@3P6AJPEAUHMONITOR__@@W4_Monitor_DPI_Type@@PEAI2@ZEA 000000018003cd70     GlassScreen.obj
 0003:00002d78       ?pGetProcessDPIAwareness@@3P6AJPEAXPEAW4_Process_DPI_Awareness@@@ZEA 000000018003cd78     GlassScreen.obj
 0003:00002d80       ?pSetProcessDPIAwareness@@3P6AJW4_Process_DPI_Awareness@@@ZEA 000000018003cd80     GlassScreen.obj
 0003:00002e20       ?sm_grabWindow@GlassWindow@@0PEAUHWND__@@EA 000000018003ce20     GlassWindow.obj
 0003:00002e28       ?sm_instanceCounter@GlassWindow@@0IA 000000018003ce28     GlassWindow.obj
 0003:00002e30       ?sm_hCBTFilter@GlassWindow@@0PEAUHHOOK__@@EA 000000018003ce30     GlassWindow.obj
 0003:00002e68       ?timersCount@Timer@@0IA    000000018003ce68     Timer.obj
 0003:00002e6c       ?wTimerRes@Timer@@0IA      000000018003ce6c     Timer.obj
 0003:00002e70       ?tc@Timer@@0Utimecaps_tag@@A 000000018003ce70     Timer.obj
 0003:00002e80       ?javaIDs@@3U_tagJavaIDs@@A 000000018003ce80     Utils.obj
 0003:000030d8       __hmod__urlmon_dll         000000018003d0d8     urlmon:urlmon.dll
 0003:000030e0       __hmod__WINMM_dll          000000018003d0e0     winmm:WINMM.dll
 0003:000030e8       __hmod__SHELL32_dll        000000018003d0e8     shell32:SHELL32.dll
 0003:000030f0       __hmod__UIAutomationCore_DLL 000000018003d0f0     Uiautomationcore:UIAutomationCore.DLL
 0003:000030f8       __hmod__dwmapi_dll         000000018003d0f8     dwmapi:dwmapi.dll
 0003:00003100       __hmod__USER32_dll         000000018003d100     user32:USER32.dll
 0003:00003108       ?nothrow@std@@3Unothrow_t@1@B 000000018003d108     msvcprt:nothrow.obj
 0003:0000310c       _tls_index                 000000018003d10c     MSVCRT:tlssup.obj
 0003:00003110       __scrt_current_native_startup_state 000000018003d110     MSVCRT:utility.obj
 0003:00003118       __scrt_native_startup_lock 000000018003d118     MSVCRT:utility.obj
 0003:00003720       __favor                    000000018003d720     MSVCRT:cpu_disp.obj
 0003:00003724       __scrt_debugger_hook_flag  000000018003d724     MSVCRT:utility_desktop.obj
 0003:00003730       ?__type_info_root_node@@3U__type_info_node@@A 000000018003d730     MSVCRT:tncleanup.obj
 0003:00003740       ?_OptionsStorage@?1??__local_stdio_scanf_options@@9@4_KA 000000018003d740     MSVCRT:default_local_stdio_options.obj
 0003:00003748       ?DloadKernel32@@3PEAUHINSTANCE__@@EA 000000018003d748     delayimp:delayhlp.obj
 0003:00003750       ?DloadAcquireSRWLockExclusive@@3P6AXPEA_K@ZEA 000000018003d750     delayimp:delayhlp.obj
 0003:00003758       ?DloadReleaseSRWLockExclusive@@3P6AXPEA_K@ZEA 000000018003d758     delayimp:delayhlp.obj
 0003:00003760       ?DloadSrwLock@@3_KA        000000018003d760     delayimp:delayhlp.obj
 0003:00003768       ?DloadSectionLockCount@@3KA 000000018003d768     delayimp:delayhlp.obj
 0003:0000376c       ?DloadSectionOldProtection@@3KA 000000018003d76c     delayimp:delayhlp.obj
 0003:00003770       ?DloadSectionCommitPermanent@@3KA 000000018003d770     delayimp:delayhlp.obj
 0003:00003778       __dyn_tls_init_callback    000000018003d778     <common>

 entry point at        0001:000229e4

 Static symbols

 0001:00000000       ??__E?sm_nestedLoopReturnValue@GlassApplication@@0V?$JGlobalRef@PEAV_jobject@@@@A@@YAXXZ 0000000180001000 f   GlassApplication.obj
 0001:00000010       ??__E_init_mime_stuff@@YAXXZ 0000000180001010 f   GlassClipboard.obj
 0001:00000030       ??__Emime2oscf@@YAXXZ      0000000180001030 f   GlassClipboard.obj
 0001:000000b0       ??__Eoscf2mime@@YAXXZ      00000001800010b0 f   GlassClipboard.obj
 0001:00000130       ??__Epairs@@YAXXZ          0000000180001130 f   GlassClipboard.obj
 0001:000001c0       ??__EvtMissing@@YAXXZ      00000001800011c0 f   comsuppw:comutil.obj
 0001:00000340       ??_G_MyAction@?1??Java_com_sun_glass_ui_win_WinView__1scheduleRepaint@@YAXPEAUJNIEnv_@@PEAV_jobject@@_J@Z@UEAAPEAXI@Z 0000000180001340 f   GlassView.obj
 0001:00000340       ??_G_MyAction@?4???1BaseWnd@@UEAA@XZ@UEAAPEAXI@Z 0000000180001340 f   BaseWnd.obj
 0001:00000340       ??_G_MyAction@?1??Java_com_sun_glass_ui_win_WinWindow__1toBack@@YAXPEAUJNIEnv_@@PEAV_jobject@@_J@Z@UEAAPEAXI@Z 0000000180001340 f   GlassWindow.obj
 0001:00000340       ??_G_MyAction@?1??Java_com_sun_glass_ui_win_WinWindow__1toFront@@YAXPEAUJNIEnv_@@PEAV_jobject@@_J@Z@UEAAPEAXI@Z 0000000180001340 f   GlassWindow.obj
 0001:00000340       ??_G_MyAction@?1??Java_com_sun_glass_ui_win_WinWindow__1ungrabFocus@@YAXPEAUJNIEnv_@@PEAV_jobject@@_J@Z@UEAAPEAXI@Z 0000000180001340 f   GlassWindow.obj
 0001:00000340       ??_G_MyAction@?1??Java_com_sun_glass_ui_win_WinSystemClipboard_dispose@@YAXPEAUJNIEnv_@@PEAV_jobject@@@Z@UEAAPEAXI@Z 0000000180001340 f   GlassClipboard.obj
 0001:00000340       ??_G_MyAction@?1??Java_com_sun_glass_ui_win_WinDnDClipboard_dispose@@YAXPEAUJNIEnv_@@PEAV_jobject@@@Z@UEAAPEAXI@Z 0000000180001340 f   GlassClipboard.obj
 0001:000005a0       ?Do@_MyAction@?4???1BaseWnd@@UEAA@XZ@UEAAXXZ 00000001800015a0 f   BaseWnd.obj
 0001:00002950       memcpy_s                   0000000180003950 f   CommonDialogs_COM.obj
 0001:00004b10       $LN83                      0000000180005b10     FullScreenWindow.obj
 0001:00004b30       $LN82                      0000000180005b30     FullScreenWindow.obj
 0001:000066a4       $LN60                      00000001800076a4     GlassAccessible.obj
 0001:00008b80       ??_G_MyAction@?1??Java_com_sun_glass_ui_win_WinSystemClipboard_create@@YAXPEAUJNIEnv_@@PEAV_jobject@@@Z@UEAAPEAXI@Z 0000000180009b80 f   GlassClipboard.obj
 0001:00008b80       ??_G_MyAction@?1??Java_com_sun_glass_ui_win_WinApplication__1invokeAndWait@@YAXPEAUJNIEnv_@@PEAV_jobject@@1@Z@UEAAPEAXI@Z 0000000180009b80 f   GlassApplication.obj
 0001:00008b80       ??_G_MyAction@?1??Java_com_sun_glass_ui_win_WinApplication__1submitForLaterInvocation@@YAXPEAUJNIEnv_@@PEAV_jobject@@1@Z@UEAAPEAXI@Z 0000000180009b80 f   GlassApplication.obj
 0001:00008de0       ?Do@_MyAction@?1??Java_com_sun_glass_ui_win_WinApplication__1submitForLaterInvocation@@YAXPEAUJNIEnv_@@PEAV_jobject@@1@Z@UEAAXXZ 0000000180009de0 f   GlassApplication.obj
 0001:00008de0       ?Do@_MyAction@?1??Java_com_sun_glass_ui_win_WinApplication__1invokeAndWait@@YAXPEAUJNIEnv_@@PEAV_jobject@@1@Z@UEAAXXZ 0000000180009de0 f   GlassApplication.obj
 0001:0000b170       ??1_MyAction@?1??Java_com_sun_glass_ui_win_WinDnDClipboard_push@@YAXPEAUJNIEnv_@@PEAV_jobject@@PEAV_jobjectArray@@J@Z@UEAA@XZ 000000018000c170 f   GlassClipboard.obj
 0001:0000b170       ??1_MyAction@?1??Java_com_sun_glass_ui_win_WinSystemClipboard_push@@YAXPEAUJNIEnv_@@PEAV_jobject@@PEAV_jobjectArray@@J@Z@UEAA@XZ 000000018000c170 f   GlassClipboard.obj
 0001:0000b810       ??_G_MyAction@?1??Java_com_sun_glass_ui_win_WinDnDClipboard_push@@YAXPEAUJNIEnv_@@PEAV_jobject@@PEAV_jobjectArray@@J@Z@UEAAPEAXI@Z 000000018000c810 f   GlassClipboard.obj
 0001:0000b810       ??_G_MyAction@?1??Java_com_sun_glass_ui_win_WinSystemClipboard_push@@YAXPEAUJNIEnv_@@PEAV_jobject@@PEAV_jobjectArray@@J@Z@UEAAPEAXI@Z 000000018000c810 f   GlassClipboard.obj
 0001:0000b850       ??_G_MyAction@?1??Java_com_sun_glass_ui_win_WinSystemClipboard_popMimesFromSystem@@YAPEAV_jobjectArray@@PEAUJNIEnv_@@PEAV_jobject@@@Z@UEAAPEAXI@Z 000000018000c850 f   GlassClipboard.obj
 0001:0000b850       ??_G_MyAction@?1??Java_com_sun_glass_ui_win_WinWindow__1getEmbeddedX@@YAJPEAUJNIEnv_@@PEAV_jobject@@_J@Z@UEAAPEAXI@Z 000000018000c850 f   GlassWindow.obj
 0001:0000b850       ??_G_MyAction@?1??Java_com_sun_glass_ui_win_WinView__1setParent@@YAXPEAUJNIEnv_@@PEAV_jobject@@_J2@Z@UEAAPEAXI@Z 000000018000c850 f   GlassView.obj
 0001:0000b850       ??_G_MyAction@?1??Java_com_sun_glass_ui_win_WinWindow__1maximize@@YAEPEAUJNIEnv_@@PEAV_jobject@@_JEE@Z@UEAAPEAXI@Z 000000018000c850 f   GlassWindow.obj
 0001:0000b850       ??_G_MyAction@?1??Java_com_sun_glass_ui_win_WinSystemClipboard_pushTargetActionToSystem@@YAXPEAUJNIEnv_@@PEAV_jobject@@J@Z@UEAAPEAXI@Z 000000018000c850 f   GlassClipboard.obj
 0001:0000b850       ??_G_MyAction@?1??Java_com_sun_glass_ui_win_WinWindow__1setAlpha@@YAXPEAUJNIEnv_@@PEAV_jobject@@_JM@Z@UEAAPEAXI@Z 000000018000c850 f   GlassWindow.obj
 0001:0000b850       ??_G_MyAction@?1??Java_com_sun_glass_ui_win_WinWindow__1setView@@YAEPEAUJNIEnv_@@PEAV_jobject@@_J1@Z@UEAAPEAXI@Z 000000018000c850 f   GlassWindow.obj
 0001:0000b850       ??_G_MyAction@?1??Java_com_sun_glass_ui_win_WinView__1close@@YAEPEAUJNIEnv_@@PEAV_jobject@@_J@Z@UEAAPEAXI@Z 000000018000c850 f   GlassView.obj
 0001:0000b850       ??_G_MyAction@?1??Java_com_sun_glass_ui_win_WinSystemClipboard_popSupportedSourceActions@@YAJPEAUJNIEnv_@@PEAV_jobject@@@Z@UEAAPEAXI@Z 000000018000c850 f   GlassClipboard.obj
 0001:0000b850       ??_G_MyAction@?1??Java_com_sun_glass_ui_win_WinWindow__1getEmbeddedY@@YAJPEAUJNIEnv_@@PEAV_jobject@@_J@Z@UEAAPEAXI@Z 000000018000c850 f   GlassWindow.obj
 0001:0000b850       ??_G_MyAction@?1??Java_com_sun_glass_ui_win_WinWindow__1setEnabled@@YAXPEAUJNIEnv_@@PEAV_jobject@@_JE@Z@UEAAPEAXI@Z 000000018000c850 f   GlassWindow.obj
 0001:0000b850       ??_G_MyAction@?1??Java_com_sun_glass_ui_win_WinWindow__1close@@YAEPEAUJNIEnv_@@PEAV_jobject@@_J@Z@UEAAPEAXI@Z 000000018000c850 f   GlassWindow.obj
 0001:0000b850       ??_G_MyAction@?1??Java_com_sun_glass_ui_win_WinWindow__1minimize@@YAEPEAUJNIEnv_@@PEAV_jobject@@_JE@Z@UEAAPEAXI@Z 000000018000c850 f   GlassWindow.obj
 0001:0000b850       ??_G_MyAction@?1??Java_com_sun_glass_ui_win_WinWindow__1setFocusable@@YAXPEAUJNIEnv_@@PEAV_jobject@@_JE@Z@UEAAPEAXI@Z 000000018000c850 f   GlassWindow.obj
 0001:0000b850       ??_G_MyAction@?1??Java_com_sun_glass_ui_win_WinView__1getX@@YAJPEAUJNIEnv_@@PEAV_jobject@@_J@Z@UEAAPEAXI@Z 000000018000c850 f   GlassView.obj
 0001:0000b850       ??_G_MyAction@?1??Java_com_sun_glass_ui_win_WinSystemClipboard_isOwner@@YAEPEAUJNIEnv_@@PEAV_jobject@@@Z@UEAAPEAXI@Z 000000018000c850 f   GlassClipboard.obj
 0001:0000b850       ??_G_MyAction@?1??Java_com_sun_glass_ui_win_WinWindow__1grabFocus@@YAEPEAUJNIEnv_@@PEAV_jobject@@_J@Z@UEAAPEAXI@Z 000000018000c850 f   GlassWindow.obj
 0001:0000b850       ??_G_MyAction@?1??Java_com_sun_glass_ui_win_WinWindow__1requestFocus@@YAEPEAUJNIEnv_@@PEAV_jobject@@_JJ@Z@UEAAPEAXI@Z 000000018000c850 f   GlassWindow.obj
 0001:0000b850       ??_G_MyAction@?1??Java_com_sun_glass_ui_win_WinView__1exitFullscreen@@YAXPEAUJNIEnv_@@PEAV_jobject@@_JE@Z@UEAAPEAXI@Z 000000018000c850 f   GlassView.obj
 0001:0000b850       ??_G_MyAction@?1??Java_com_sun_glass_ui_win_WinView__1getY@@YAJPEAUJNIEnv_@@PEAV_jobject@@_J@Z@UEAAPEAXI@Z 000000018000c850 f   GlassView.obj
 0001:0000b850       ??_G_MyAction@?1??Java_com_sun_glass_ui_win_WinWindow__1setLevel@@YAXPEAUJNIEnv_@@PEAV_jobject@@_JJ@Z@UEAAPEAXI@Z 000000018000c850 f   GlassWindow.obj
 0001:0000b850       ??_G_MyAction@?1??Java_com_sun_glass_ui_win_WinWindow__1setResizable@@YAEPEAUJNIEnv_@@PEAV_jobject@@_JE@Z@UEAAPEAXI@Z 000000018000c850 f   GlassWindow.obj
 0001:0000b850       ??_G_MyAction@?1??Java_com_sun_glass_ui_win_WinWindow__1setVisible@@YAEPEAUJNIEnv_@@PEAV_jobject@@_JE@Z@UEAAPEAXI@Z 000000018000c850 f   GlassWindow.obj
 0001:0000b880       ??_G_MyAction@?1??Java_com_sun_glass_ui_win_WinWindow__1createChildWindow@@YA_JPEAUJNIEnv_@@PEAV_jobject@@_J@Z@UEAAPEAXI@Z 000000018000c880 f   GlassWindow.obj
 0001:0000b880       ??_G_MyAction@?1??Java_com_sun_glass_ui_win_WinSystemClipboard_pop@@YAEPEAUJNIEnv_@@PEAV_jobject@@@Z@UEAAPEAXI@Z 000000018000c880 f   GlassClipboard.obj
 0001:0000b8f0       ??_G_MyAction@?1??Java_com_sun_glass_ui_win_WinSystemClipboard_popBytes@@YAPEAV_jbyteArray@@PEAUJNIEnv_@@PEAV_jobject@@PEAV_jstring@@_J@Z@UEAAPEAXI@Z 000000018000c8f0 f   GlassClipboard.obj
 0001:0000bb90       ?Do@_MyAction@?1??Java_com_sun_glass_ui_win_WinDnDClipboard_dispose@@YAXPEAUJNIEnv_@@PEAV_jobject@@@Z@UEAAXXZ 000000018000cb90 f   GlassClipboard.obj
 0001:0000bbb0       ?Do@_MyAction@?1??Java_com_sun_glass_ui_win_WinDnDClipboard_push@@YAXPEAUJNIEnv_@@PEAV_jobject@@PEAV_jobjectArray@@J@Z@UEAAXXZ 000000018000cbb0 f   GlassClipboard.obj
 0001:0000bdc0       ?Do@_MyAction@?1??Java_com_sun_glass_ui_win_WinSystemClipboard_create@@YAXPEAUJNIEnv_@@PEAV_jobject@@@Z@UEAAXXZ 000000018000cdc0 f   GlassClipboard.obj
 0001:0000bdd0       ?Do@_MyAction@?1??Java_com_sun_glass_ui_win_WinSystemClipboard_dispose@@YAXPEAUJNIEnv_@@PEAV_jobject@@@Z@UEAAXXZ 000000018000cdd0 f   GlassClipboard.obj
 0001:0000beb0       ?Do@_MyAction@?1??Java_com_sun_glass_ui_win_WinSystemClipboard_isOwner@@YAEPEAUJNIEnv_@@PEAV_jobject@@@Z@UEAAXXZ 000000018000ceb0 f   GlassClipboard.obj
 0001:0000bee0       ?Do@_MyAction@?1??Java_com_sun_glass_ui_win_WinSystemClipboard_pop@@YAEPEAUJNIEnv_@@PEAV_jobject@@@Z@UEAAXXZ 000000018000cee0 f   GlassClipboard.obj
 0001:0000bf50       ?Do@_MyAction@?1??Java_com_sun_glass_ui_win_WinSystemClipboard_popBytes@@YAPEAV_jbyteArray@@PEAUJNIEnv_@@PEAV_jobject@@PEAV_jstring@@_J@Z@UEAAXXZ 000000018000cf50 f   GlassClipboard.obj
 0001:0000bf70       ?Do@_MyAction@?1??Java_com_sun_glass_ui_win_WinSystemClipboard_popMimesFromSystem@@YAPEAV_jobjectArray@@PEAUJNIEnv_@@PEAV_jobject@@@Z@UEAAXXZ 000000018000cf70 f   GlassClipboard.obj
 0001:0000bf90       ?Do@_MyAction@?1??Java_com_sun_glass_ui_win_WinSystemClipboard_popSupportedSourceActions@@YAJPEAUJNIEnv_@@PEAV_jobject@@@Z@UEAAXXZ 000000018000cf90 f   GlassClipboard.obj
 0001:0000c080       ?Do@_MyAction@?1??Java_com_sun_glass_ui_win_WinSystemClipboard_push@@YAXPEAUJNIEnv_@@PEAV_jobject@@PEAV_jobjectArray@@J@Z@UEAAXXZ 000000018000d080 f   GlassClipboard.obj
 0001:0000c1a0       ?Do@_MyAction@?1??Java_com_sun_glass_ui_win_WinSystemClipboard_pushTargetActionToSystem@@YAXPEAUJNIEnv_@@PEAV_jobject@@J@Z@UEAAXXZ 000000018000d1a0 f   GlassClipboard.obj
 0001:0000e550       ?_UserDo@_MyAction@?1??Java_com_sun_glass_ui_win_WinSystemClipboard_popBytes@@YAPEAV_jbyteArray@@PEAUJNIEnv_@@PEAV_jobject@@PEAV_jstring@@_J@Z@QEAAPEAV3@XZ 000000018000f550 f   GlassClipboard.obj
 0001:0000e760       ?_UserDo@_MyAction@?1??Java_com_sun_glass_ui_win_WinSystemClipboard_popMimesFromSystem@@YAPEAV_jobjectArray@@PEAUJNIEnv_@@PEAV_jobject@@@Z@QEAAPEAV3@XZ 000000018000f760 f   GlassClipboard.obj
 0001:00012f54       $LN28                      0000000180013f54     GlassCursor.obj
 0001:00017de0       ??_G_MyAction@?1??Java_com_sun_glass_ui_win_WinWindow__1setMinimumSize@@YAEPEAUJNIEnv_@@PEAV_jobject@@_JJJ@Z@UEAAPEAXI@Z 0000000180018de0 f   GlassWindow.obj
 0001:00017de0       ??_G_MyAction@?1??Java_com_sun_glass_ui_win_WinWindow__1setMaximumSize@@YAEPEAUJNIEnv_@@PEAV_jobject@@_JJJ@Z@UEAAPEAXI@Z 0000000180018de0 f   GlassWindow.obj
 0001:00017de0       ??_G_MyAction@?1??Java_com_sun_glass_ui_win_WinWindow__1setTitle@@YAEPEAUJNIEnv_@@PEAV_jobject@@_JPEAV_jstring@@@Z@UEAAPEAXI@Z 0000000180018de0 f   GlassWindow.obj
 0001:00017de0       ??_G_MyAction@?1??Java_com_sun_glass_ui_win_WinView__1enterFullscreen@@YAEPEAUJNIEnv_@@PEAV_jobject@@_JEEE@Z@UEAAPEAXI@Z 0000000180018de0 f   GlassView.obj
 0001:00017de0       ??_G_MyAction@?1??Java_com_sun_glass_ui_win_WinWindow__1setMenubar@@YAEPEAUJNIEnv_@@PEAV_jobject@@_J2@Z@UEAAPEAXI@Z 0000000180018de0 f   GlassWindow.obj
 0001:00017de0       ??_G_MyAction@?1??Java_com_sun_glass_ui_win_WinWindow__1setBackground@@YAEPEAUJNIEnv_@@PEAV_jobject@@_JMMM@Z@UEAAPEAXI@Z 0000000180018de0 f   GlassWindow.obj
 0001:00017e10       ??_G_MyAction@?1??Java_com_sun_glass_ui_win_WinWindow__1setCursor@@YAXPEAUJNIEnv_@@PEAV_jobject@@_J1@Z@UEAAPEAXI@Z 0000000180018e10 f   GlassWindow.obj
 0001:00017e10       ??_G_MyAction@?1??Java_com_sun_glass_ui_win_WinView__1uploadPixels@@YAXPEAUJNIEnv_@@PEAV_jobject@@_J1@Z@UEAAPEAXI@Z 0000000180018e10 f   GlassView.obj
 0001:00017e80       ?Do@_MyAction@?1??Java_com_sun_glass_ui_win_WinView__1close@@YAEPEAUJNIEnv_@@PEAV_jobject@@_J@Z@UEAAXXZ 0000000180018e80 f   GlassView.obj
 0001:00017f00       ?Do@_MyAction@?1??Java_com_sun_glass_ui_win_WinView__1enterFullscreen@@YAEPEAUJNIEnv_@@PEAV_jobject@@_JEEE@Z@UEAAXXZ 0000000180018f00 f   GlassView.obj
 0001:00017fd0       ?Do@_MyAction@?1??Java_com_sun_glass_ui_win_WinView__1exitFullscreen@@YAXPEAUJNIEnv_@@PEAV_jobject@@_JE@Z@UEAAXXZ 0000000180018fd0 f   GlassView.obj
 0001:00018030       ?Do@_MyAction@?1??Java_com_sun_glass_ui_win_WinView__1getX@@YAJPEAUJNIEnv_@@PEAV_jobject@@_J@Z@UEAAXXZ 0000000180019030 f   GlassView.obj
 0001:000180c0       ?Do@_MyAction@?1??Java_com_sun_glass_ui_win_WinView__1getY@@YAJPEAUJNIEnv_@@PEAV_jobject@@_J@Z@UEAAXXZ 00000001800190c0 f   GlassView.obj
 0001:00018150       ?Do@_MyAction@?1??Java_com_sun_glass_ui_win_WinView__1scheduleRepaint@@YAXPEAUJNIEnv_@@PEAV_jobject@@_J@Z@UEAAXXZ 0000000180019150 f   GlassView.obj
 0001:00018170       ?Do@_MyAction@?1??Java_com_sun_glass_ui_win_WinView__1setParent@@YAXPEAUJNIEnv_@@PEAV_jobject@@_J2@Z@UEAAXXZ 0000000180019170 f   GlassView.obj
 0001:00018220       ?Do@_MyAction@?1??Java_com_sun_glass_ui_win_WinView__1uploadPixels@@YAXPEAUJNIEnv_@@PEAV_jobject@@_J1@Z@UEAAXXZ 0000000180019220 f   GlassView.obj
 0001:00018f20       ??_G_MyAction@?1??Java_com_sun_glass_ui_win_WinWindow__1createWindow@@YA_JPEAUJNIEnv_@@PEAV_jobject@@_J2J@Z@UEAAPEAXI@Z 0000000180019f20 f   GlassWindow.obj
 0001:00018f90       ??_G_MyAction@?1??Java_com_sun_glass_ui_win_WinWindow__1setBounds@@YAXPEAUJNIEnv_@@PEAV_jobject@@_JJJEEJJJJMM@Z@UEAAPEAXI@Z 0000000180019f90 f   GlassWindow.obj
 0001:00019140       ?Do@_MyAction@?1??Java_com_sun_glass_ui_win_WinWindow__1close@@YAEPEAUJNIEnv_@@PEAV_jobject@@_J@Z@UEAAXXZ 000000018001a140 f   GlassWindow.obj
 0001:00019190       ?Do@_MyAction@?1??Java_com_sun_glass_ui_win_WinWindow__1createChildWindow@@YA_JPEAUJNIEnv_@@PEAV_jobject@@_J@Z@UEAAXXZ 000000018001a190 f   GlassWindow.obj
 0001:00019270       ?Do@_MyAction@?1??Java_com_sun_glass_ui_win_WinWindow__1createWindow@@YA_JPEAUJNIEnv_@@PEAV_jobject@@_J2J@Z@UEAAXXZ 000000018001a270 f   GlassWindow.obj
 0001:00019290       ?Do@_MyAction@?1??Java_com_sun_glass_ui_win_WinWindow__1getEmbeddedX@@YAJPEAUJNIEnv_@@PEAV_jobject@@_J@Z@UEAAXXZ 000000018001a290 f   GlassWindow.obj
 0001:00019310       ?Do@_MyAction@?1??Java_com_sun_glass_ui_win_WinWindow__1getEmbeddedY@@YAJPEAUJNIEnv_@@PEAV_jobject@@_J@Z@UEAAXXZ 000000018001a310 f   GlassWindow.obj
 0001:00019390       ?Do@_MyAction@?1??Java_com_sun_glass_ui_win_WinWindow__1grabFocus@@YAEPEAUJNIEnv_@@PEAV_jobject@@_J@Z@UEAAXXZ 000000018001a390 f   GlassWindow.obj
 0001:00019400       ?Do@_MyAction@?1??Java_com_sun_glass_ui_win_WinWindow__1maximize@@YAEPEAUJNIEnv_@@PEAV_jobject@@_JEE@Z@UEAAXXZ 000000018001a400 f   GlassWindow.obj
 0001:00019420       ?Do@_MyAction@?1??Java_com_sun_glass_ui_win_WinWindow__1minimize@@YAEPEAUJNIEnv_@@PEAV_jobject@@_JE@Z@UEAAXXZ 000000018001a420 f   GlassWindow.obj
 0001:00019440       ?Do@_MyAction@?1??Java_com_sun_glass_ui_win_WinWindow__1requestFocus@@YAEPEAUJNIEnv_@@PEAV_jobject@@_JJ@Z@UEAAXXZ 000000018001a440 f   GlassWindow.obj
 0001:00019480       ?Do@_MyAction@?1??Java_com_sun_glass_ui_win_WinWindow__1setAlpha@@YAXPEAUJNIEnv_@@PEAV_jobject@@_JM@Z@UEAAXXZ 000000018001a480 f   GlassWindow.obj
 0001:00019530       ?Do@_MyAction@?1??Java_com_sun_glass_ui_win_WinWindow__1setBackground@@YAEPEAUJNIEnv_@@PEAV_jobject@@_JMMM@Z@UEAAXXZ 000000018001a530 f   GlassWindow.obj
 0001:000195c0       ?Do@_MyAction@?1??Java_com_sun_glass_ui_win_WinWindow__1setBounds@@YAXPEAUJNIEnv_@@PEAV_jobject@@_JJJEEJJJJMM@Z@UEAAXXZ 000000018001a5c0 f   GlassWindow.obj
 0001:00019820       ?Do@_MyAction@?1??Java_com_sun_glass_ui_win_WinWindow__1setCursor@@YAXPEAUJNIEnv_@@PEAV_jobject@@_J1@Z@UEAAXXZ 000000018001a820 f   GlassWindow.obj
 0001:000198a0       ?Do@_MyAction@?1??Java_com_sun_glass_ui_win_WinWindow__1setEnabled@@YAXPEAUJNIEnv_@@PEAV_jobject@@_JE@Z@UEAAXXZ 000000018001a8a0 f   GlassWindow.obj
 0001:00019900       ?Do@_MyAction@?1??Java_com_sun_glass_ui_win_WinWindow__1setFocusable@@YAXPEAUJNIEnv_@@PEAV_jobject@@_JE@Z@UEAAXXZ 000000018001a900 f   GlassWindow.obj
 0001:00019990       ?Do@_MyAction@?1??Java_com_sun_glass_ui_win_WinWindow__1setLevel@@YAXPEAUJNIEnv_@@PEAV_jobject@@_JJ@Z@UEAAXXZ 000000018001a990 f   GlassWindow.obj
 0001:000199c0       ?Do@_MyAction@?1??Java_com_sun_glass_ui_win_WinWindow__1setMaximumSize@@YAEPEAUJNIEnv_@@PEAV_jobject@@_JJJ@Z@UEAAXXZ 000000018001a9c0 f   GlassWindow.obj
 0001:00019a00       ?Do@_MyAction@?1??Java_com_sun_glass_ui_win_WinWindow__1setMenubar@@YAEPEAUJNIEnv_@@PEAV_jobject@@_J2@Z@UEAAXXZ 000000018001aa00 f   GlassWindow.obj
 0001:00019a50       ?Do@_MyAction@?1??Java_com_sun_glass_ui_win_WinWindow__1setMinimumSize@@YAEPEAUJNIEnv_@@PEAV_jobject@@_JJJ@Z@UEAAXXZ 000000018001aa50 f   GlassWindow.obj
 0001:00019a90       ?Do@_MyAction@?1??Java_com_sun_glass_ui_win_WinWindow__1setResizable@@YAEPEAUJNIEnv_@@PEAV_jobject@@_JE@Z@UEAAXXZ 000000018001aa90 f   GlassWindow.obj
 0001:00019b60       ?Do@_MyAction@?1??Java_com_sun_glass_ui_win_WinWindow__1setTitle@@YAEPEAUJNIEnv_@@PEAV_jobject@@_JPEAV_jstring@@@Z@UEAAXXZ 000000018001ab60 f   GlassWindow.obj
 0001:00019b90       ?Do@_MyAction@?1??Java_com_sun_glass_ui_win_WinWindow__1setView@@YAEPEAUJNIEnv_@@PEAV_jobject@@_J1@Z@UEAAXXZ 000000018001ab90 f   GlassWindow.obj
 0001:00019c10       ?Do@_MyAction@?1??Java_com_sun_glass_ui_win_WinWindow__1setVisible@@YAEPEAUJNIEnv_@@PEAV_jobject@@_JE@Z@UEAAXXZ 000000018001ac10 f   GlassWindow.obj
 0001:00019d00       ?Do@_MyAction@?1??Java_com_sun_glass_ui_win_WinWindow__1toBack@@YAXPEAUJNIEnv_@@PEAV_jobject@@_J@Z@UEAAXXZ 000000018001ad00 f   GlassWindow.obj
 0001:00019d30       ?Do@_MyAction@?1??Java_com_sun_glass_ui_win_WinWindow__1toFront@@YAXPEAUJNIEnv_@@PEAV_jobject@@_J@Z@UEAAXXZ 000000018001ad30 f   GlassWindow.obj
 0001:00019db0       ?Do@_MyAction@?1??Java_com_sun_glass_ui_win_WinWindow__1ungrabFocus@@YAXPEAUJNIEnv_@@PEAV_jobject@@_J@Z@UEAAXXZ 000000018001adb0 f   GlassWindow.obj
 0001:00019f80       ?EnumChildWndProc@@YAHPEAUHWND__@@_J@Z 000000018001af80 f   GlassWindow.obj
 0001:00019fc0       ?EnumOwnedWndProc@@YAHPEAUHWND__@@_J@Z 000000018001afc0 f   GlassWindow.obj
 0001:0001b0dc       $LN291                     000000018001c0dc     GlassWindow.obj
 0001:0001b120       $LN290                     000000018001c120     GlassWindow.obj
 0001:0001b1cc       $LN289                     000000018001c1cc     GlassWindow.obj
 0001:0001b1e0       $LN288                     000000018001c1e0     GlassWindow.obj
 0001:0001b2e0       $LN287                     000000018001c2e0     GlassWindow.obj
 0001:0001b2fc       $LN286                     000000018001c2fc     GlassWindow.obj
 0001:0001b3e0       ?_UserDo@_MyAction@?1??Java_com_sun_glass_ui_win_WinWindow__1createWindow@@YA_JPEAUJNIEnv_@@PEAV_jobject@@_J2J@Z@QEAA_JXZ 000000018001c3e0 f   GlassWindow.obj
 0001:0001c09c       $LN8                       000000018001d09c     KeyTable.obj
 0001:0001c0a4       $LN7                       000000018001d0a4     KeyTable.obj
 0001:0001ce10       ?KeyEvent@@YAHPEAUJNIEnv_@@H_N@Z 000000018001de10 f   Robot.obj
 0001:0001e9b8       $LN146                     000000018001f9b8     ViewContainer.obj
 0001:0001e9d8       $LN145                     000000018001f9d8     ViewContainer.obj
 0001:0001ea70       $LN144                     000000018001fa70     ViewContainer.obj
 0001:0001ea88       $LN143                     000000018001fa88     ViewContainer.obj
 0001:0001eb00       $LN142                     000000018001fb00     ViewContainer.obj
 0001:0001f294       $LN93                      0000000180020294     ViewContainer.obj
 0001:0001fea4       $LN84                      0000000180020ea4     ViewContainer.obj
 0001:0001feec       $LN83                      0000000180020eec     ViewContainer.obj
 0001:0001ff4c       $LN82                      0000000180020f4c     ViewContainer.obj
 0001:0001ff5c       $LN81                      0000000180020f5c     ViewContainer.obj
 0001:0001ff98       $LN80                      0000000180020f98     ViewContainer.obj
 0001:0001ffbc       $LN79                      0000000180020fbc     ViewContainer.obj
 0001:00020054       $LN78                      0000000180021054     ViewContainer.obj
 0001:00020280       ?LangToCodePage@@YAIG@Z    0000000180021280 f   ViewContainer.obj
 0001:00020550       ?NotifyTouchInput@?A0x6164a8e8@@YAXPEAUHWND__@@PEAV_jobject@@PEAV_jclass@@PEBUtagTOUCHINPUT@@I@Z 0000000180021550 f   ViewContainer.obj
 0001:00021e80       $$000000                   0000000180022e80     MSVCRT:amdsecgs.obj
 0001:0002236c       ?__scrt_initialize_thread_safe_statics@@YAHXZ 000000018002336c f   MSVCRT:thread_safe_statics.obj
 0001:000224cc       ?__scrt_uninitialize_thread_safe_statics@@YAXXZ 00000001800234cc f   MSVCRT:thread_safe_statics.obj
 0001:000226b4       ?dllmain_crt_dispatch@@YAHQEAUHINSTANCE__@@KQEAX@Z 00000001800236b4 f   MSVCRT:dll_dllmain.obj
 0001:00022704       ?dllmain_crt_process_attach@@YAHQEAUHINSTANCE__@@QEAX@Z 0000000180023704 f   MSVCRT:dll_dllmain.obj
 0001:00022820       ?dllmain_crt_process_detach@@YAH_N@Z 0000000180023820 f   MSVCRT:dll_dllmain.obj
 0001:000228b0       ?dllmain_dispatch@@YAHQEAUHINSTANCE__@@KQEAX@Z 00000001800238b0 f   MSVCRT:dll_dllmain.obj
 0001:00022ab0       $$000000                   0000000180023ab0     MSVCRT:chkstk.obj
 0001:00022dc8       capture_previous_context   0000000180023dc8 f   MSVCRT:gs_report.obj
 0001:000239f0       $$000000                   00000001800249f0     MSVCRT:guard_dispatch.obj
 0001:00023a10       ?dtor$0@?0???0_bstr_t@@QEAA@PEB_W@Z@4HA 0000000180024a10 f   CommonDialogs_COM.obj
 0001:00023a10       ?dtor$3@?0??getString@BinaryChunk@@QEAA?AV_bstr_t@@XZ@4HA 0000000180024a10 f   GlassClipboard.obj
 0001:00023a30       ?dtor$0@?0???Y_bstr_t@@QEAAAEAV0@AEBV0@@Z@4HA 0000000180024a30 f   CommonDialogs_COM.obj
 0001:00023a50       ?catch$7@?0??COMFileChooser_Show@@YAPEAV_jobject@@PEAUHWND__@@PEB_W11JEPEAV_jobjectArray@@J@Z@4HA 0000000180024a50 f   CommonDialogs_COM.obj
 0001:00023a5e       __catch$?COMFileChooser_Show@@YAPEAV_jobject@@PEAUHWND__@@PEB_W11JEPEAV_jobjectArray@@J@Z$0 0000000180024a5e f   CommonDialogs_COM.obj
 0001:00023a90       ?dtor$0@?0??COMFileChooser_Show@@YAPEAV_jobject@@PEAUHWND__@@PEB_W11JEPEAV_jobjectArray@@J@Z@4HA 0000000180024a90 f   CommonDialogs_COM.obj
 0001:00023aa0       ?dtor$5@?0??GetFiles@@YAPEAV_jobjectArray@@V?$_com_ptr_t@V?$_com_IIID@UIFileDialog@@$1?_GUID_42f85136_db7e_439c_85f1_e4075d135fc8@@3U__s_GUID@@B@@@@HJ@Z@4HA 0000000180024aa0 f   CommonDialogs_COM.obj
 0001:00023aa0       ?dtor$1@?0??COMFileChooser_Show@@YAPEAV_jobject@@PEAUHWND__@@PEB_W11JEPEAV_jobjectArray@@J@Z@4HA 0000000180024aa0 f   CommonDialogs_COM.obj
 0001:00023ab0       ?dtor$2@?0??COMFileChooser_Show@@YAPEAV_jobject@@PEAUHWND__@@PEB_W11JEPEAV_jobjectArray@@J@Z@4HA 0000000180024ab0 f   CommonDialogs_COM.obj
 0001:00023ac0       ?dtor$5@?0??COMFileChooser_Show@@YAPEAV_jobject@@PEAUHWND__@@PEB_W11JEPEAV_jobjectArray@@J@Z@4HA 0000000180024ac0 f   CommonDialogs_COM.obj
 0001:00023ad0       ?catch$4@?0??COMFolderChooser_Show@@YAPEAV_jstring@@PEAUHWND__@@PEB_W1@Z@4HA 0000000180024ad0 f   CommonDialogs_COM.obj
 0001:00023ade       __catch$?COMFolderChooser_Show@@YAPEAV_jstring@@PEAUHWND__@@PEB_W1@Z$0 0000000180024ade f   CommonDialogs_COM.obj
 0001:00023b20       ?dtor$0@?0??COMFolderChooser_Show@@YAPEAV_jstring@@PEAUHWND__@@PEB_W1@Z@4HA 0000000180024b20 f   CommonDialogs_COM.obj
 0001:00023b30       ?dtor$1@?0??COMFolderChooser_Show@@YAPEAV_jstring@@PEAUHWND__@@PEB_W1@Z@4HA 0000000180024b30 f   CommonDialogs_COM.obj
 0001:00023b40       ?dtor$2@?0??COMFolderChooser_Show@@YAPEAV_jstring@@PEAUHWND__@@PEB_W1@Z@4HA 0000000180024b40 f   CommonDialogs_COM.obj
 0001:00023b50       ?catch$1@?0??CreateJString@@YAPEAV_jstring@@PEAUJNIEnv_@@V?$_com_ptr_t@V?$_com_IIID@UIShellItem@@$1?_GUID_43826d1e_e718_42ee_bc55_a1e261c37bfe@@3U__s_GUID@@B@@@@@Z@4HA 0000000180024b50 f   CommonDialogs_COM.obj
 0001:00023b5e       __catch$?CreateJString@@YAPEAV_jstring@@PEAUJNIEnv_@@V?$_com_ptr_t@V?$_com_IIID@UIShellItem@@$1?_GUID_43826d1e_e718_42ee_bc55_a1e261c37bfe@@3U__s_GUID@@B@@@@@Z$0 0000000180024b5e f   CommonDialogs_COM.obj
 0001:00023b90       ?dtor$0@?0??CreateJString@@YAPEAV_jstring@@PEAUJNIEnv_@@V?$_com_ptr_t@V?$_com_IIID@UIShellItem@@$1?_GUID_43826d1e_e718_42ee_bc55_a1e261c37bfe@@3U__s_GUID@@B@@@@@Z@4HA 0000000180024b90 f   CommonDialogs_COM.obj
 0001:00023ba0       ?dtor$4@?0??GetFiles@@YAPEAV_jobjectArray@@V?$_com_ptr_t@V?$_com_IIID@UIFileDialog@@$1?_GUID_42f85136_db7e_439c_85f1_e4075d135fc8@@3U__s_GUID@@B@@@@HJ@Z@4HA 0000000180024ba0 f   CommonDialogs_COM.obj
 0001:00023ba0       ?dtor$0@?0??GetExtensions@@YAPEA_WPEAUJNIEnv_@@PEAV_jobject@@@Z@4HA 0000000180024ba0 f   CommonDialogs_COM.obj
 0001:00023ba0       ?dtor$2@?0??ConvertFiles@@YAPEAV_jobjectArray@@AEAVDNTString@@@Z@4HA 0000000180024ba0 f   CommonDialogs_Standard.obj
 0001:00023ba0       ?dtor$3@?0??checkJavaException@@YAJPEAUJNIEnv_@@@Z@4HA 0000000180024ba0 f   GlassClipboard.obj
 0001:00023bb0       ?dtor$0@?0??checkJavaException@@YAJPEAUJNIEnv_@@@Z@4HA 0000000180024bb0 f   GlassClipboard.obj
 0001:00023bb0       ?dtor$0@?0??ConvertFiles@@YAPEAV_jobjectArray@@AEAVDNTString@@@Z@4HA 0000000180024bb0 f   CommonDialogs_Standard.obj
 0001:00023bb0       ?dtor$3@?0??SetSourceSupportedActions@GlassDropTarget@@CAJJ@Z@4HA 0000000180024bb0 f   GlassDnD.obj
 0001:00023bb0       ?dtor$3@?0??SetDragButton@GlassDropSource@@SAJJ@Z@4HA 0000000180024bb0 f   GlassDnD.obj
 0001:00023bb0       ?dtor$1@?0??GetExtensions@@YAPEA_WPEAUJNIEnv_@@PEAV_jobject@@@Z@4HA 0000000180024bb0 f   CommonDialogs_COM.obj
 0001:00023bb0       ?dtor$2@?0??UpdateDnDClipboardData@GlassDropTarget@@IEAAJPEAUIDataObject@@@Z@4HA 0000000180024bb0 f   GlassDnD.obj
 0001:00023bc0       ?dtor$1@?0??GetFiles@@YAPEAV_jobjectArray@@V?$_com_ptr_t@V?$_com_IIID@UIFileDialog@@$1?_GUID_42f85136_db7e_439c_85f1_e4075d135fc8@@3U__s_GUID@@B@@@@HJ@Z@4HA 0000000180024bc0 f   CommonDialogs_COM.obj
 0001:00023bc0       ?dtor$3@?0??ConvertFiles@@YAPEAV_jobjectArray@@AEAVDNTString@@@Z@4HA 0000000180024bc0 f   CommonDialogs_Standard.obj
 0001:00023bc0       ?dtor$2@?0??GetExtensions@@YAPEA_WPEAUJNIEnv_@@PEAV_jobject@@@Z@4HA 0000000180024bc0 f   CommonDialogs_COM.obj
 0001:00023bd0       ?dtor$3@?0??GetExtensions@@YAPEA_WPEAUJNIEnv_@@PEAV_jobject@@@Z@4HA 0000000180024bd0 f   CommonDialogs_COM.obj
 0001:00023bd0       ?dtor$4@?0??ConvertFiles@@YAPEAV_jobjectArray@@AEAVDNTString@@@Z@4HA 0000000180024bd0 f   CommonDialogs_Standard.obj
 0001:00023be0       ?catch$19@?0??GetFiles@@YAPEAV_jobjectArray@@V?$_com_ptr_t@V?$_com_IIID@UIFileDialog@@$1?_GUID_42f85136_db7e_439c_85f1_e4075d135fc8@@3U__s_GUID@@B@@@@HJ@Z@4HA 0000000180024be0 f   CommonDialogs_COM.obj
 0001:00023bee       __catch$?GetFiles@@YAPEAV_jobjectArray@@V?$_com_ptr_t@V?$_com_IIID@UIFileDialog@@$1?_GUID_42f85136_db7e_439c_85f1_e4075d135fc8@@3U__s_GUID@@B@@@@HJ@Z$0 0000000180024bee f   CommonDialogs_COM.obj
 0001:00023c20       ?dtor$0@?0??GetFiles@@YAPEAV_jobjectArray@@V?$_com_ptr_t@V?$_com_IIID@UIFileDialog@@$1?_GUID_42f85136_db7e_439c_85f1_e4075d135fc8@@3U__s_GUID@@B@@@@HJ@Z@4HA 0000000180024c20 f   CommonDialogs_COM.obj
 0001:00023c30       ?dtor$7@?0??GetFiles@@YAPEAV_jobjectArray@@V?$_com_ptr_t@V?$_com_IIID@UIFileDialog@@$1?_GUID_42f85136_db7e_439c_85f1_e4075d135fc8@@3U__s_GUID@@B@@@@HJ@Z@4HA 0000000180024c30 f   CommonDialogs_COM.obj
 0001:00023c30       ?dtor$2@?0??GetFiles@@YAPEAV_jobjectArray@@V?$_com_ptr_t@V?$_com_IIID@UIFileDialog@@$1?_GUID_42f85136_db7e_439c_85f1_e4075d135fc8@@3U__s_GUID@@B@@@@HJ@Z@4HA 0000000180024c30 f   CommonDialogs_COM.obj
 0001:00023c40       ?dtor$6@?0??GetFiles@@YAPEAV_jobjectArray@@V?$_com_ptr_t@V?$_com_IIID@UIFileDialog@@$1?_GUID_42f85136_db7e_439c_85f1_e4075d135fc8@@3U__s_GUID@@B@@@@HJ@Z@4HA 0000000180024c40 f   CommonDialogs_COM.obj
 0001:00023c50       ?dtor$5@?0??ConvertFiles@@YAPEAV_jobjectArray@@AEAVDNTString@@@Z@4HA 0000000180024c50 f   CommonDialogs_Standard.obj
 0001:00023c50       ?dtor$9@?0??GetFiles@@YAPEAV_jobjectArray@@V?$_com_ptr_t@V?$_com_IIID@UIFileDialog@@$1?_GUID_42f85136_db7e_439c_85f1_e4075d135fc8@@3U__s_GUID@@B@@@@HJ@Z@4HA 0000000180024c50 f   CommonDialogs_COM.obj
 0001:00023c60       ?catch$3@?0??GetFolder@@YAPEAV_jstring@@V?$_com_ptr_t@V?$_com_IIID@UIFileDialog@@$1?_GUID_42f85136_db7e_439c_85f1_e4075d135fc8@@3U__s_GUID@@B@@@@H@Z@4HA 0000000180024c60 f   CommonDialogs_COM.obj
 0001:00023c6e       __catch$?GetFolder@@YAPEAV_jstring@@V?$_com_ptr_t@V?$_com_IIID@UIFileDialog@@$1?_GUID_42f85136_db7e_439c_85f1_e4075d135fc8@@3U__s_GUID@@B@@@@H@Z$0 0000000180024c6e f   CommonDialogs_COM.obj
 0001:00023ca0       ?dtor$0@?0??GetFolder@@YAPEAV_jstring@@V?$_com_ptr_t@V?$_com_IIID@UIFileDialog@@$1?_GUID_42f85136_db7e_439c_85f1_e4075d135fc8@@3U__s_GUID@@B@@@@H@Z@4HA 0000000180024ca0 f   CommonDialogs_COM.obj
 0001:00023cb0       ?dtor$1@?0??GetFolder@@YAPEAV_jstring@@V?$_com_ptr_t@V?$_com_IIID@UIFileDialog@@$1?_GUID_42f85136_db7e_439c_85f1_e4075d135fc8@@3U__s_GUID@@B@@@@H@Z@4HA 0000000180024cb0 f   CommonDialogs_COM.obj
 0001:00023cc0       ?catch$6@?0??SetFilters@@YAXV?$_com_ptr_t@V?$_com_IIID@UIFileDialog@@$1?_GUID_42f85136_db7e_439c_85f1_e4075d135fc8@@3U__s_GUID@@B@@@@PEAV_jobjectArray@@J@Z@4HA 0000000180024cc0 f   CommonDialogs_COM.obj
 0001:00023cce       __catch$?SetFilters@@YAXV?$_com_ptr_t@V?$_com_IIID@UIFileDialog@@$1?_GUID_42f85136_db7e_439c_85f1_e4075d135fc8@@3U__s_GUID@@B@@@@PEAV_jobjectArray@@J@Z$0 0000000180024cce f   CommonDialogs_COM.obj
 0001:00023d00       ?dtor$0@?0??SetFilters@@YAXV?$_com_ptr_t@V?$_com_IIID@UIFileDialog@@$1?_GUID_42f85136_db7e_439c_85f1_e4075d135fc8@@3U__s_GUID@@B@@@@PEAV_jobjectArray@@J@Z@4HA 0000000180024d00 f   CommonDialogs_COM.obj
 0001:00023d10       ?dtor$1@?0??SetFilters@@YAXV?$_com_ptr_t@V?$_com_IIID@UIFileDialog@@$1?_GUID_42f85136_db7e_439c_85f1_e4075d135fc8@@3U__s_GUID@@B@@@@PEAV_jobjectArray@@J@Z@4HA 0000000180024d10 f   CommonDialogs_COM.obj
 0001:00023d20       ?dtor$2@?0??SetFilters@@YAXV?$_com_ptr_t@V?$_com_IIID@UIFileDialog@@$1?_GUID_42f85136_db7e_439c_85f1_e4075d135fc8@@3U__s_GUID@@B@@@@PEAV_jobjectArray@@J@Z@4HA 0000000180024d20 f   CommonDialogs_COM.obj
 0001:00023d30       ?dtor$16@?0??_UserDo@_MyAction@?1??Java_com_sun_glass_ui_win_WinSystemClipboard_popMimesFromSystem@@YAPEAV_jobjectArray@@PEAUJNIEnv_@@PEAV_jobject@@@Z@QEAAPEAV3@XZ@4HA 0000000180024d30 f   GlassClipboard.obj
 0001:00023d30       ?dtor$0@?0??snvTrace@@YAXPEB_WPEAD@Z@4HA 0000000180024d30 f   CommonDialogs_COM.obj
 0001:00023d40       ?dtor$1@?0??snvTrace@@YAXPEB_WPEAD@Z@4HA 0000000180024d40 f   CommonDialogs_COM.obj
 0001:00023d40       ?dtor$2@?0??_UserDo@_MyAction@?1??Java_com_sun_glass_ui_win_WinSystemClipboard_popMimesFromSystem@@YAPEAV_jobjectArray@@PEAUJNIEnv_@@PEAV_jobject@@@Z@QEAAPEAV3@XZ@4HA 0000000180024d40 f   GlassClipboard.obj
 0001:00023d50       ?dtor$4@?0??snvTrace@@YAXPEB_WPEAD@Z@4HA 0000000180024d50 f   CommonDialogs_COM.obj
 0001:00023d50       ?dtor$3@?0??snvTrace@@YAXPEB_WPEAD@Z@4HA 0000000180024d50 f   CommonDialogs_COM.obj
 0001:00023d70       ?dtor$5@?0??snvTrace@@YAXPEB_WPEAD@Z@4HA 0000000180024d70 f   CommonDialogs_COM.obj
 0001:00023da0       ?dtor$1@?0??ConvertFiles@@YAPEAV_jobjectArray@@AEAVDNTString@@@Z@4HA 0000000180024da0 f   CommonDialogs_Standard.obj
 0001:00023db0       ?dtor$6@?0??ConvertFiles@@YAPEAV_jobjectArray@@AEAVDNTString@@@Z@4HA 0000000180024db0 f   CommonDialogs_Standard.obj
 0001:00023dc0       ?dtor$0@?0??_UserDo@_MyAction@?1??Java_com_sun_glass_ui_win_WinSystemClipboard_popBytes@@YAPEAV_jbyteArray@@PEAUJNIEnv_@@PEAV_jobject@@PEAV_jstring@@_J@Z@QEAAPEAV3@XZ@4HA 0000000180024dc0 f   GlassClipboard.obj
 0001:00023dc0       ?dtor$0@?0??ConvertFilter@@YAXPEAV_jobject@@AEAVDNTString@@@Z@4HA 0000000180024dc0 f   CommonDialogs_Standard.obj
 0001:00023dd0       ?dtor$1@?0??ConvertFilter@@YAXPEAV_jobject@@AEAVDNTString@@@Z@4HA 0000000180024dd0 f   CommonDialogs_Standard.obj
 0001:00023de0       ?dtor$0@?0??StandardFileChooser_Show@@YAPEAV_jobject@@PEAUHWND__@@PEB_W11JEPEAV_jobjectArray@@J@Z@4HA 0000000180024de0 f   CommonDialogs_Standard.obj
 0001:00023df0       ?dtor$1@?0??StandardFileChooser_Show@@YAPEAV_jobject@@PEAUHWND__@@PEB_W11JEPEAV_jobjectArray@@J@Z@4HA 0000000180024df0 f   CommonDialogs_Standard.obj
 0001:00023e00       ?dtor$3@?0??StandardFileChooser_Show@@YAPEAV_jobject@@PEAUHWND__@@PEB_W11JEPEAV_jobjectArray@@J@Z@4HA 0000000180024e00 f   CommonDialogs_Standard.obj
 0001:00023e00       ?dtor$2@?0??StandardFileChooser_Show@@YAPEAV_jobject@@PEAUHWND__@@PEB_W11JEPEAV_jobjectArray@@J@Z@4HA 0000000180024e00 f   CommonDialogs_Standard.obj
 0001:00023e10       ?dtor$0@?0??StandardFolderChooser_Show@@YAPEAV_jstring@@PEAUHWND__@@PEB_W1@Z@4HA 0000000180024e10 f   CommonDialogs_Standard.obj
 0001:00023e20       ?dtor$0@?0???0FullScreenWindow@@QEAA@XZ@4HA 0000000180024e20 f   FullScreenWindow.obj
 0001:00023e30       ?dtor$0@?0??Create@FullScreenWindow@@QEAAPEAUHWND__@@XZ@4HA 0000000180024e30 f   FullScreenWindow.obj
 0001:00023e50       ?catch$0@?0???$_Buynode@V_bstr_t@@@?$_List_buy@V_bstr_t@@V?$allocator@V_bstr_t@@@std@@@std@@QEAAPEAU?$_List_node@V_bstr_t@@PEAX@1@PEAU21@0$$QEAV_bstr_t@@@Z@4HA 0000000180024e50 f   GlassClipboard.obj
 0001:00023e50       ?catch$0@?0???$_Buynode@AEBV_bstr_t@@@?$_List_buy@V_bstr_t@@V?$allocator@V_bstr_t@@@std@@@std@@QEAAPEAU?$_List_node@V_bstr_t@@PEAX@1@PEAU21@0AEBV_bstr_t@@@Z@4HA 0000000180024e50 f   GlassClipboard.obj
 0001:00023e5d       __catch$??$_Buynode@V_bstr_t@@@?$_List_buy@V_bstr_t@@V?$allocator@V_bstr_t@@@std@@@std@@QEAAPEAU?$_List_node@V_bstr_t@@PEAX@1@PEAU21@0$$QEAV_bstr_t@@@Z$0 0000000180024e5d f   GlassClipboard.obj
 0001:00023e5d       __catch$??$_Buynode@AEBV_bstr_t@@@?$_List_buy@V_bstr_t@@V?$allocator@V_bstr_t@@@std@@@std@@QEAAPEAU?$_List_node@V_bstr_t@@PEAX@1@PEAU21@0AEBV_bstr_t@@@Z$0 0000000180024e5d f   GlassClipboard.obj
 0001:00023e80       ?catch$1@?0???$_Buynode@U?$pair@GV_bstr_t@@@std@@@?$_List_buy@U?$pair@$$CBGV_bstr_t@@@std@@V?$allocator@U?$pair@$$CBGV_bstr_t@@@std@@@2@@std@@QEAAPEAU?$_List_node@U?$pair@$$CBGV_bstr_t@@@std@@PEAX@1@PEAU21@0$$QEAU?$pair@GV_bstr_t@@@1@@Z@4HA 0000000180024e80 f   GlassClipboard.obj
 0001:00023e8d       __catch$??$_Buynode@U?$pair@GV_bstr_t@@@std@@@?$_List_buy@U?$pair@$$CBGV_bstr_t@@@std@@V?$allocator@U?$pair@$$CBGV_bstr_t@@@std@@@2@@std@@QEAAPEAU?$_List_node@U?$pair@$$CBGV_bstr_t@@@std@@PEAX@1@PEAU21@0$$QEAU?$pair@GV_bstr_t@@@1@@Z$0 0000000180024e8d f   GlassClipboard.obj
 0001:00023eb0       ?catch$0@?0???$_Buynode@U?$pair@UtagFORMATETC@@UtagSTGMEDIUM@@@std@@@?$_List_buy@U?$pair@$$CBUtagFORMATETC@@UtagSTGMEDIUM@@@std@@V?$allocator@U?$pair@$$CBUtagFORMATETC@@UtagSTGMEDIUM@@@std@@@2@@std@@QEAAPEAU?$_List_node@U?$pair@$$CBUtagFORMATETC@@UtagSTGMEDIUM@@@std@@PEAX@1@PEAU21@0$$QEAU?$pair@UtagFORMATETC@@UtagSTGMEDIUM@@@1@@Z@4HA 0000000180024eb0 f   GlassClipboard.obj
 0001:00023ebd       __catch$??$_Buynode@U?$pair@UtagFORMATETC@@UtagSTGMEDIUM@@@std@@@?$_List_buy@U?$pair@$$CBUtagFORMATETC@@UtagSTGMEDIUM@@@std@@V?$allocator@U?$pair@$$CBUtagFORMATETC@@UtagSTGMEDIUM@@@std@@@2@@std@@QEAAPEAU?$_List_node@U?$pair@$$CBUtagFORMATETC@@UtagSTGMEDIUM@@@std@@PEAX@1@PEAU21@0$$QEAU?$pair@UtagFORMATETC@@UtagSTGMEDIUM@@@1@@Z$0 0000000180024ebd f   GlassClipboard.obj
 0001:00023ee0       ?catch$1@?0???$_Buynode@U?$pair@UtagFORMATETC@@V_bstr_t@@@std@@@?$_List_buy@U?$pair@$$CBUtagFORMATETC@@V_bstr_t@@@std@@V?$allocator@U?$pair@$$CBUtagFORMATETC@@V_bstr_t@@@std@@@2@@std@@QEAAPEAU?$_List_node@U?$pair@$$CBUtagFORMATETC@@V_bstr_t@@@std@@PEAX@1@PEAU21@0$$QEAU?$pair@UtagFORMATETC@@V_bstr_t@@@1@@Z@4HA 0000000180024ee0 f   GlassClipboard.obj
 0001:00023eed       __catch$??$_Buynode@U?$pair@UtagFORMATETC@@V_bstr_t@@@std@@@?$_List_buy@U?$pair@$$CBUtagFORMATETC@@V_bstr_t@@@std@@V?$allocator@U?$pair@$$CBUtagFORMATETC@@V_bstr_t@@@std@@@2@@std@@QEAAPEAU?$_List_node@U?$pair@$$CBUtagFORMATETC@@V_bstr_t@@@std@@PEAX@1@PEAU21@0$$QEAU?$pair@UtagFORMATETC@@V_bstr_t@@@1@@Z$0 0000000180024eed f   GlassClipboard.obj
 0001:00023f10       ?catch$1@?0???$_Buynode@U?$pair@V_bstr_t@@G@std@@@?$_List_buy@U?$pair@$$CBV_bstr_t@@G@std@@V?$allocator@U?$pair@$$CBV_bstr_t@@G@std@@@2@@std@@QEAAPEAU?$_List_node@U?$pair@$$CBV_bstr_t@@G@std@@PEAX@1@PEAU21@0$$QEAU?$pair@V_bstr_t@@G@1@@Z@4HA 0000000180024f10 f   GlassClipboard.obj
 0001:00023f1d       __catch$??$_Buynode@U?$pair@V_bstr_t@@G@std@@@?$_List_buy@U?$pair@$$CBV_bstr_t@@G@std@@V?$allocator@U?$pair@$$CBV_bstr_t@@G@std@@@2@@std@@QEAAPEAU?$_List_node@U?$pair@$$CBV_bstr_t@@G@std@@PEAX@1@PEAU21@0$$QEAU?$pair@V_bstr_t@@G@1@@Z$0 0000000180024f1d f   GlassClipboard.obj
 0001:00023f40       ?catch$2@?0???$_Insert@AEAU?$pair@$$CBGV_bstr_t@@@std@@V?$_List_unchecked_iterator@V?$_List_val@U?$_List_simple_types@U?$pair@$$CBGV_bstr_t@@@std@@@std@@@std@@@2@@?$_Hash@V?$_Hmap_traits@GV_bstr_t@@V?$hash_compare@GU?$less@G@std@@@stdext@@V?$allocator@U?$pair@$$CBGV_bstr_t@@@std@@@std@@$0A@@stdext@@@std@@IEAA?AU?$pair@V?$_List_iterator@V?$_List_val@U?$_List_simple_types@U?$pair@$$CBGV_bstr_t@@@std@@@std@@@std@@@std@@_N@1@AEAU?$pair@$$CBGV_bstr_t@@@1@V?$_List_unchecked_iterator@V?$_List_val@U?$_List_simple_types@U?$pair@$$CBGV_bstr_t@@@std@@@std@@@std@@@1@@Z@4HA 0000000180024f40 f   GlassClipboard.obj
 0001:00023f4d       __catch$??$_Insert@AEAU?$pair@$$CBGV_bstr_t@@@std@@V?$_List_unchecked_iterator@V?$_List_val@U?$_List_simple_types@U?$pair@$$CBGV_bstr_t@@@std@@@std@@@std@@@2@@?$_Hash@V?$_Hmap_traits@GV_bstr_t@@V?$hash_compare@GU?$less@G@std@@@stdext@@V?$allocator@U?$pair@$$CBGV_bstr_t@@@std@@@std@@$0A@@stdext@@@std@@IEAA?AU?$pair@V?$_List_iterator@V?$_List_val@U?$_List_simple_types@U?$pair@$$CBGV_bstr_t@@@std@@@std@@@std@@@std@@_N@1@AEAU?$pair@$$CBGV_bstr_t@@@1@V?$_List_unchecked_iterator@V?$_List_val@U?$_List_simple_types@U?$pair@$$CBGV_bstr_t@@@std@@@std@@@std@@@1@@Z$0 0000000180024f4d f   GlassClipboard.obj
 0001:00023f67       ?catch$1@?0???$_Insert@AEAU?$pair@$$CBGV_bstr_t@@@std@@V?$_List_unchecked_iterator@V?$_List_val@U?$_List_simple_types@U?$pair@$$CBGV_bstr_t@@@std@@@std@@@std@@@2@@?$_Hash@V?$_Hmap_traits@GV_bstr_t@@V?$hash_compare@GU?$less@G@std@@@stdext@@V?$allocator@U?$pair@$$CBGV_bstr_t@@@std@@@std@@$0A@@stdext@@@std@@IEAA?AU?$pair@V?$_List_iterator@V?$_List_val@U?$_List_simple_types@U?$pair@$$CBGV_bstr_t@@@std@@@std@@@std@@@std@@_N@1@AEAU?$pair@$$CBGV_bstr_t@@@1@V?$_List_unchecked_iterator@V?$_List_val@U?$_List_simple_types@U?$pair@$$CBGV_bstr_t@@@std@@@std@@@std@@@1@@Z@4HA 0000000180024f67 f   GlassClipboard.obj
 0001:00023f75       __catch$??$_Insert@AEAU?$pair@$$CBGV_bstr_t@@@std@@V?$_List_unchecked_iterator@V?$_List_val@U?$_List_simple_types@U?$pair@$$CBGV_bstr_t@@@std@@@std@@@std@@@2@@?$_Hash@V?$_Hmap_traits@GV_bstr_t@@V?$hash_compare@GU?$less@G@std@@@stdext@@V?$allocator@U?$pair@$$CBGV_bstr_t@@@std@@@std@@$0A@@stdext@@@std@@IEAA?AU?$pair@V?$_List_iterator@V?$_List_val@U?$_List_simple_types@U?$pair@$$CBGV_bstr_t@@@std@@@std@@@std@@@std@@_N@1@AEAU?$pair@$$CBGV_bstr_t@@@1@V?$_List_unchecked_iterator@V?$_List_val@U?$_List_simple_types@U?$pair@$$CBGV_bstr_t@@@std@@@std@@@std@@@1@@Z$2 0000000180024f75 f   GlassClipboard.obj
 0001:00023fb0       ?catch$1@?0???$_Insert@AEAU?$pair@$$CBUtagFORMATETC@@UtagSTGMEDIUM@@@std@@V?$_List_unchecked_iterator@V?$_List_val@U?$_List_simple_types@U?$pair@$$CBUtagFORMATETC@@UtagSTGMEDIUM@@@std@@@std@@@std@@@2@@?$_Hash@V?$_Hmap_traits@UtagFORMATETC@@UtagSTGMEDIUM@@V?$hash_compare@UtagFORMATETC@@U?$less@UtagFORMATETC@@@std@@@stdext@@V?$allocator@U?$pair@$$CBUtagFORMATETC@@UtagSTGMEDIUM@@@std@@@std@@$0A@@stdext@@@std@@IEAA?AU?$pair@V?$_List_iterator@V?$_List_val@U?$_List_simple_types@U?$pair@$$CBUtagFORMATETC@@UtagSTGMEDIUM@@@std@@@std@@@std@@@std@@_N@1@AEAU?$pair@$$CBUtagFORMATETC@@UtagSTGMEDIUM@@@1@V?$_List_unchecked_iterator@V?$_List_val@U?$_List_simple_types@U?$pair@$$CBUtagFORMATETC@@UtagSTGMEDIUM@@@std@@@std@@@std@@@1@@Z@4HA 0000000180024fb0 f   GlassClipboard.obj
 0001:00023fbd       __catch$??$_Insert@AEAU?$pair@$$CBUtagFORMATETC@@UtagSTGMEDIUM@@@std@@V?$_List_unchecked_iterator@V?$_List_val@U?$_List_simple_types@U?$pair@$$CBUtagFORMATETC@@UtagSTGMEDIUM@@@std@@@std@@@std@@@2@@?$_Hash@V?$_Hmap_traits@UtagFORMATETC@@UtagSTGMEDIUM@@V?$hash_compare@UtagFORMATETC@@U?$less@UtagFORMATETC@@@std@@@stdext@@V?$allocator@U?$pair@$$CBUtagFORMATETC@@UtagSTGMEDIUM@@@std@@@std@@$0A@@stdext@@@std@@IEAA?AU?$pair@V?$_List_iterator@V?$_List_val@U?$_List_simple_types@U?$pair@$$CBUtagFORMATETC@@UtagSTGMEDIUM@@@std@@@std@@@std@@@std@@_N@1@AEAU?$pair@$$CBUtagFORMATETC@@UtagSTGMEDIUM@@@1@V?$_List_unchecked_iterator@V?$_List_val@U?$_List_simple_types@U?$pair@$$CBUtagFORMATETC@@UtagSTGMEDIUM@@@std@@@std@@@std@@@1@@Z$0 0000000180024fbd f   GlassClipboard.obj
 0001:00023fd7       ?catch$0@?0???$_Insert@AEAU?$pair@$$CBUtagFORMATETC@@UtagSTGMEDIUM@@@std@@V?$_List_unchecked_iterator@V?$_List_val@U?$_List_simple_types@U?$pair@$$CBUtagFORMATETC@@UtagSTGMEDIUM@@@std@@@std@@@std@@@2@@?$_Hash@V?$_Hmap_traits@UtagFORMATETC@@UtagSTGMEDIUM@@V?$hash_compare@UtagFORMATETC@@U?$less@UtagFORMATETC@@@std@@@stdext@@V?$allocator@U?$pair@$$CBUtagFORMATETC@@UtagSTGMEDIUM@@@std@@@std@@$0A@@stdext@@@std@@IEAA?AU?$pair@V?$_List_iterator@V?$_List_val@U?$_List_simple_types@U?$pair@$$CBUtagFORMATETC@@UtagSTGMEDIUM@@@std@@@std@@@std@@@std@@_N@1@AEAU?$pair@$$CBUtagFORMATETC@@UtagSTGMEDIUM@@@1@V?$_List_unchecked_iterator@V?$_List_val@U?$_List_simple_types@U?$pair@$$CBUtagFORMATETC@@UtagSTGMEDIUM@@@std@@@std@@@std@@@1@@Z@4HA 0000000180024fd7 f   GlassClipboard.obj
 0001:00023fe5       __catch$??$_Insert@AEAU?$pair@$$CBUtagFORMATETC@@UtagSTGMEDIUM@@@std@@V?$_List_unchecked_iterator@V?$_List_val@U?$_List_simple_types@U?$pair@$$CBUtagFORMATETC@@UtagSTGMEDIUM@@@std@@@std@@@std@@@2@@?$_Hash@V?$_Hmap_traits@UtagFORMATETC@@UtagSTGMEDIUM@@V?$hash_compare@UtagFORMATETC@@U?$less@UtagFORMATETC@@@std@@@stdext@@V?$allocator@U?$pair@$$CBUtagFORMATETC@@UtagSTGMEDIUM@@@std@@@std@@$0A@@stdext@@@std@@IEAA?AU?$pair@V?$_List_iterator@V?$_List_val@U?$_List_simple_types@U?$pair@$$CBUtagFORMATETC@@UtagSTGMEDIUM@@@std@@@std@@@std@@@std@@_N@1@AEAU?$pair@$$CBUtagFORMATETC@@UtagSTGMEDIUM@@@1@V?$_List_unchecked_iterator@V?$_List_val@U?$_List_simple_types@U?$pair@$$CBUtagFORMATETC@@UtagSTGMEDIUM@@@std@@@std@@@std@@@1@@Z$2 0000000180024fe5 f   GlassClipboard.obj
 0001:00024020       ?catch$2@?0???$_Insert@AEAU?$pair@$$CBUtagFORMATETC@@V_bstr_t@@@std@@V?$_List_unchecked_iterator@V?$_List_val@U?$_List_simple_types@U?$pair@$$CBUtagFORMATETC@@V_bstr_t@@@std@@@std@@@std@@@2@@?$_Hash@V?$_Hmap_traits@UtagFORMATETC@@V_bstr_t@@V?$hash_compare@UtagFORMATETC@@U?$less@UtagFORMATETC@@@std@@@stdext@@V?$allocator@U?$pair@$$CBUtagFORMATETC@@V_bstr_t@@@std@@@std@@$0A@@stdext@@@std@@IEAA?AU?$pair@V?$_List_iterator@V?$_List_val@U?$_List_simple_types@U?$pair@$$CBUtagFORMATETC@@V_bstr_t@@@std@@@std@@@std@@@std@@_N@1@AEAU?$pair@$$CBUtagFORMATETC@@V_bstr_t@@@1@V?$_List_unchecked_iterator@V?$_List_val@U?$_List_simple_types@U?$pair@$$CBUtagFORMATETC@@V_bstr_t@@@std@@@std@@@std@@@1@@Z@4HA 0000000180025020 f   GlassClipboard.obj
 0001:0002402d       __catch$??$_Insert@AEAU?$pair@$$CBUtagFORMATETC@@V_bstr_t@@@std@@V?$_List_unchecked_iterator@V?$_List_val@U?$_List_simple_types@U?$pair@$$CBUtagFORMATETC@@V_bstr_t@@@std@@@std@@@std@@@2@@?$_Hash@V?$_Hmap_traits@UtagFORMATETC@@V_bstr_t@@V?$hash_compare@UtagFORMATETC@@U?$less@UtagFORMATETC@@@std@@@stdext@@V?$allocator@U?$pair@$$CBUtagFORMATETC@@V_bstr_t@@@std@@@std@@$0A@@stdext@@@std@@IEAA?AU?$pair@V?$_List_iterator@V?$_List_val@U?$_List_simple_types@U?$pair@$$CBUtagFORMATETC@@V_bstr_t@@@std@@@std@@@std@@@std@@_N@1@AEAU?$pair@$$CBUtagFORMATETC@@V_bstr_t@@@1@V?$_List_unchecked_iterator@V?$_List_val@U?$_List_simple_types@U?$pair@$$CBUtagFORMATETC@@V_bstr_t@@@std@@@std@@@std@@@1@@Z$0 000000018002502d f   GlassClipboard.obj
 0001:00024047       ?catch$1@?0???$_Insert@AEAU?$pair@$$CBUtagFORMATETC@@V_bstr_t@@@std@@V?$_List_unchecked_iterator@V?$_List_val@U?$_List_simple_types@U?$pair@$$CBUtagFORMATETC@@V_bstr_t@@@std@@@std@@@std@@@2@@?$_Hash@V?$_Hmap_traits@UtagFORMATETC@@V_bstr_t@@V?$hash_compare@UtagFORMATETC@@U?$less@UtagFORMATETC@@@std@@@stdext@@V?$allocator@U?$pair@$$CBUtagFORMATETC@@V_bstr_t@@@std@@@std@@$0A@@stdext@@@std@@IEAA?AU?$pair@V?$_List_iterator@V?$_List_val@U?$_List_simple_types@U?$pair@$$CBUtagFORMATETC@@V_bstr_t@@@std@@@std@@@std@@@std@@_N@1@AEAU?$pair@$$CBUtagFORMATETC@@V_bstr_t@@@1@V?$_List_unchecked_iterator@V?$_List_val@U?$_List_simple_types@U?$pair@$$CBUtagFORMATETC@@V_bstr_t@@@std@@@std@@@std@@@1@@Z@4HA 0000000180025047 f   GlassClipboard.obj
 0001:00024055       __catch$??$_Insert@AEAU?$pair@$$CBUtagFORMATETC@@V_bstr_t@@@std@@V?$_List_unchecked_iterator@V?$_List_val@U?$_List_simple_types@U?$pair@$$CBUtagFORMATETC@@V_bstr_t@@@std@@@std@@@std@@@2@@?$_Hash@V?$_Hmap_traits@UtagFORMATETC@@V_bstr_t@@V?$hash_compare@UtagFORMATETC@@U?$less@UtagFORMATETC@@@std@@@stdext@@V?$allocator@U?$pair@$$CBUtagFORMATETC@@V_bstr_t@@@std@@@std@@$0A@@stdext@@@std@@IEAA?AU?$pair@V?$_List_iterator@V?$_List_val@U?$_List_simple_types@U?$pair@$$CBUtagFORMATETC@@V_bstr_t@@@std@@@std@@@std@@@std@@_N@1@AEAU?$pair@$$CBUtagFORMATETC@@V_bstr_t@@@1@V?$_List_unchecked_iterator@V?$_List_val@U?$_List_simple_types@U?$pair@$$CBUtagFORMATETC@@V_bstr_t@@@std@@@std@@@std@@@1@@Z$2 0000000180025055 f   GlassClipboard.obj
 0001:00024090       ?catch$2@?0???$_Insert@AEAU?$pair@$$CBV_bstr_t@@G@std@@V?$_List_unchecked_iterator@V?$_List_val@U?$_List_simple_types@U?$pair@$$CBV_bstr_t@@G@std@@@std@@@std@@@2@@?$_Hash@V?$_Hmap_traits@V_bstr_t@@GV?$hash_compare@V_bstr_t@@U?$less@V_bstr_t@@@std@@@stdext@@V?$allocator@U?$pair@$$CBV_bstr_t@@G@std@@@std@@$0A@@stdext@@@std@@IEAA?AU?$pair@V?$_List_iterator@V?$_List_val@U?$_List_simple_types@U?$pair@$$CBV_bstr_t@@G@std@@@std@@@std@@@std@@_N@1@AEAU?$pair@$$CBV_bstr_t@@G@1@V?$_List_unchecked_iterator@V?$_List_val@U?$_List_simple_types@U?$pair@$$CBV_bstr_t@@G@std@@@std@@@std@@@1@@Z@4HA 0000000180025090 f   GlassClipboard.obj
 0001:0002409d       __catch$??$_Insert@AEAU?$pair@$$CBV_bstr_t@@G@std@@V?$_List_unchecked_iterator@V?$_List_val@U?$_List_simple_types@U?$pair@$$CBV_bstr_t@@G@std@@@std@@@std@@@2@@?$_Hash@V?$_Hmap_traits@V_bstr_t@@GV?$hash_compare@V_bstr_t@@U?$less@V_bstr_t@@@std@@@stdext@@V?$allocator@U?$pair@$$CBV_bstr_t@@G@std@@@std@@$0A@@stdext@@@std@@IEAA?AU?$pair@V?$_List_iterator@V?$_List_val@U?$_List_simple_types@U?$pair@$$CBV_bstr_t@@G@std@@@std@@@std@@@std@@_N@1@AEAU?$pair@$$CBV_bstr_t@@G@1@V?$_List_unchecked_iterator@V?$_List_val@U?$_List_simple_types@U?$pair@$$CBV_bstr_t@@G@std@@@std@@@std@@@1@@Z$0 000000018002509d f   GlassClipboard.obj
 0001:000240ba       ?catch$1@?0???$_Insert@AEAU?$pair@$$CBV_bstr_t@@G@std@@V?$_List_unchecked_iterator@V?$_List_val@U?$_List_simple_types@U?$pair@$$CBV_bstr_t@@G@std@@@std@@@std@@@2@@?$_Hash@V?$_Hmap_traits@V_bstr_t@@GV?$hash_compare@V_bstr_t@@U?$less@V_bstr_t@@@std@@@stdext@@V?$allocator@U?$pair@$$CBV_bstr_t@@G@std@@@std@@$0A@@stdext@@@std@@IEAA?AU?$pair@V?$_List_iterator@V?$_List_val@U?$_List_simple_types@U?$pair@$$CBV_bstr_t@@G@std@@@std@@@std@@@std@@_N@1@AEAU?$pair@$$CBV_bstr_t@@G@1@V?$_List_unchecked_iterator@V?$_List_val@U?$_List_simple_types@U?$pair@$$CBV_bstr_t@@G@std@@@std@@@std@@@1@@Z@4HA 00000001800250ba f   GlassClipboard.obj
 0001:000240c8       __catch$??$_Insert@AEAU?$pair@$$CBV_bstr_t@@G@std@@V?$_List_unchecked_iterator@V?$_List_val@U?$_List_simple_types@U?$pair@$$CBV_bstr_t@@G@std@@@std@@@std@@@2@@?$_Hash@V?$_Hmap_traits@V_bstr_t@@GV?$hash_compare@V_bstr_t@@U?$less@V_bstr_t@@@std@@@stdext@@V?$allocator@U?$pair@$$CBV_bstr_t@@G@std@@@std@@$0A@@stdext@@@std@@IEAA?AU?$pair@V?$_List_iterator@V?$_List_val@U?$_List_simple_types@U?$pair@$$CBV_bstr_t@@G@std@@@std@@@std@@@std@@_N@1@AEAU?$pair@$$CBV_bstr_t@@G@1@V?$_List_unchecked_iterator@V?$_List_val@U?$_List_simple_types@U?$pair@$$CBV_bstr_t@@G@std@@@std@@@std@@@1@@Z$2 00000001800250c8 f   GlassClipboard.obj
 0001:00024110       ?catch$1@?0???$_Insert@AEBV_bstr_t@@U_Not_a_node_tag@std@@@?$_Hash@V?$_Hset_traits@V_bstr_t@@V?$hash_compare@V_bstr_t@@U?$less@V_bstr_t@@@std@@@stdext@@V?$allocator@V_bstr_t@@@std@@$0A@@stdext@@@std@@IEAA?AU?$pair@V?$_List_const_iterator@V?$_List_val@U?$_List_simple_types@V_bstr_t@@@std@@@std@@@std@@_N@1@AEBV_bstr_t@@U_Not_a_node_tag@1@@Z@4HA 0000000180025110 f   GlassClipboard.obj
 0001:00024110       ?catch$1@?0???$_Insert@V_bstr_t@@U_Not_a_node_tag@std@@@?$_Hash@V?$_Hset_traits@V_bstr_t@@V?$hash_compare@V_bstr_t@@U?$less@V_bstr_t@@@std@@@stdext@@V?$allocator@V_bstr_t@@@std@@$0A@@stdext@@@std@@IEAA?AU?$pair@V?$_List_const_iterator@V?$_List_val@U?$_List_simple_types@V_bstr_t@@@std@@@std@@@std@@_N@1@$$QEAV_bstr_t@@U_Not_a_node_tag@1@@Z@4HA 0000000180025110 f   GlassClipboard.obj
 0001:0002411d       __catch$??$_Insert@AEBV_bstr_t@@U_Not_a_node_tag@std@@@?$_Hash@V?$_Hset_traits@V_bstr_t@@V?$hash_compare@V_bstr_t@@U?$less@V_bstr_t@@@std@@@stdext@@V?$allocator@V_bstr_t@@@std@@$0A@@stdext@@@std@@IEAA?AU?$pair@V?$_List_const_iterator@V?$_List_val@U?$_List_simple_types@V_bstr_t@@@std@@@std@@@std@@_N@1@AEBV_bstr_t@@U_Not_a_node_tag@1@@Z$0 000000018002511d f   GlassClipboard.obj
 0001:0002411d       __catch$??$_Insert@V_bstr_t@@U_Not_a_node_tag@std@@@?$_Hash@V?$_Hset_traits@V_bstr_t@@V?$hash_compare@V_bstr_t@@U?$less@V_bstr_t@@@std@@@stdext@@V?$allocator@V_bstr_t@@@std@@$0A@@stdext@@@std@@IEAA?AU?$pair@V?$_List_const_iterator@V?$_List_val@U?$_List_simple_types@V_bstr_t@@@std@@@std@@@std@@_N@1@$$QEAV_bstr_t@@U_Not_a_node_tag@1@@Z$0 000000018002511d f   GlassClipboard.obj
 0001:00024127       ?catch$0@?0???$_Insert@AEBV_bstr_t@@U_Not_a_node_tag@std@@@?$_Hash@V?$_Hset_traits@V_bstr_t@@V?$hash_compare@V_bstr_t@@U?$less@V_bstr_t@@@std@@@stdext@@V?$allocator@V_bstr_t@@@std@@$0A@@stdext@@@std@@IEAA?AU?$pair@V?$_List_const_iterator@V?$_List_val@U?$_List_simple_types@V_bstr_t@@@std@@@std@@@std@@_N@1@AEBV_bstr_t@@U_Not_a_node_tag@1@@Z@4HA 0000000180025127 f   GlassClipboard.obj
 0001:00024127       ?catch$0@?0???$_Insert@V_bstr_t@@U_Not_a_node_tag@std@@@?$_Hash@V?$_Hset_traits@V_bstr_t@@V?$hash_compare@V_bstr_t@@U?$less@V_bstr_t@@@std@@@stdext@@V?$allocator@V_bstr_t@@@std@@$0A@@stdext@@@std@@IEAA?AU?$pair@V?$_List_const_iterator@V?$_List_val@U?$_List_simple_types@V_bstr_t@@@std@@@std@@@std@@_N@1@$$QEAV_bstr_t@@U_Not_a_node_tag@1@@Z@4HA 0000000180025127 f   GlassClipboard.obj
 0001:00024135       __catch$??$_Insert@V_bstr_t@@U_Not_a_node_tag@std@@@?$_Hash@V?$_Hset_traits@V_bstr_t@@V?$hash_compare@V_bstr_t@@U?$less@V_bstr_t@@@std@@@stdext@@V?$allocator@V_bstr_t@@@std@@$0A@@stdext@@@std@@IEAA?AU?$pair@V?$_List_const_iterator@V?$_List_val@U?$_List_simple_types@V_bstr_t@@@std@@@std@@@std@@_N@1@$$QEAV_bstr_t@@U_Not_a_node_tag@1@@Z$2 0000000180025135 f   GlassClipboard.obj
 0001:00024135       __catch$??$_Insert@AEBV_bstr_t@@U_Not_a_node_tag@std@@@?$_Hash@V?$_Hset_traits@V_bstr_t@@V?$hash_compare@V_bstr_t@@U?$less@V_bstr_t@@@std@@@stdext@@V?$allocator@V_bstr_t@@@std@@$0A@@stdext@@@std@@IEAA?AU?$pair@V?$_List_const_iterator@V?$_List_val@U?$_List_simple_types@V_bstr_t@@@std@@@std@@@std@@_N@1@AEBV_bstr_t@@U_Not_a_node_tag@1@@Z$2 0000000180025135 f   GlassClipboard.obj
 0001:00024160       ?catch$10@?0???$_Insert@AEBV_bstr_t@@V?$_List_unchecked_const_iterator@V?$_List_val@U?$_List_simple_types@V_bstr_t@@@std@@@std@@U_Iterator_base0@2@@std@@@?$_Hash@V?$_Hset_traits@V_bstr_t@@V?$hash_compare@V_bstr_t@@U?$less@V_bstr_t@@@std@@@stdext@@V?$allocator@V_bstr_t@@@std@@$0A@@stdext@@@std@@IEAA?AU?$pair@V?$_List_const_iterator@V?$_List_val@U?$_List_simple_types@V_bstr_t@@@std@@@std@@@std@@_N@1@AEBV_bstr_t@@V?$_List_unchecked_const_iterator@V?$_List_val@U?$_List_simple_types@V_bstr_t@@@std@@@std@@U_Iterator_base0@2@@1@@Z@4HA 0000000180025160 f   GlassClipboard.obj
 0001:0002416d       __catch$??$_Insert@AEBV_bstr_t@@V?$_List_unchecked_const_iterator@V?$_List_val@U?$_List_simple_types@V_bstr_t@@@std@@@std@@U_Iterator_base0@2@@std@@@?$_Hash@V?$_Hset_traits@V_bstr_t@@V?$hash_compare@V_bstr_t@@U?$less@V_bstr_t@@@std@@@stdext@@V?$allocator@V_bstr_t@@@std@@$0A@@stdext@@@std@@IEAA?AU?$pair@V?$_List_const_iterator@V?$_List_val@U?$_List_simple_types@V_bstr_t@@@std@@@std@@@std@@_N@1@AEBV_bstr_t@@V?$_List_unchecked_const_iterator@V?$_List_val@U?$_List_simple_types@V_bstr_t@@@std@@@std@@U_Iterator_base0@2@@1@@Z$0 000000018002516d f   GlassClipboard.obj
 0001:00024184       ?catch$9@?0???$_Insert@AEBV_bstr_t@@V?$_List_unchecked_const_iterator@V?$_List_val@U?$_List_simple_types@V_bstr_t@@@std@@@std@@U_Iterator_base0@2@@std@@@?$_Hash@V?$_Hset_traits@V_bstr_t@@V?$hash_compare@V_bstr_t@@U?$less@V_bstr_t@@@std@@@stdext@@V?$allocator@V_bstr_t@@@std@@$0A@@stdext@@@std@@IEAA?AU?$pair@V?$_List_const_iterator@V?$_List_val@U?$_List_simple_types@V_bstr_t@@@std@@@std@@@std@@_N@1@AEBV_bstr_t@@V?$_List_unchecked_const_iterator@V?$_List_val@U?$_List_simple_types@V_bstr_t@@@std@@@std@@U_Iterator_base0@2@@1@@Z@4HA 0000000180025184 f   GlassClipboard.obj
 0001:00024192       __catch$??$_Insert@AEBV_bstr_t@@V?$_List_unchecked_const_iterator@V?$_List_val@U?$_List_simple_types@V_bstr_t@@@std@@@std@@U_Iterator_base0@2@@std@@@?$_Hash@V?$_Hset_traits@V_bstr_t@@V?$hash_compare@V_bstr_t@@U?$less@V_bstr_t@@@std@@@stdext@@V?$allocator@V_bstr_t@@@std@@$0A@@stdext@@@std@@IEAA?AU?$pair@V?$_List_const_iterator@V?$_List_val@U?$_List_simple_types@V_bstr_t@@@std@@@std@@@std@@_N@1@AEBV_bstr_t@@V?$_List_unchecked_const_iterator@V?$_List_val@U?$_List_simple_types@V_bstr_t@@@std@@@std@@U_Iterator_base0@2@@1@@Z$2 0000000180025192 f   GlassClipboard.obj
 0001:000241c0       ?dtor$0@?0???0ClipboardData@@QEAA@PEAUJNIEnv_@@PEAV_jobject@@PEAV_jstring@@@Z@4HA 00000001800251c0 f   GlassClipboard.obj
 0001:000241d0       ?dtor$1@?0???0ClipboardData@@QEAA@PEAUJNIEnv_@@PEAV_jobject@@PEAV_jstring@@@Z@4HA 00000001800251d0 f   GlassClipboard.obj
 0001:000241e0       ?dtor$2@?0???0ClipboardData@@QEAA@PEAUJNIEnv_@@PEAV_jobject@@PEAV_jstring@@@Z@4HA 00000001800251e0 f   GlassClipboard.obj
 0001:000241f0       ?dtor$3@?0???0ClipboardData@@QEAA@PEAUJNIEnv_@@PEAV_jobject@@PEAV_jstring@@@Z@4HA 00000001800251f0 f   GlassClipboard.obj
 0001:00024200       ?dtor$6@?0???0ClipboardData@@QEAA@PEAUJNIEnv_@@PEAV_jobject@@PEAV_jstring@@@Z@4HA 0000000180025200 f   GlassClipboard.obj
 0001:00024210       ?dtor$7@?0???0ClipboardData@@QEAA@PEAUJNIEnv_@@PEAV_jobject@@PEAV_jstring@@@Z@4HA 0000000180025210 f   GlassClipboard.obj
 0001:00024210       ?dtor$12@?0???0ClipboardData@@QEAA@PEAUJNIEnv_@@PEAV_jobject@@PEAV_jstring@@@Z@4HA 0000000180025210 f   GlassClipboard.obj
 0001:00024220       ?dtor$11@?0???0ClipboardData@@QEAA@PEAUJNIEnv_@@PEAV_jobject@@PEAV_jstring@@@Z@4HA 0000000180025220 f   GlassClipboard.obj
 0001:00024230       ?dtor$0@?0???4_bstr_t@@QEAAAEAV0@PEB_W@Z@4HA 0000000180025230 f   GlassClipboard.obj
 0001:00024250       ?dtor$0@?0???A?$hash_map@UtagFORMATETC@@V_bstr_t@@V?$hash_compare@UtagFORMATETC@@U?$less@UtagFORMATETC@@@std@@@stdext@@V?$allocator@U?$pair@$$CBUtagFORMATETC@@V_bstr_t@@@std@@@std@@@stdext@@QEAAAEAV_bstr_t@@AEBUtagFORMATETC@@@Z@4HA 0000000180025250 f   GlassClipboard.obj
 0001:00024260       ?dtor$1@?0???A?$hash_map@UtagFORMATETC@@V_bstr_t@@V?$hash_compare@UtagFORMATETC@@U?$less@UtagFORMATETC@@@std@@@stdext@@V?$allocator@U?$pair@$$CBUtagFORMATETC@@V_bstr_t@@@std@@@std@@@stdext@@QEAAAEAV_bstr_t@@AEBUtagFORMATETC@@@Z@4HA 0000000180025260 f   GlassClipboard.obj
 0001:00024270       ?dtor$1@?0???__Emime2oscf@@YAXXZ@4HA 0000000180025270 f   GlassClipboard.obj
 0001:00024280       ?dtor$2@?0???__Emime2oscf@@YAXXZ@4HA 0000000180025280 f   GlassClipboard.obj
 0001:00024290       ?dtor$1@?0???__Eoscf2mime@@YAXXZ@4HA 0000000180025290 f   GlassClipboard.obj
 0001:000242a0       ?dtor$2@?0???__Eoscf2mime@@YAXXZ@4HA 00000001800252a0 f   GlassClipboard.obj
 0001:000242b0       ?catch$0@?0??DAdvise@ClipboardData@@UEAAJPEAUtagFORMATETC@@KPEAUIAdviseSink@@PEAK@Z@4HA 00000001800252b0 f   GlassClipboard.obj
 0001:000242be       __catch$?DAdvise@ClipboardData@@UEAAJPEAUtagFORMATETC@@KPEAUIAdviseSink@@PEAK@Z$0 00000001800252be f   GlassClipboard.obj
 0001:000242f0       ?catch$0@?0??DUnadvise@ClipboardData@@UEAAJK@Z@4HA 00000001800252f0 f   GlassClipboard.obj
 0001:000242fe       __catch$?DUnadvise@ClipboardData@@UEAAJK@Z$0 00000001800252fe f   GlassClipboard.obj
 0001:00024330       ?catch$5@?0??Do@_MyAction@?1??Java_com_sun_glass_ui_win_WinDnDClipboard_push@@YAXPEAUJNIEnv_@@PEAV_jobject@@PEAV_jobjectArray@@J@Z@UEAAXXZ@4HA 0000000180025330 f   GlassClipboard.obj
 0001:0002433e       __catch$?Do@_MyAction@?1??Java_com_sun_glass_ui_win_WinDnDClipboard_push@@YAXPEAUJNIEnv_@@PEAV_jobject@@PEAV_jobjectArray@@J@Z@UEAAXXZ$0 000000018002533e f   GlassClipboard.obj
 0001:00024380       ?dtor$0@?0??Do@_MyAction@?1??Java_com_sun_glass_ui_win_WinDnDClipboard_push@@YAXPEAUJNIEnv_@@PEAV_jobject@@PEAV_jobjectArray@@J@Z@UEAAXXZ@4HA 0000000180025380 f   GlassClipboard.obj
 0001:000243a0       ?dtor$1@?0??Do@_MyAction@?1??Java_com_sun_glass_ui_win_WinDnDClipboard_push@@YAXPEAUJNIEnv_@@PEAV_jobject@@PEAV_jobjectArray@@J@Z@UEAAXXZ@4HA 00000001800253a0 f   GlassClipboard.obj
 0001:000243d0       ?dtor$2@?0??Do@_MyAction@?1??Java_com_sun_glass_ui_win_WinDnDClipboard_push@@YAXPEAUJNIEnv_@@PEAV_jobject@@PEAV_jobjectArray@@J@Z@UEAAXXZ@4HA 00000001800253d0 f   GlassClipboard.obj
 0001:000243f0       ?catch$0@?0??Do@_MyAction@?1??Java_com_sun_glass_ui_win_WinSystemClipboard_dispose@@YAXPEAUJNIEnv_@@PEAV_jobject@@@Z@UEAAXXZ@4HA 00000001800253f0 f   GlassClipboard.obj
 0001:000243fe       __catch$?Do@_MyAction@?1??Java_com_sun_glass_ui_win_WinSystemClipboard_dispose@@YAXPEAUJNIEnv_@@PEAV_jobject@@@Z@UEAAXXZ$0 00000001800253fe f   GlassClipboard.obj
 0001:00024430       ?dtor$0@?0??Do@_MyAction@?1??Java_com_sun_glass_ui_win_WinSystemClipboard_popSupportedSourceActions@@YAJPEAUJNIEnv_@@PEAV_jobject@@@Z@UEAAXXZ@4HA 0000000180025430 f   GlassClipboard.obj
 0001:00024440       ?catch$3@?0??Do@_MyAction@?1??Java_com_sun_glass_ui_win_WinSystemClipboard_push@@YAXPEAUJNIEnv_@@PEAV_jobject@@PEAV_jobjectArray@@J@Z@UEAAXXZ@4HA 0000000180025440 f   GlassClipboard.obj
 0001:0002444e       __catch$?Do@_MyAction@?1??Java_com_sun_glass_ui_win_WinSystemClipboard_push@@YAXPEAUJNIEnv_@@PEAV_jobject@@PEAV_jobjectArray@@J@Z@UEAAXXZ$0 000000018002544e f   GlassClipboard.obj
 0001:00024480       ?dtor$0@?0??Do@_MyAction@?1??Java_com_sun_glass_ui_win_WinSystemClipboard_push@@YAXPEAUJNIEnv_@@PEAV_jobject@@PEAV_jobjectArray@@J@Z@UEAAXXZ@4HA 0000000180025480 f   GlassClipboard.obj
 0001:000244a0       ?dtor$1@?0??Do@_MyAction@?1??Java_com_sun_glass_ui_win_WinSystemClipboard_push@@YAXPEAUJNIEnv_@@PEAV_jobject@@PEAV_jobjectArray@@J@Z@UEAAXXZ@4HA 00000001800254a0 f   GlassClipboard.obj
 0001:000244d0       ?catch$2@?0??Do@_MyAction@?1??Java_com_sun_glass_ui_win_WinSystemClipboard_pushTargetActionToSystem@@YAXPEAUJNIEnv_@@PEAV_jobject@@J@Z@UEAAXXZ@4HA 00000001800254d0 f   GlassClipboard.obj
 0001:000244de       __catch$?Do@_MyAction@?1??Java_com_sun_glass_ui_win_WinSystemClipboard_pushTargetActionToSystem@@YAXPEAUJNIEnv_@@PEAV_jobject@@J@Z@UEAAXXZ$0 00000001800254de f   GlassClipboard.obj
 0001:00024510       ?dtor$0@?0??Do@_MyAction@?1??Java_com_sun_glass_ui_win_WinSystemClipboard_pushTargetActionToSystem@@YAXPEAUJNIEnv_@@PEAV_jobject@@J@Z@UEAAXXZ@4HA 0000000180025510 f   GlassClipboard.obj
 0001:00024520       ?dtor$9@?0??GetData@ClipboardData@@UEAAJPEAUtagFORMATETC@@PEAUtagSTGMEDIUM@@@Z@4HA 0000000180025520 f   GlassClipboard.obj
 0001:00024520       ?dtor$1@?0??Do@_MyAction@?1??Java_com_sun_glass_ui_win_WinSystemClipboard_pushTargetActionToSystem@@YAXPEAUJNIEnv_@@PEAV_jobject@@J@Z@UEAAXXZ@4HA 0000000180025520 f   GlassClipboard.obj
 0001:00024530       ?catch$17@?0??GetData@ClipboardData@@UEAAJPEAUtagFORMATETC@@PEAUtagSTGMEDIUM@@@Z@4HA 0000000180025530 f   GlassClipboard.obj
 0001:0002453e       __catch$?GetData@ClipboardData@@UEAAJPEAUtagFORMATETC@@PEAUtagSTGMEDIUM@@@Z$0 000000018002553e f   GlassClipboard.obj
 0001:00024580       ?dtor$0@?0??GetData@ClipboardData@@UEAAJPEAUtagFORMATETC@@PEAUtagSTGMEDIUM@@@Z@4HA 0000000180025580 f   GlassClipboard.obj
 0001:00024580       ?dtor$1@?0??getMime@@YA?AV_bstr_t@@G@Z@4HA 0000000180025580 f   GlassClipboard.obj
 0001:00024580       ?dtor$2@?0??create_mime_stuff@@YAHXZ@4HA 0000000180025580 f   GlassClipboard.obj
 0001:00024590       ?dtor$2@?0??GetData@ClipboardData@@UEAAJPEAUtagFORMATETC@@PEAUtagSTGMEDIUM@@@Z@4HA 0000000180025590 f   GlassClipboard.obj
 0001:000245a0       ?dtor$3@?0??GetData@ClipboardData@@UEAAJPEAUtagFORMATETC@@PEAUtagSTGMEDIUM@@@Z@4HA 00000001800255a0 f   GlassClipboard.obj
 0001:000245b0       ?dtor$4@?0??GetData@ClipboardData@@UEAAJPEAUtagFORMATETC@@PEAUtagSTGMEDIUM@@@Z@4HA 00000001800255b0 f   GlassClipboard.obj
 0001:000245c0       ?dtor$5@?0??GetData@ClipboardData@@UEAAJPEAUtagFORMATETC@@PEAUtagSTGMEDIUM@@@Z@4HA 00000001800255c0 f   GlassClipboard.obj
 0001:000245d0       ?dtor$7@?0??GetData@ClipboardData@@UEAAJPEAUtagFORMATETC@@PEAUtagSTGMEDIUM@@@Z@4HA 00000001800255d0 f   GlassClipboard.obj
 0001:000245e0       ?dtor$8@?0??GetData@ClipboardData@@UEAAJPEAUtagFORMATETC@@PEAUtagSTGMEDIUM@@@Z@4HA 00000001800255e0 f   GlassClipboard.obj
 0001:000245f0       ?dtor$11@?0??GetData@ClipboardData@@UEAAJPEAUtagFORMATETC@@PEAUtagSTGMEDIUM@@@Z@4HA 00000001800255f0 f   GlassClipboard.obj
 0001:00024600       ?dtor$12@?0??GetData@ClipboardData@@UEAAJPEAUtagFORMATETC@@PEAUtagSTGMEDIUM@@@Z@4HA 0000000180025600 f   GlassClipboard.obj
 0001:00024610       ?dtor$13@?0??GetData@ClipboardData@@UEAAJPEAUtagFORMATETC@@PEAUtagSTGMEDIUM@@@Z@4HA 0000000180025610 f   GlassClipboard.obj
 0001:00024630       ?dtor$14@?0??GetData@ClipboardData@@UEAAJPEAUtagFORMATETC@@PEAUtagSTGMEDIUM@@@Z@4HA 0000000180025630 f   GlassClipboard.obj
 0001:00024660       ?catch$0@?0??GetDataHere@ClipboardData@@UEAAJPEAUtagFORMATETC@@PEAUtagSTGMEDIUM@@@Z@4HA 0000000180025660 f   GlassClipboard.obj
 0001:0002466e       __catch$?GetDataHere@ClipboardData@@UEAAJPEAUtagFORMATETC@@PEAUtagSTGMEDIUM@@@Z$0 000000018002566e f   GlassClipboard.obj
 0001:000246a0       ?catch$6@?0??PopImage@@YAJPEAUJNIEnv_@@PEAUIDataObject@@PEAPEAV_jbyteArray@@@Z@4HA 00000001800256a0 f   GlassClipboard.obj
 0001:000246ae       __catch$?PopImage@@YAJPEAUJNIEnv_@@PEAUIDataObject@@PEAPEAV_jbyteArray@@@Z$0 00000001800256ae f   GlassClipboard.obj
 0001:000246f0       ?dtor$0@?0??PopImage@@YAJPEAUJNIEnv_@@PEAUIDataObject@@PEAPEAV_jbyteArray@@@Z@4HA 00000001800256f0 f   GlassClipboard.obj
 0001:00024700       ?dtor$1@?0??PopImage@@YAJPEAUJNIEnv_@@PEAUIDataObject@@PEAPEAV_jbyteArray@@@Z@4HA 0000000180025700 f   GlassClipboard.obj
 0001:00024710       ?dtor$2@?0??PopImage@@YAJPEAUJNIEnv_@@PEAUIDataObject@@PEAPEAV_jbyteArray@@@Z@4HA 0000000180025710 f   GlassClipboard.obj
 0001:00024720       ?dtor$3@?0??PopImage@@YAJPEAUJNIEnv_@@PEAUIDataObject@@PEAPEAV_jbyteArray@@@Z@4HA 0000000180025720 f   GlassClipboard.obj
 0001:00024730       ?catch$2@?0??PushImage@@YAJPEAUJNIEnv_@@PEAV_jbyteArray@@PEAUtagSTGMEDIUM@@@Z@4HA 0000000180025730 f   GlassClipboard.obj
 0001:0002473e       __catch$?PushImage@@YAJPEAUJNIEnv_@@PEAV_jbyteArray@@PEAUtagSTGMEDIUM@@@Z$0 000000018002573e f   GlassClipboard.obj
 0001:00024780       ?dtor$0@?0??PushImage@@YAJPEAUJNIEnv_@@PEAV_jbyteArray@@PEAUtagSTGMEDIUM@@@Z@4HA 0000000180025780 f   GlassClipboard.obj
 0001:00024790       ?catch$2@?0??SetData@ClipboardData@@UEAAJPEAUtagFORMATETC@@PEAUtagSTGMEDIUM@@H@Z@4HA 0000000180025790 f   GlassClipboard.obj
 0001:0002479e       __catch$?SetData@ClipboardData@@UEAAJPEAUtagFORMATETC@@PEAUtagSTGMEDIUM@@H@Z$0 000000018002579e f   GlassClipboard.obj
 0001:000247d0       ?dtor$0@?0??getMime@@YA?AV_bstr_t@@G@Z@4HA 00000001800257d0 f   GlassClipboard.obj
 0001:000247d0       ?dtor$0@?0??SetData@ClipboardData@@UEAAJPEAUtagFORMATETC@@PEAUtagSTGMEDIUM@@H@Z@4HA 00000001800257d0 f   GlassClipboard.obj
 0001:000247e0       ?dtor$1@?0??SetData@ClipboardData@@UEAAJPEAUtagFORMATETC@@PEAUtagSTGMEDIUM@@H@Z@4HA 00000001800257e0 f   GlassClipboard.obj
 0001:000247f0       ?catch$0@?0??_Buynode0@?$_List_alloc@U?$_List_base_types@U?$pair@$$CBV_bstr_t@@G@std@@V?$allocator@U?$pair@$$CBV_bstr_t@@G@std@@@2@@std@@@std@@QEAAPEAU?$_List_node@U?$pair@$$CBV_bstr_t@@G@std@@PEAX@2@PEAU32@0@Z@4HA 00000001800257f0 f   GlassClipboard.obj
 0001:000247f0       ?catch$0@?0??_Buynode0@?$_List_alloc@U?$_List_base_types@U?$pair@$$CBGV_bstr_t@@@std@@V?$allocator@U?$pair@$$CBGV_bstr_t@@@std@@@2@@std@@@std@@QEAAPEAU?$_List_node@U?$pair@$$CBGV_bstr_t@@@std@@PEAX@2@PEAU32@0@Z@4HA 00000001800257f0 f   GlassClipboard.obj
 0001:000247fd       __catch$?_Buynode0@?$_List_alloc@U?$_List_base_types@U?$pair@$$CBGV_bstr_t@@@std@@V?$allocator@U?$pair@$$CBGV_bstr_t@@@std@@@2@@std@@@std@@QEAAPEAU?$_List_node@U?$pair@$$CBGV_bstr_t@@@std@@PEAX@2@PEAU32@0@Z$0 00000001800257fd f   GlassClipboard.obj
 0001:000247fd       __catch$?_Buynode0@?$_List_alloc@U?$_List_base_types@U?$pair@$$CBV_bstr_t@@G@std@@V?$allocator@U?$pair@$$CBV_bstr_t@@G@std@@@2@@std@@@std@@QEAAPEAU?$_List_node@U?$pair@$$CBV_bstr_t@@G@std@@PEAX@2@PEAU32@0@Z$0 00000001800257fd f   GlassClipboard.obj
 0001:00024820       ?catch$0@?0??_Buynode0@?$_List_alloc@U?$_List_base_types@U?$pair@$$CBUtagFORMATETC@@UtagSTGMEDIUM@@@std@@V?$allocator@U?$pair@$$CBUtagFORMATETC@@UtagSTGMEDIUM@@@std@@@2@@std@@@std@@QEAAPEAU?$_List_node@U?$pair@$$CBUtagFORMATETC@@UtagSTGMEDIUM@@@std@@PEAX@2@PEAU32@0@Z@4HA 0000000180025820 f   GlassClipboard.obj
 0001:0002482d       __catch$?_Buynode0@?$_List_alloc@U?$_List_base_types@U?$pair@$$CBUtagFORMATETC@@UtagSTGMEDIUM@@@std@@V?$allocator@U?$pair@$$CBUtagFORMATETC@@UtagSTGMEDIUM@@@std@@@2@@std@@@std@@QEAAPEAU?$_List_node@U?$pair@$$CBUtagFORMATETC@@UtagSTGMEDIUM@@@std@@PEAX@2@PEAU32@0@Z$0 000000018002582d f   GlassClipboard.obj
 0001:00024850       ?catch$0@?0??_Buynode0@?$_List_alloc@U?$_List_base_types@U?$pair@$$CBUtagFORMATETC@@V_bstr_t@@@std@@V?$allocator@U?$pair@$$CBUtagFORMATETC@@V_bstr_t@@@std@@@2@@std@@@std@@QEAAPEAU?$_List_node@U?$pair@$$CBUtagFORMATETC@@V_bstr_t@@@std@@PEAX@2@PEAU32@0@Z@4HA 0000000180025850 f   GlassClipboard.obj
 0001:0002485d       __catch$?_Buynode0@?$_List_alloc@U?$_List_base_types@U?$pair@$$CBUtagFORMATETC@@V_bstr_t@@@std@@V?$allocator@U?$pair@$$CBUtagFORMATETC@@V_bstr_t@@@std@@@2@@std@@@std@@QEAAPEAU?$_List_node@U?$pair@$$CBUtagFORMATETC@@V_bstr_t@@@std@@PEAX@2@PEAU32@0@Z$0 000000018002585d f   GlassClipboard.obj
 0001:00024880       ?catch$0@?0??_Buynode0@?$_List_alloc@U?$_List_base_types@V_bstr_t@@V?$allocator@V_bstr_t@@@std@@@std@@@std@@QEAAPEAU?$_List_node@V_bstr_t@@PEAX@2@PEAU32@0@Z@4HA 0000000180025880 f   GlassClipboard.obj
 0001:0002488d       __catch$?_Buynode0@?$_List_alloc@U?$_List_base_types@V_bstr_t@@V?$allocator@V_bstr_t@@@std@@@std@@@std@@QEAAPEAU?$_List_node@V_bstr_t@@PEAX@2@PEAU32@0@Z$0 000000018002588d f   GlassClipboard.obj
 0001:000248b0       ?catch$0@?0??_Reallocate_exactly@?$vector@V?$_List_unchecked_iterator@V?$_List_val@U?$_List_simple_types@U?$pair@$$CBV_bstr_t@@G@std@@@std@@@std@@@std@@V?$allocator@V?$_List_unchecked_iterator@V?$_List_val@U?$_List_simple_types@U?$pair@$$CBV_bstr_t@@G@std@@@std@@@std@@@std@@@2@@std@@AEAAX_K@Z@4HA 00000001800258b0 f   GlassClipboard.obj
 0001:000248b0       ?catch$0@?0??_Reallocate_exactly@?$vector@V?$_List_unchecked_iterator@V?$_List_val@U?$_List_simple_types@U?$pair@$$CBUtagFORMATETC@@V_bstr_t@@@std@@@std@@@std@@@std@@V?$allocator@V?$_List_unchecked_iterator@V?$_List_val@U?$_List_simple_types@U?$pair@$$CBUtagFORMATETC@@V_bstr_t@@@std@@@std@@@std@@@std@@@2@@std@@AEAAX_K@Z@4HA 00000001800258b0 f   GlassClipboard.obj
 0001:000248b0       ?catch$0@?0??_Reallocate_exactly@?$vector@V?$_List_unchecked_const_iterator@V?$_List_val@U?$_List_simple_types@V_bstr_t@@@std@@@std@@U_Iterator_base0@2@@std@@V?$allocator@V?$_List_unchecked_const_iterator@V?$_List_val@U?$_List_simple_types@V_bstr_t@@@std@@@std@@U_Iterator_base0@2@@std@@@2@@std@@AEAAX_K@Z@4HA 00000001800258b0 f   GlassClipboard.obj
 0001:000248b0       ?catch$0@?0??_Reallocate_exactly@?$vector@V?$_List_unchecked_iterator@V?$_List_val@U?$_List_simple_types@U?$pair@$$CBGV_bstr_t@@@std@@@std@@@std@@@std@@V?$allocator@V?$_List_unchecked_iterator@V?$_List_val@U?$_List_simple_types@U?$pair@$$CBGV_bstr_t@@@std@@@std@@@std@@@std@@@2@@std@@AEAAX_K@Z@4HA 00000001800258b0 f   GlassClipboard.obj
 0001:000248b0       ?catch$0@?0??_Reallocate_exactly@?$vector@V?$_List_unchecked_iterator@V?$_List_val@U?$_List_simple_types@U?$pair@$$CBUtagFORMATETC@@UtagSTGMEDIUM@@@std@@@std@@@std@@@std@@V?$allocator@V?$_List_unchecked_iterator@V?$_List_val@U?$_List_simple_types@U?$pair@$$CBUtagFORMATETC@@UtagSTGMEDIUM@@@std@@@std@@@std@@@std@@@2@@std@@AEAAX_K@Z@4HA 00000001800258b0 f   GlassClipboard.obj
 0001:000248bd       __catch$?_Reallocate_exactly@?$vector@V?$_List_unchecked_const_iterator@V?$_List_val@U?$_List_simple_types@V_bstr_t@@@std@@@std@@U_Iterator_base0@2@@std@@V?$allocator@V?$_List_unchecked_const_iterator@V?$_List_val@U?$_List_simple_types@V_bstr_t@@@std@@@std@@U_Iterator_base0@2@@std@@@2@@std@@AEAAX_K@Z$0 00000001800258bd f   GlassClipboard.obj
 0001:000248bd       __catch$?_Reallocate_exactly@?$vector@V?$_List_unchecked_iterator@V?$_List_val@U?$_List_simple_types@U?$pair@$$CBGV_bstr_t@@@std@@@std@@@std@@@std@@V?$allocator@V?$_List_unchecked_iterator@V?$_List_val@U?$_List_simple_types@U?$pair@$$CBGV_bstr_t@@@std@@@std@@@std@@@std@@@2@@std@@AEAAX_K@Z$0 00000001800258bd f   GlassClipboard.obj
 0001:000248bd       __catch$?_Reallocate_exactly@?$vector@V?$_List_unchecked_iterator@V?$_List_val@U?$_List_simple_types@U?$pair@$$CBUtagFORMATETC@@UtagSTGMEDIUM@@@std@@@std@@@std@@@std@@V?$allocator@V?$_List_unchecked_iterator@V?$_List_val@U?$_List_simple_types@U?$pair@$$CBUtagFORMATETC@@UtagSTGMEDIUM@@@std@@@std@@@std@@@std@@@2@@std@@AEAAX_K@Z$0 00000001800258bd f   GlassClipboard.obj
 0001:000248bd       __catch$?_Reallocate_exactly@?$vector@V?$_List_unchecked_iterator@V?$_List_val@U?$_List_simple_types@U?$pair@$$CBUtagFORMATETC@@V_bstr_t@@@std@@@std@@@std@@@std@@V?$allocator@V?$_List_unchecked_iterator@V?$_List_val@U?$_List_simple_types@U?$pair@$$CBUtagFORMATETC@@V_bstr_t@@@std@@@std@@@std@@@std@@@2@@std@@AEAAX_K@Z$0 00000001800258bd f   GlassClipboard.obj
 0001:000248bd       __catch$?_Reallocate_exactly@?$vector@V?$_List_unchecked_iterator@V?$_List_val@U?$_List_simple_types@U?$pair@$$CBV_bstr_t@@G@std@@@std@@@std@@@std@@V?$allocator@V?$_List_unchecked_iterator@V?$_List_val@U?$_List_simple_types@U?$pair@$$CBV_bstr_t@@G@std@@@std@@@std@@@std@@@2@@std@@AEAAX_K@Z$0 00000001800258bd f   GlassClipboard.obj
 0001:000248e0       ?dtor$1@?0??_UserDo@_MyAction@?1??Java_com_sun_glass_ui_win_WinSystemClipboard_popBytes@@YAPEAV_jbyteArray@@PEAUJNIEnv_@@PEAV_jobject@@PEAV_jstring@@_J@Z@QEAAPEAV3@XZ@4HA 00000001800258e0 f   GlassClipboard.obj
 0001:000248f0       ?catch$64@?0??_UserDo@_MyAction@?1??Java_com_sun_glass_ui_win_WinSystemClipboard_popMimesFromSystem@@YAPEAV_jobjectArray@@PEAUJNIEnv_@@PEAV_jobject@@@Z@QEAAPEAV3@XZ@4HA 00000001800258f0 f   GlassClipboard.obj
 0001:000248fe       __catch$?_UserDo@_MyAction@?1??Java_com_sun_glass_ui_win_WinSystemClipboard_popMimesFromSystem@@YAPEAV_jobjectArray@@PEAUJNIEnv_@@PEAV_jobject@@@Z@QEAAPEAV3@XZ$0 00000001800258fe f   GlassClipboard.obj
 0001:00024930       ?dtor$0@?0??_UserDo@_MyAction@?1??Java_com_sun_glass_ui_win_WinSystemClipboard_popMimesFromSystem@@YAPEAV_jobjectArray@@PEAUJNIEnv_@@PEAV_jobject@@@Z@QEAAPEAV3@XZ@4HA 0000000180025930 f   GlassClipboard.obj
 0001:00024940       ?dtor$1@?0??_UserDo@_MyAction@?1??Java_com_sun_glass_ui_win_WinSystemClipboard_popMimesFromSystem@@YAPEAV_jobjectArray@@PEAUJNIEnv_@@PEAV_jobject@@@Z@QEAAPEAV3@XZ@4HA 0000000180025940 f   GlassClipboard.obj
 0001:00024950       ?dtor$4@?0??_UserDo@_MyAction@?1??Java_com_sun_glass_ui_win_WinSystemClipboard_popMimesFromSystem@@YAPEAV_jobjectArray@@PEAUJNIEnv_@@PEAV_jobject@@@Z@QEAAPEAV3@XZ@4HA 0000000180025950 f   GlassClipboard.obj
 0001:00024960       ?dtor$6@?0??_UserDo@_MyAction@?1??Java_com_sun_glass_ui_win_WinSystemClipboard_popMimesFromSystem@@YAPEAV_jobjectArray@@PEAUJNIEnv_@@PEAV_jobject@@@Z@QEAAPEAV3@XZ@4HA 0000000180025960 f   GlassClipboard.obj
 0001:00024970       ?dtor$7@?0??_UserDo@_MyAction@?1??Java_com_sun_glass_ui_win_WinSystemClipboard_popMimesFromSystem@@YAPEAV_jobjectArray@@PEAUJNIEnv_@@PEAV_jobject@@@Z@QEAAPEAV3@XZ@4HA 0000000180025970 f   GlassClipboard.obj
 0001:00024980       ?dtor$8@?0??_UserDo@_MyAction@?1??Java_com_sun_glass_ui_win_WinSystemClipboard_popMimesFromSystem@@YAPEAV_jobjectArray@@PEAUJNIEnv_@@PEAV_jobject@@@Z@QEAAPEAV3@XZ@4HA 0000000180025980 f   GlassClipboard.obj
 0001:00024990       ?dtor$9@?0??_UserDo@_MyAction@?1??Java_com_sun_glass_ui_win_WinSystemClipboard_popMimesFromSystem@@YAPEAV_jobjectArray@@PEAUJNIEnv_@@PEAV_jobject@@@Z@QEAAPEAV3@XZ@4HA 0000000180025990 f   GlassClipboard.obj
 0001:000249c0       ?dtor$11@?0??_UserDo@_MyAction@?1??Java_com_sun_glass_ui_win_WinSystemClipboard_popMimesFromSystem@@YAPEAV_jobjectArray@@PEAUJNIEnv_@@PEAV_jobject@@@Z@QEAAPEAV3@XZ@4HA 00000001800259c0 f   GlassClipboard.obj
 0001:000249d0       ?dtor$12@?0??_UserDo@_MyAction@?1??Java_com_sun_glass_ui_win_WinSystemClipboard_popMimesFromSystem@@YAPEAV_jobjectArray@@PEAUJNIEnv_@@PEAV_jobject@@@Z@QEAAPEAV3@XZ@4HA 00000001800259d0 f   GlassClipboard.obj
 0001:000249e0       ?dtor$13@?0??_UserDo@_MyAction@?1??Java_com_sun_glass_ui_win_WinSystemClipboard_popMimesFromSystem@@YAPEAV_jobjectArray@@PEAUJNIEnv_@@PEAV_jobject@@@Z@QEAAPEAV3@XZ@4HA 00000001800259e0 f   GlassClipboard.obj
 0001:000249f0       ?dtor$14@?0??_UserDo@_MyAction@?1??Java_com_sun_glass_ui_win_WinSystemClipboard_popMimesFromSystem@@YAPEAV_jobjectArray@@PEAUJNIEnv_@@PEAV_jobject@@@Z@QEAAPEAV3@XZ@4HA 00000001800259f0 f   GlassClipboard.obj
 0001:00024a00       ?dtor$15@?0??_UserDo@_MyAction@?1??Java_com_sun_glass_ui_win_WinSystemClipboard_popMimesFromSystem@@YAPEAV_jobjectArray@@PEAUJNIEnv_@@PEAV_jobject@@@Z@QEAAPEAV3@XZ@4HA 0000000180025a00 f   GlassClipboard.obj
 0001:00024a10       ?dtor$17@?0??_UserDo@_MyAction@?1??Java_com_sun_glass_ui_win_WinSystemClipboard_popMimesFromSystem@@YAPEAV_jobjectArray@@PEAUJNIEnv_@@PEAV_jobject@@@Z@QEAAPEAV3@XZ@4HA 0000000180025a10 f   GlassClipboard.obj
 0001:00024a20       ?dtor$18@?0??_UserDo@_MyAction@?1??Java_com_sun_glass_ui_win_WinSystemClipboard_popMimesFromSystem@@YAPEAV_jobjectArray@@PEAUJNIEnv_@@PEAV_jobject@@@Z@QEAAPEAV3@XZ@4HA 0000000180025a20 f   GlassClipboard.obj
 0001:00024a30       ?dtor$20@?0??_UserDo@_MyAction@?1??Java_com_sun_glass_ui_win_WinSystemClipboard_popMimesFromSystem@@YAPEAV_jobjectArray@@PEAUJNIEnv_@@PEAV_jobject@@@Z@QEAAPEAV3@XZ@4HA 0000000180025a30 f   GlassClipboard.obj
 0001:00024a40       ?dtor$21@?0??_UserDo@_MyAction@?1??Java_com_sun_glass_ui_win_WinSystemClipboard_popMimesFromSystem@@YAPEAV_jobjectArray@@PEAUJNIEnv_@@PEAV_jobject@@@Z@QEAAPEAV3@XZ@4HA 0000000180025a40 f   GlassClipboard.obj
 0001:00024a50       ?dtor$23@?0??_UserDo@_MyAction@?1??Java_com_sun_glass_ui_win_WinSystemClipboard_popMimesFromSystem@@YAPEAV_jobjectArray@@PEAUJNIEnv_@@PEAV_jobject@@@Z@QEAAPEAV3@XZ@4HA 0000000180025a50 f   GlassClipboard.obj
 0001:00024a60       ?dtor$24@?0??_UserDo@_MyAction@?1??Java_com_sun_glass_ui_win_WinSystemClipboard_popMimesFromSystem@@YAPEAV_jobjectArray@@PEAUJNIEnv_@@PEAV_jobject@@@Z@QEAAPEAV3@XZ@4HA 0000000180025a60 f   GlassClipboard.obj
 0001:00024a70       ?dtor$26@?0??_UserDo@_MyAction@?1??Java_com_sun_glass_ui_win_WinSystemClipboard_popMimesFromSystem@@YAPEAV_jobjectArray@@PEAUJNIEnv_@@PEAV_jobject@@@Z@QEAAPEAV3@XZ@4HA 0000000180025a70 f   GlassClipboard.obj
 0001:00024a80       ?dtor$27@?0??_UserDo@_MyAction@?1??Java_com_sun_glass_ui_win_WinSystemClipboard_popMimesFromSystem@@YAPEAV_jobjectArray@@PEAUJNIEnv_@@PEAV_jobject@@@Z@QEAAPEAV3@XZ@4HA 0000000180025a80 f   GlassClipboard.obj
 0001:00024ab0       ?dtor$28@?0??_UserDo@_MyAction@?1??Java_com_sun_glass_ui_win_WinSystemClipboard_popMimesFromSystem@@YAPEAV_jobjectArray@@PEAUJNIEnv_@@PEAV_jobject@@@Z@QEAAPEAV3@XZ@4HA 0000000180025ab0 f   GlassClipboard.obj
 0001:00024ae0       ?dtor$29@?0??_UserDo@_MyAction@?1??Java_com_sun_glass_ui_win_WinSystemClipboard_popMimesFromSystem@@YAPEAV_jobjectArray@@PEAUJNIEnv_@@PEAV_jobject@@@Z@QEAAPEAV3@XZ@4HA 0000000180025ae0 f   GlassClipboard.obj
 0001:00024af0       ?dtor$30@?0??_UserDo@_MyAction@?1??Java_com_sun_glass_ui_win_WinSystemClipboard_popMimesFromSystem@@YAPEAV_jobjectArray@@PEAUJNIEnv_@@PEAV_jobject@@@Z@QEAAPEAV3@XZ@4HA 0000000180025af0 f   GlassClipboard.obj
 0001:00024b00       ?dtor$33@?0??_UserDo@_MyAction@?1??Java_com_sun_glass_ui_win_WinSystemClipboard_popMimesFromSystem@@YAPEAV_jobjectArray@@PEAUJNIEnv_@@PEAV_jobject@@@Z@QEAAPEAV3@XZ@4HA 0000000180025b00 f   GlassClipboard.obj
 0001:00024b10       ?dtor$34@?0??_UserDo@_MyAction@?1??Java_com_sun_glass_ui_win_WinSystemClipboard_popMimesFromSystem@@YAPEAV_jobjectArray@@PEAUJNIEnv_@@PEAV_jobject@@@Z@QEAAPEAV3@XZ@4HA 0000000180025b10 f   GlassClipboard.obj
 0001:00024b20       ?dtor$36@?0??_UserDo@_MyAction@?1??Java_com_sun_glass_ui_win_WinSystemClipboard_popMimesFromSystem@@YAPEAV_jobjectArray@@PEAUJNIEnv_@@PEAV_jobject@@@Z@QEAAPEAV3@XZ@4HA 0000000180025b20 f   GlassClipboard.obj
 0001:00024b30       ?dtor$37@?0??_UserDo@_MyAction@?1??Java_com_sun_glass_ui_win_WinSystemClipboard_popMimesFromSystem@@YAPEAV_jobjectArray@@PEAUJNIEnv_@@PEAV_jobject@@@Z@QEAAPEAV3@XZ@4HA 0000000180025b30 f   GlassClipboard.obj
 0001:00024b40       ?dtor$40@?0??_UserDo@_MyAction@?1??Java_com_sun_glass_ui_win_WinSystemClipboard_popMimesFromSystem@@YAPEAV_jobjectArray@@PEAUJNIEnv_@@PEAV_jobject@@@Z@QEAAPEAV3@XZ@4HA 0000000180025b40 f   GlassClipboard.obj
 0001:00024b60       ?dtor$41@?0??_UserDo@_MyAction@?1??Java_com_sun_glass_ui_win_WinSystemClipboard_popMimesFromSystem@@YAPEAV_jobjectArray@@PEAUJNIEnv_@@PEAV_jobject@@@Z@QEAAPEAV3@XZ@4HA 0000000180025b60 f   GlassClipboard.obj
 0001:00024b80       ?dtor$42@?0??_UserDo@_MyAction@?1??Java_com_sun_glass_ui_win_WinSystemClipboard_popMimesFromSystem@@YAPEAV_jobjectArray@@PEAUJNIEnv_@@PEAV_jobject@@@Z@QEAAPEAV3@XZ@4HA 0000000180025b80 f   GlassClipboard.obj
 0001:00024b80       ?dtor$3@?0??getMime@@YA?AV_bstr_t@@G@Z@4HA 0000000180025b80 f   GlassClipboard.obj
 0001:00024b80       ?dtor$4@?0??getMime@@YA?AV_bstr_t@@G@Z@4HA 0000000180025b80 f   GlassClipboard.obj
 0001:00024ba0       ?dtor$43@?0??_UserDo@_MyAction@?1??Java_com_sun_glass_ui_win_WinSystemClipboard_popMimesFromSystem@@YAPEAV_jobjectArray@@PEAUJNIEnv_@@PEAV_jobject@@@Z@QEAAPEAV3@XZ@4HA 0000000180025ba0 f   GlassClipboard.obj
 0001:00024bc0       ?dtor$48@?0??_UserDo@_MyAction@?1??Java_com_sun_glass_ui_win_WinSystemClipboard_popMimesFromSystem@@YAPEAV_jobjectArray@@PEAUJNIEnv_@@PEAV_jobject@@@Z@QEAAPEAV3@XZ@4HA 0000000180025bc0 f   GlassClipboard.obj
 0001:00024bc0       ?dtor$44@?0??_UserDo@_MyAction@?1??Java_com_sun_glass_ui_win_WinSystemClipboard_popMimesFromSystem@@YAPEAV_jobjectArray@@PEAUJNIEnv_@@PEAV_jobject@@@Z@QEAAPEAV3@XZ@4HA 0000000180025bc0 f   GlassClipboard.obj
 0001:00024bc0       ?dtor$47@?0??_UserDo@_MyAction@?1??Java_com_sun_glass_ui_win_WinSystemClipboard_popMimesFromSystem@@YAPEAV_jobjectArray@@PEAUJNIEnv_@@PEAV_jobject@@@Z@QEAAPEAV3@XZ@4HA 0000000180025bc0 f   GlassClipboard.obj
 0001:00024bc0       ?dtor$46@?0??_UserDo@_MyAction@?1??Java_com_sun_glass_ui_win_WinSystemClipboard_popMimesFromSystem@@YAPEAV_jobjectArray@@PEAUJNIEnv_@@PEAV_jobject@@@Z@QEAAPEAV3@XZ@4HA 0000000180025bc0 f   GlassClipboard.obj
 0001:00024bc0       ?dtor$45@?0??_UserDo@_MyAction@?1??Java_com_sun_glass_ui_win_WinSystemClipboard_popMimesFromSystem@@YAPEAV_jobjectArray@@PEAUJNIEnv_@@PEAV_jobject@@@Z@QEAAPEAV3@XZ@4HA 0000000180025bc0 f   GlassClipboard.obj
 0001:00024be0       ?dtor$49@?0??_UserDo@_MyAction@?1??Java_com_sun_glass_ui_win_WinSystemClipboard_popMimesFromSystem@@YAPEAV_jobjectArray@@PEAUJNIEnv_@@PEAV_jobject@@@Z@QEAAPEAV3@XZ@4HA 0000000180025be0 f   GlassClipboard.obj
 0001:00024c00       ?dtor$50@?0??_UserDo@_MyAction@?1??Java_com_sun_glass_ui_win_WinSystemClipboard_popMimesFromSystem@@YAPEAV_jobjectArray@@PEAUJNIEnv_@@PEAV_jobject@@@Z@QEAAPEAV3@XZ@4HA 0000000180025c00 f   GlassClipboard.obj
 0001:00024c30       ?dtor$51@?0??_UserDo@_MyAction@?1??Java_com_sun_glass_ui_win_WinSystemClipboard_popMimesFromSystem@@YAPEAV_jobjectArray@@PEAUJNIEnv_@@PEAV_jobject@@@Z@QEAAPEAV3@XZ@4HA 0000000180025c30 f   GlassClipboard.obj
 0001:00024c50       ?dtor$52@?0??_UserDo@_MyAction@?1??Java_com_sun_glass_ui_win_WinSystemClipboard_popMimesFromSystem@@YAPEAV_jobjectArray@@PEAUJNIEnv_@@PEAV_jobject@@@Z@QEAAPEAV3@XZ@4HA 0000000180025c50 f   GlassClipboard.obj
 0001:00024c70       ?dtor$53@?0??_UserDo@_MyAction@?1??Java_com_sun_glass_ui_win_WinSystemClipboard_popMimesFromSystem@@YAPEAV_jobjectArray@@PEAUJNIEnv_@@PEAV_jobject@@@Z@QEAAPEAV3@XZ@4HA 0000000180025c70 f   GlassClipboard.obj
 0001:00024ca0       ?dtor$54@?0??_UserDo@_MyAction@?1??Java_com_sun_glass_ui_win_WinSystemClipboard_popMimesFromSystem@@YAPEAV_jobjectArray@@PEAUJNIEnv_@@PEAV_jobject@@@Z@QEAAPEAV3@XZ@4HA 0000000180025ca0 f   GlassClipboard.obj
 0001:00024cc0       ?dtor$55@?0??_UserDo@_MyAction@?1??Java_com_sun_glass_ui_win_WinSystemClipboard_popMimesFromSystem@@YAPEAV_jobjectArray@@PEAUJNIEnv_@@PEAV_jobject@@@Z@QEAAPEAV3@XZ@4HA 0000000180025cc0 f   GlassClipboard.obj
 0001:00024cf0       ?dtor$56@?0??_UserDo@_MyAction@?1??Java_com_sun_glass_ui_win_WinSystemClipboard_popMimesFromSystem@@YAPEAV_jobjectArray@@PEAUJNIEnv_@@PEAV_jobject@@@Z@QEAAPEAV3@XZ@4HA 0000000180025cf0 f   GlassClipboard.obj
 0001:00024d10       ?dtor$57@?0??_UserDo@_MyAction@?1??Java_com_sun_glass_ui_win_WinSystemClipboard_popMimesFromSystem@@YAPEAV_jobjectArray@@PEAUJNIEnv_@@PEAV_jobject@@@Z@QEAAPEAV3@XZ@4HA 0000000180025d10 f   GlassClipboard.obj
 0001:00024d30       ?dtor$58@?0??_UserDo@_MyAction@?1??Java_com_sun_glass_ui_win_WinSystemClipboard_popMimesFromSystem@@YAPEAV_jobjectArray@@PEAUJNIEnv_@@PEAV_jobject@@@Z@QEAAPEAV3@XZ@4HA 0000000180025d30 f   GlassClipboard.obj
 0001:00024d50       ?dtor$59@?0??_UserDo@_MyAction@?1??Java_com_sun_glass_ui_win_WinSystemClipboard_popMimesFromSystem@@YAPEAV_jobjectArray@@PEAUJNIEnv_@@PEAV_jobject@@@Z@QEAAPEAV3@XZ@4HA 0000000180025d50 f   GlassClipboard.obj
 0001:00024d80       ?dtor$60@?0??_UserDo@_MyAction@?1??Java_com_sun_glass_ui_win_WinSystemClipboard_popMimesFromSystem@@YAPEAV_jobjectArray@@PEAUJNIEnv_@@PEAV_jobject@@@Z@QEAAPEAV3@XZ@4HA 0000000180025d80 f   GlassClipboard.obj
 0001:00024db0       ?dtor$0@?0??addPair@@YAXPEB_WAEBG@Z@4HA 0000000180025db0 f   GlassClipboard.obj
 0001:00024dc0       ?dtor$1@?0??addPair@@YAXPEB_WAEBG@Z@4HA 0000000180025dc0 f   GlassClipboard.obj
 0001:00024de0       ?dtor$2@?0??addPair@@YAXPEB_WAEBG@Z@4HA 0000000180025de0 f   GlassClipboard.obj
 0001:00024de0       ?dtor$0@?0??create_mime_stuff@@YAHXZ@4HA 0000000180025de0 f   GlassClipboard.obj
 0001:00024df0       ?dtor$5@?0??addPair@@YAXPEB_WAEBG@Z@4HA 0000000180025df0 f   GlassClipboard.obj
 0001:00024e00       ?dtor$6@?0??addPair@@YAXPEB_WAEBG@Z@4HA 0000000180025e00 f   GlassClipboard.obj
 0001:00024e10       ?dtor$1@?0??checkJavaException@@YAJPEAUJNIEnv_@@@Z@4HA 0000000180025e10 f   GlassClipboard.obj
 0001:00024e20       ?dtor$0@?0??UpdateDnDClipboardData@GlassDropTarget@@IEAAJPEAUIDataObject@@@Z@4HA 0000000180025e20 f   GlassDnD.obj
 0001:00024e20       ?dtor$0@?0??SetSourceSupportedActions@GlassDropTarget@@CAJJ@Z@4HA 0000000180025e20 f   GlassDnD.obj
 0001:00024e20       ?dtor$1@?0???0GlassDropSource@@QEAA@PEAV_jobject@@@Z@4HA 0000000180025e20 f   GlassDnD.obj
 0001:00024e20       ?dtor$2@?0??checkJavaException@@YAJPEAUJNIEnv_@@@Z@4HA 0000000180025e20 f   GlassClipboard.obj
 0001:00024e20       ?dtor$0@?0??SetDragButton@GlassDropSource@@SAJJ@Z@4HA 0000000180025e20 f   GlassDnD.obj
 0001:00024e30       ?dtor$4@?0??checkJavaException@@YAJPEAUJNIEnv_@@@Z@4HA 0000000180025e30 f   GlassClipboard.obj
 0001:00024e40       ?dtor$1@?0??getClipboardFormat@@YAGPEB_W@Z@4HA 0000000180025e40 f   GlassClipboard.obj
 0001:00024e40       ?dtor$1@?0??create_mime_stuff@@YAHXZ@4HA 0000000180025e40 f   GlassClipboard.obj
 0001:00024e60       ?dtor$5@?0??create_mime_stuff@@YAHXZ@4HA 0000000180025e60 f   GlassClipboard.obj
 0001:00024e70       ?dtor$6@?0??create_mime_stuff@@YAHXZ@4HA 0000000180025e70 f   GlassClipboard.obj
 0001:00024e80       ?dtor$0@?0??getString@BinaryChunk@@QEAA?AV_bstr_t@@XZ@4HA 0000000180025e80 f   GlassClipboard.obj
 0001:00024eb0       ?dtor$0@?0??pushCommit@ClipboardData@@QEAAJPEAUJNIEnv_@@PEAV_jobjectArray@@J@Z@4HA 0000000180025eb0 f   GlassClipboard.obj
 0001:00024ec0       ?dtor$1@?0??pushCommit@ClipboardData@@QEAAJPEAUJNIEnv_@@PEAV_jobjectArray@@J@Z@4HA 0000000180025ec0 f   GlassClipboard.obj
 0001:00024ed0       ?dtor$2@?0??pushCommit@ClipboardData@@QEAAJPEAUJNIEnv_@@PEAV_jobjectArray@@J@Z@4HA 0000000180025ed0 f   GlassClipboard.obj
 0001:00024ee0       ?dtor$3@?0??pushCommit@ClipboardData@@QEAAJPEAUJNIEnv_@@PEAV_jobjectArray@@J@Z@4HA 0000000180025ee0 f   GlassClipboard.obj
 0001:00024ef0       ?dtor$4@?0??pushCommit@ClipboardData@@QEAAJPEAUJNIEnv_@@PEAV_jobjectArray@@J@Z@4HA 0000000180025ef0 f   GlassClipboard.obj
 0001:00024f00       ?dtor$5@?0??pushCommit@ClipboardData@@QEAAJPEAUJNIEnv_@@PEAV_jobjectArray@@J@Z@4HA 0000000180025f00 f   GlassClipboard.obj
 0001:00024f10       ?dtor$6@?0??pushCommit@ClipboardData@@QEAAJPEAUJNIEnv_@@PEAV_jobjectArray@@J@Z@4HA 0000000180025f10 f   GlassClipboard.obj
 0001:00024f20       ?dtor$9@?0??pushCommit@ClipboardData@@QEAAJPEAUJNIEnv_@@PEAV_jobjectArray@@J@Z@4HA 0000000180025f20 f   GlassClipboard.obj
 0001:00024f40       setDragImage$catch$6       0000000180025f40 f   GlassClipboard.obj
 0001:00024f4e       __catch$setDragImage$0     0000000180025f4e f   GlassClipboard.obj
 0001:00024f90       setDragImage$dtor$0        0000000180025f90 f   GlassClipboard.obj
 0001:00024fa0       setDragImage$dtor$1        0000000180025fa0 f   GlassClipboard.obj
 0001:00024fb0       setDragImage$dtor$2        0000000180025fb0 f   GlassClipboard.obj
 0001:00024fc0       setDragImage$dtor$4        0000000180025fc0 f   GlassClipboard.obj
 0001:00024fd0       setDragImage$dtor$5        0000000180025fd0 f   GlassClipboard.obj
 0001:00024fe0       ?dtor$0@?0???0GlassDropSource@@QEAA@PEAV_jobject@@@Z@4HA 0000000180025fe0 f   GlassDnD.obj
 0001:00024ff0       ?catch$2@?0???0GlassDropTarget@@QEAA@PEAVViewContainer@@PEAUHWND__@@@Z@4HA 0000000180025ff0 f   GlassDnD.obj
 0001:00024ffe       __catch$??0GlassDropTarget@@QEAA@PEAVViewContainer@@PEAUHWND__@@@Z$0 0000000180025ffe f   GlassDnD.obj
 0001:00025030       ?dtor$0@?0???0GlassDropTarget@@QEAA@PEAVViewContainer@@PEAUHWND__@@@Z@4HA 0000000180026030 f   GlassDnD.obj
 0001:00025040       ?dtor$1@?0???0GlassDropTarget@@QEAA@PEAVViewContainer@@PEAUHWND__@@@Z@4HA 0000000180026040 f   GlassDnD.obj
 0001:00025050       ?catch$0@?0??DragEnter@GlassDropTarget@@MEAAJPEAUIDataObject@@KU_POINTL@@PEAK@Z@4HA 0000000180026050 f   GlassDnD.obj
 0001:0002505e       __catch$?DragEnter@GlassDropTarget@@MEAAJPEAUIDataObject@@KU_POINTL@@PEAK@Z$0 000000018002605e f   GlassDnD.obj
 0001:00025090       ?catch$0@?0??DragLeave@GlassDropTarget@@MEAAJXZ@4HA 0000000180026090 f   GlassDnD.obj
 0001:0002509e       __catch$?DragLeave@GlassDropTarget@@MEAAJXZ$0 000000018002609e f   GlassDnD.obj
 0001:000250d0       ?catch$0@?0??DragOver@GlassDropTarget@@MEAAJKU_POINTL@@PEAK@Z@4HA 00000001800260d0 f   GlassDnD.obj
 0001:000250de       __catch$?DragOver@GlassDropTarget@@MEAAJKU_POINTL@@PEAK@Z$0 00000001800260de f   GlassDnD.obj
 0001:00025110       ?catch$0@?0??Drop@GlassDropTarget@@MEAAJPEAUIDataObject@@KU_POINTL@@PEAK@Z@4HA 0000000180026110 f   GlassDnD.obj
 0001:0002511e       __catch$?Drop@GlassDropTarget@@MEAAJPEAUIDataObject@@KU_POINTL@@PEAK@Z$0 000000018002611e f   GlassDnD.obj
 0001:00025150       ?dtor$1@?0??SetDragButton@GlassDropSource@@SAJJ@Z@4HA 0000000180026150 f   GlassDnD.obj
 0001:00025160       ?dtor$2@?0??SetDragButton@GlassDropSource@@SAJJ@Z@4HA 0000000180026160 f   GlassDnD.obj
 0001:00025170       ?dtor$1@?0??SetSourceSupportedActions@GlassDropTarget@@CAJJ@Z@4HA 0000000180026170 f   GlassDnD.obj
 0001:00025180       ?dtor$2@?0??SetSourceSupportedActions@GlassDropTarget@@CAJJ@Z@4HA 0000000180026180 f   GlassDnD.obj
 0001:00025190       ?dtor$1@?0??UpdateDnDClipboardData@GlassDropTarget@@IEAAJPEAUIDataObject@@@Z@4HA 0000000180026190 f   GlassDnD.obj
 0001:000251a0       ?catch$1@?0??GetAttributeInfo@GlassInputTextInfo@@QEAAHAEAPEAHAEAPEAE@Z@4HA 00000001800261a0 f   GlassInputTextInfo.obj
 0001:000251ad       __catch$?GetAttributeInfo@GlassInputTextInfo@@QEAAHAEAPEAHAEAPEAE@Z$0 00000001800261ad f   GlassInputTextInfo.obj
 0001:000251c9       ?catch$0@?0??GetAttributeInfo@GlassInputTextInfo@@QEAAHAEAPEAHAEAPEAE@Z@4HA 00000001800261c9 f   GlassInputTextInfo.obj
 0001:000251d6       __catch$?GetAttributeInfo@GlassInputTextInfo@@QEAAHAEAPEAHAEAPEAE@Z$2 00000001800261d6 f   GlassInputTextInfo.obj
 0001:00025210       ?catch$1@?0??GetClauseInfo@GlassInputTextInfo@@QEAAHAEAPEAH@Z@4HA 0000000180026210 f   GlassInputTextInfo.obj
 0001:0002521d       __catch$?GetClauseInfo@GlassInputTextInfo@@QEAAHAEAPEAH@Z$0 000000018002621d f   GlassInputTextInfo.obj
 0001:0002523e       ?catch$0@?0??GetClauseInfo@GlassInputTextInfo@@QEAAHAEAPEAH@Z@4HA 000000018002623e f   GlassInputTextInfo.obj
 0001:0002524b       __catch$?GetClauseInfo@GlassInputTextInfo@@QEAAHAEAPEAH@Z$2 000000018002624b f   GlassInputTextInfo.obj
 0001:00025280       ?dtor$0@?0??Do@_MyAction@?1??Java_com_sun_glass_ui_win_WinView__1enterFullscreen@@YAEPEAUJNIEnv_@@PEAV_jobject@@_JEEE@Z@UEAAXXZ@4HA 0000000180026280 f   GlassView.obj
 0001:000252a0       ?dtor$0@?0??Do@_MyAction@?1??Java_com_sun_glass_ui_win_WinView__1uploadPixels@@YAXPEAUJNIEnv_@@PEAV_jobject@@_J1@Z@UEAAXXZ@4HA 00000001800262a0 f   GlassView.obj
 0001:000252b0       ?dtor$0@?0???0GlassWindow@@QEAA@PEAV_jobject@@_N111PEAUHWND__@@@Z@4HA 00000001800262b0 f   GlassWindow.obj
 0001:000252c0       ?dtor$1@?0???0GlassWindow@@QEAA@PEAV_jobject@@_N111PEAUHWND__@@@Z@4HA 00000001800262c0 f   GlassWindow.obj
 0001:000252d0       ?dtor$0@?0??Do@_MyAction@?1??Java_com_sun_glass_ui_win_WinWindow__1createChildWindow@@YA_JPEAUJNIEnv_@@PEAV_jobject@@_J@Z@UEAAXXZ@4HA 00000001800262d0 f   GlassWindow.obj
 0001:000252f0       ?dtor$0@?0??_UserDo@_MyAction@?1??Java_com_sun_glass_ui_win_WinWindow__1createWindow@@YA_JPEAUJNIEnv_@@PEAV_jobject@@_J2J@Z@QEAA_JXZ@4HA 00000001800262f0 f   GlassWindow.obj
 0001:00025310       ?dtor$0@?0???0ManipulationEventSink@@QEAA@PEAUIManipulationProcessor@@PEAVViewContainer@@PEAUHWND__@@@Z@4HA 0000000180026310 f   ManipulationEvents.obj
 0001:00025310       ?dtor$0@?0???0ManipulationEventSink@@QEAA@PEAUIInertiaProcessor@@PEAVViewContainer@@PEAUHWND__@@@Z@4HA 0000000180026310 f   ManipulationEvents.obj
 0001:00025320       ?dtor$0@?0???0DIBitmap@@QEAA@AEAVPixels@@@Z@4HA 0000000180026320 f   Pixels.obj
 0001:00025330       ?dtor$0@?0???0Pixels@@QEAA@PEAUJNIEnv_@@PEAV_jobject@@@Z@4HA 0000000180026330 f   Pixels.obj
 0001:00025340       ?dtor$1@?0???0Pixels@@QEAA@PEAUJNIEnv_@@PEAV_jobject@@@Z@4HA 0000000180026340 f   Pixels.obj
 0001:00025350       ?dtor$0@?0??CreateIcon@Pixels@@SAPEAUHICON__@@PEAUJNIEnv_@@PEAV_jobject@@HJJ@Z@4HA 0000000180026350 f   Pixels.obj
 0001:00025360       ?dtor$5@?0??CreateIcon@Pixels@@SAPEAUHICON__@@PEAUJNIEnv_@@PEAV_jobject@@HJJ@Z@4HA 0000000180026360 f   Pixels.obj
 0001:00025360       ?dtor$1@?0??CreateIcon@Pixels@@SAPEAUHICON__@@PEAUJNIEnv_@@PEAV_jobject@@HJJ@Z@4HA 0000000180026360 f   Pixels.obj
 0001:00025370       ?dtor$3@?0??CreateIcon@Pixels@@SAPEAUHICON__@@PEAUJNIEnv_@@PEAV_jobject@@HJJ@Z@4HA 0000000180026370 f   Pixels.obj
 0001:00025380       ?dtor$4@?0??CreateIcon@Pixels@@SAPEAUHICON__@@PEAUJNIEnv_@@PEAV_jobject@@HJJ@Z@4HA 0000000180026380 f   Pixels.obj
 0001:00025390       ?dtor$6@?0??CreateIcon@Pixels@@SAPEAUHICON__@@PEAUJNIEnv_@@PEAV_jobject@@HJJ@Z@4HA 0000000180026390 f   Pixels.obj
 0001:000253a0       ?catch$3@?0??Start@RunnableTimer@@SA_JPEAV_jobject@@J@Z@4HA 00000001800263a0 f   Timer.obj
 0001:000253ad       __catch$?Start@RunnableTimer@@SA_JPEAV_jobject@@J@Z$0 00000001800263ad f   Timer.obj
 0001:000253c0       ?dtor$0@?0??Start@RunnableTimer@@SA_JPEAV_jobject@@J@Z@4HA 00000001800263c0 f   Timer.obj
 0001:000253e0       ?dtor$1@?0??Start@RunnableTimer@@SA_JPEAV_jobject@@J@Z@4HA 00000001800263e0 f   Timer.obj
 0001:000253f0       ?dtor$2@?0??Start@RunnableTimer@@SA_JPEAV_jobject@@J@Z@4HA 00000001800263f0 f   Timer.obj
 0001:00025400       ?catch$0@?0???$_Resize@V<lambda_a9b804bd1df033981f51d8cd70da6946>@@@?$vector@UtagTOUCHINPUT@@V?$allocator@UtagTOUCHINPUT@@@std@@@std@@AEAAX_KV<lambda_a9b804bd1df033981f51d8cd70da6946>@@@Z@4HA 0000000180026400 f   ViewContainer.obj
 0001:0002540d       __catch$??$_Resize@V<lambda_a9b804bd1df033981f51d8cd70da6946>@@@?$vector@UtagTOUCHINPUT@@V?$allocator@UtagTOUCHINPUT@@@std@@@std@@AEAAX_KV<lambda_a9b804bd1df033981f51d8cd70da6946>@@@Z$0 000000018002640d f   ViewContainer.obj
 0001:00025430       ?dtor$0@?0??InitDropTarget@ViewContainer@@IEAAXPEAUHWND__@@@Z@4HA 0000000180026430 f   ViewContainer.obj
 0001:00025450       ?dtor$0@?0??InitManipProcessor@ViewContainer@@IEAAXPEAUHWND__@@@Z@4HA 0000000180026450 f   ViewContainer.obj
 0001:00025470       ?dtor$1@?0??InitManipProcessor@ViewContainer@@IEAAXPEAUHWND__@@@Z@4HA 0000000180026470 f   ViewContainer.obj
 0001:00025480       ?dtor$2@?0??InitManipProcessor@ViewContainer@@IEAAXPEAUHWND__@@@Z@4HA 0000000180026480 f   ViewContainer.obj
 0001:000254a0       ?catch$1@?0??WmImeComposition@ViewContainer@@AEAAXPEAUHWND__@@_K_J@Z@4HA 00000001800264a0 f   ViewContainer.obj
 0001:000254ad       __catch$?WmImeComposition@ViewContainer@@AEAAXPEAUHWND__@@_K_J@Z$0 00000001800264ad f   ViewContainer.obj
 0001:000254f0       ?dtor$0@?0??WmImeComposition@ViewContainer@@AEAAXPEAUHWND__@@_K_J@Z@4HA 00000001800264f0 f   ViewContainer.obj
 0001:000254fc       ?catch$0@?0???2@YAPEAX_KAEBUnothrow_t@std@@@Z@4HA 00000001800264fc f   MSVCRT:new_scalar_nothrow.obj
 0001:00025509       __catch$??2@YAPEAX_KAEBUnothrow_t@std@@@Z$0 0000000180026509 f   MSVCRT:new_scalar_nothrow.obj
 0001:00025517       __scrt_is_nonwritable_in_current_image$filt$0 0000000180026517 f   MSVCRT:utility.obj
 0001:0002552f       ?fin$0@?0??dllmain_crt_process_attach@@YAHQEAUHINSTANCE__@@QEAX@Z@4HA 000000018002652f f   MSVCRT:dll_dllmain.obj
 0001:00025546       ?fin$0@?0??dllmain_crt_process_detach@@YAH_N@Z@4HA 0000000180026546 f   MSVCRT:dll_dllmain.obj
 0001:00025562       ?filt$0@?0??dllmain_dispatch@@YAHQEAUHINSTANCE__@@KQEAX@Z@4HA 0000000180026562 f   MSVCRT:dll_dllmain.obj
 0001:000255a0       ??__F?sm_nestedLoopReturnValue@GlassApplication@@0V?$JGlobalRef@PEAV_jobject@@@@A@@YAXXZ 00000001800265a0 f   GlassApplication.obj
 0001:00025730       ??__Fmime2oscf@@YAXXZ      0000000180026730 f   GlassClipboard.obj
 0001:000257b0       ??__Foscf2mime@@YAXXZ      00000001800267b0 f   GlassClipboard.obj
 0001:00025830       ??__FvtMissing@@YAXXZ      0000000180026830 f   comsuppw:comutil.obj
 0002:00000530       ??sm_nestedLoopReturnValue$initializer$@GlassApplication@@0P6AXXZEA@@3P6AXXZEA 0000000180027530     GlassApplication.obj
 0002:00000538       ?pairs$initializer$@@3P6AXXZEA 0000000180027538     GlassClipboard.obj
 0002:00000540       ?mime2oscf$initializer$@@3P6AXXZEA 0000000180027540     GlassClipboard.obj
 0002:00000548       ?oscf2mime$initializer$@@3P6AXXZEA 0000000180027548     GlassClipboard.obj
 0002:00000550       ?_init_mime_stuff$initializer$@@3P6AXXZEA 0000000180027550     GlassClipboard.obj
 0002:00000558       ?vtMissing$initializer$@@3P6AXXZEA 0000000180027558     comsuppw:comutil.obj
 0002:00000570       ?__scrt_initialize_tss_var@@3P6AHXZEA 0000000180027570     MSVCRT:thread_safe_statics.obj
 0002:000005c8       $cppxdata$??1BaseWnd@@UEAA@XZ 00000001800275c8     BaseWnd.obj
 0002:000005f0       $cppxdata$??_GBaseWnd@@UEAAPEAXI@Z 00000001800275f0     BaseWnd.obj
 0002:00000678       ??_7_MyAction@?4???1BaseWnd@@UEAA@XZ@6B@ 0000000180027678     BaseWnd.obj
 0002:00000918       $cppxdata$??0_bstr_t@@QEAA@PEB_W@Z 0000000180027918     CommonDialogs_COM.obj
 0002:00000940       $cppxdata$??Y_bstr_t@@QEAAAEAV0@AEBV0@@Z 0000000180027940     CommonDialogs_COM.obj
 0002:00000968       $cppxdata$?snvTrace@@YAXPEB_WPEAD@Z 0000000180027968     CommonDialogs_COM.obj
 0002:00000990       $cppxdata$??1?$JLocalRef@PEAV_jstring@@@@QEAA@XZ 0000000180027990     CommonDialogs_COM.obj
 0002:00000990       $cppxdata$??1?$JLocalRef@PEAV_jbyteArray@@@@QEAA@XZ 0000000180027990     GlassClipboard.obj
 0002:00000990       $cppxdata$??1?$JLocalRef@PEAV_jthrowable@@@@QEAA@XZ 0000000180027990     GlassClipboard.obj
 0002:00000990       $cppxdata$??1?$JLocalRef@PEAV_jclass@@@@QEAA@XZ 0000000180027990     CommonDialogs_COM.obj
 0002:00000990       $cppxdata$??1?$JLocalRef@PEAV_jobject@@@@QEAA@XZ 0000000180027990     CommonDialogs_COM.obj
 0002:00000990       $cppxdata$??1?$JLocalRef@PEAV_jobjectArray@@@@QEAA@XZ 0000000180027990     CommonDialogs_COM.obj
 0002:000009b8       $cppxdata$?COMFileChooser_Show@@YAPEAV_jobject@@PEAUHWND__@@PEB_W11JEPEAV_jobjectArray@@J@Z 00000001800279b8     CommonDialogs_COM.obj
 0002:000009e0       $cppxdata$?COMFolderChooser_Show@@YAPEAV_jstring@@PEAUHWND__@@PEB_W1@Z 00000001800279e0     CommonDialogs_COM.obj
 0002:00000a08       $cppxdata$?CreateJString@@YAPEAV_jstring@@PEAUJNIEnv_@@V?$_com_ptr_t@V?$_com_IIID@UIShellItem@@$1?_GUID_43826d1e_e718_42ee_bc55_a1e261c37bfe@@3U__s_GUID@@B@@@@@Z 0000000180027a08     CommonDialogs_COM.obj
 0002:00000a30       $cppxdata$?GetExtensions@@YAPEA_WPEAUJNIEnv_@@PEAV_jobject@@@Z 0000000180027a30     CommonDialogs_COM.obj
 0002:00000a58       $cppxdata$?SetFilters@@YAXV?$_com_ptr_t@V?$_com_IIID@UIFileDialog@@$1?_GUID_42f85136_db7e_439c_85f1_e4075d135fc8@@3U__s_GUID@@B@@@@PEAV_jobjectArray@@J@Z 0000000180027a58     CommonDialogs_COM.obj
 0002:00000a80       $cppxdata$?GetFiles@@YAPEAV_jobjectArray@@V?$_com_ptr_t@V?$_com_IIID@UIFileDialog@@$1?_GUID_42f85136_db7e_439c_85f1_e4075d135fc8@@3U__s_GUID@@B@@@@HJ@Z 0000000180027a80     CommonDialogs_COM.obj
 0002:00000aa8       $cppxdata$?GetFolder@@YAPEAV_jstring@@V?$_com_ptr_t@V?$_com_IIID@UIFileDialog@@$1?_GUID_42f85136_db7e_439c_85f1_e4075d135fc8@@3U__s_GUID@@B@@@@H@Z 0000000180027aa8     CommonDialogs_COM.obj
 0002:00000c88       $cppxdata$?StandardFileChooser_Show@@YAPEAV_jobject@@PEAUHWND__@@PEB_W11JEPEAV_jobjectArray@@J@Z 0000000180027c88     CommonDialogs_Standard.obj
 0002:00000cb0       $cppxdata$?StandardFolderChooser_Show@@YAPEAV_jstring@@PEAUHWND__@@PEB_W1@Z 0000000180027cb0     CommonDialogs_Standard.obj
 0002:00000cd8       $cppxdata$?ConvertFilter@@YAXPEAV_jobject@@AEAVDNTString@@@Z 0000000180027cd8     CommonDialogs_Standard.obj
 0002:00000d00       $cppxdata$?ConvertFiles@@YAPEAV_jobjectArray@@AEAVDNTString@@@Z 0000000180027d00     CommonDialogs_Standard.obj
 0002:00000d98       $cppxdata$??0FullScreenWindow@@QEAA@XZ 0000000180027d98     FullScreenWindow.obj
 0002:00000dc0       $cppxdata$?Create@FullScreenWindow@@QEAAPEAUHWND__@@XZ 0000000180027dc0     FullScreenWindow.obj
 0002:00000e80       $cppxdata$??_GGlassAccessible@@EEAAPEAXI@Z 0000000180027e80     GlassAccessible.obj
 0002:00001b38       $cppxdata$?RegisterClipboardViewer@GlassApplication@@QEAAXPEAV_jobject@@@Z 0000000180028b38     GlassApplication.obj
 0002:00001b60       $cppxdata$?WindowProc@GlassApplication@@MEAA_JI_K_J@Z 0000000180028b60     GlassApplication.obj
 0002:00001b88       $cppxdata$??_GGlassApplication@@UEAAPEAXI@Z 0000000180028b88     GlassApplication.obj
 0002:00001bb0       $cppxdata$Java_com_sun_glass_ui_win_WinApplication__1invokeAndWait 0000000180028bb0     GlassApplication.obj
 0002:00001bd8       $cppxdata$??1?$JGlobalRef@PEAV_jobject@@@@QEAA@XZ 0000000180028bd8     GlassApplication.obj
 0002:00001c00       $cppxdata$??__F?sm_nestedLoopReturnValue@GlassApplication@@0V?$JGlobalRef@PEAV_jobject@@@@A@@YAXXZ 0000000180028c00     GlassApplication.obj
 0002:00001c28       $cppxdata$??_G_MyAction@?1??Java_com_sun_glass_ui_win_WinApplication__1invokeAndWait@@YAXPEAUJNIEnv_@@PEAV_jobject@@1@Z@UEAAPEAXI@Z 0000000180028c28     GlassApplication.obj
 0002:00001c28       $cppxdata$??_G_MyAction@?1??Java_com_sun_glass_ui_win_WinApplication__1submitForLaterInvocation@@YAXPEAUJNIEnv_@@PEAV_jobject@@1@Z@UEAAPEAXI@Z 0000000180028c28     GlassApplication.obj
 0002:00001c28       $cppxdata$??_G_MyAction@?1??Java_com_sun_glass_ui_win_WinSystemClipboard_create@@YAXPEAUJNIEnv_@@PEAV_jobject@@@Z@UEAAPEAXI@Z 0000000180028c28     GlassClipboard.obj
 0002:00001de8       ??_7_MyAction@?1??Java_com_sun_glass_ui_win_WinApplication__1invokeAndWait@@YAXPEAUJNIEnv_@@PEAV_jobject@@1@Z@6B@ 0000000180028de8     GlassApplication.obj
 0002:00001e00       ??_7_MyAction@?1??Java_com_sun_glass_ui_win_WinApplication__1submitForLaterInvocation@@YAXPEAUJNIEnv_@@PEAV_jobject@@1@Z@6B@ 0000000180028e00     GlassApplication.obj
 0002:00001e10       ?ACTIONS@@3QBJB            0000000180028e10     GlassClipboard.obj
 0002:00001e20       ?DFS@@3QBKB                0000000180028e20     GlassClipboard.obj
 0002:00002218       $cppxdata$??4_bstr_t@@QEAAAEAV0@PEB_W@Z 0000000180029218     GlassClipboard.obj
 0002:00002240       $cppxdata$?checkJavaException@@YAJPEAUJNIEnv_@@@Z 0000000180029240     GlassClipboard.obj
 0002:00002268       $cppxdata$Java_com_sun_glass_ui_win_WinSystemClipboard_create 0000000180029268     GlassClipboard.obj
 0002:00002290       $cppxdata$Java_com_sun_glass_ui_win_WinSystemClipboard_push 0000000180029290     GlassClipboard.obj
 0002:000022b8       $cppxdata$Java_com_sun_glass_ui_win_WinSystemClipboard_pop 00000001800292b8     GlassClipboard.obj
 0002:000022e0       $cppxdata$Java_com_sun_glass_ui_win_WinSystemClipboard_popBytes 00000001800292e0     GlassClipboard.obj
 0002:00002308       $cppxdata$Java_com_sun_glass_ui_win_WinDnDClipboard_push 0000000180029308     GlassClipboard.obj
 0002:00002330       $cppxdata$?_Buynode0@?$_List_alloc@U?$_List_base_types@U?$pair@$$CBGV_bstr_t@@@std@@V?$allocator@U?$pair@$$CBGV_bstr_t@@@std@@@2@@std@@@std@@QEAAPEAU?$_List_node@U?$pair@$$CBGV_bstr_t@@@std@@PEAX@2@PEAU32@0@Z 0000000180029330     GlassClipboard.obj
 0002:00002330       $cppxdata$?_Buynode0@?$_List_alloc@U?$_List_base_types@U?$pair@$$CBV_bstr_t@@G@std@@V?$allocator@U?$pair@$$CBV_bstr_t@@G@std@@@2@@std@@@std@@QEAAPEAU?$_List_node@U?$pair@$$CBV_bstr_t@@G@std@@PEAX@2@PEAU32@0@Z 0000000180029330     GlassClipboard.obj
 0002:00002358       $cppxdata$?_Reallocate_exactly@?$vector@V?$_List_unchecked_iterator@V?$_List_val@U?$_List_simple_types@U?$pair@$$CBUtagFORMATETC@@UtagSTGMEDIUM@@@std@@@std@@@std@@@std@@V?$allocator@V?$_List_unchecked_iterator@V?$_List_val@U?$_List_simple_types@U?$pair@$$CBUtagFORMATETC@@UtagSTGMEDIUM@@@std@@@std@@@std@@@std@@@2@@std@@AEAAX_K@Z 0000000180029358     GlassClipboard.obj
 0002:00002358       $cppxdata$?_Reallocate_exactly@?$vector@V?$_List_unchecked_iterator@V?$_List_val@U?$_List_simple_types@U?$pair@$$CBV_bstr_t@@G@std@@@std@@@std@@@std@@V?$allocator@V?$_List_unchecked_iterator@V?$_List_val@U?$_List_simple_types@U?$pair@$$CBV_bstr_t@@G@std@@@std@@@std@@@std@@@2@@std@@AEAAX_K@Z 0000000180029358     GlassClipboard.obj
 0002:00002358       $cppxdata$?_Reallocate_exactly@?$vector@V?$_List_unchecked_iterator@V?$_List_val@U?$_List_simple_types@U?$pair@$$CBGV_bstr_t@@@std@@@std@@@std@@@std@@V?$allocator@V?$_List_unchecked_iterator@V?$_List_val@U?$_List_simple_types@U?$pair@$$CBGV_bstr_t@@@std@@@std@@@std@@@std@@@2@@std@@AEAAX_K@Z 0000000180029358     GlassClipboard.obj
 0002:00002358       $cppxdata$?_Reallocate_exactly@?$vector@V?$_List_unchecked_iterator@V?$_List_val@U?$_List_simple_types@U?$pair@$$CBUtagFORMATETC@@V_bstr_t@@@std@@@std@@@std@@@std@@V?$allocator@V?$_List_unchecked_iterator@V?$_List_val@U?$_List_simple_types@U?$pair@$$CBUtagFORMATETC@@V_bstr_t@@@std@@@std@@@std@@@std@@@2@@std@@AEAAX_K@Z 0000000180029358     GlassClipboard.obj
 0002:00002358       $cppxdata$?_Reallocate_exactly@?$vector@V?$_List_unchecked_const_iterator@V?$_List_val@U?$_List_simple_types@V_bstr_t@@@std@@@std@@U_Iterator_base0@2@@std@@V?$allocator@V?$_List_unchecked_const_iterator@V?$_List_val@U?$_List_simple_types@V_bstr_t@@@std@@@std@@U_Iterator_base0@2@@std@@@2@@std@@AEAAX_K@Z 0000000180029358     GlassClipboard.obj
 0002:00002380       $cppxdata$??__Emime2oscf@@YAXXZ 0000000180029380     GlassClipboard.obj
 0002:000023a8       $cppxdata$??__Eoscf2mime@@YAXXZ 00000001800293a8     GlassClipboard.obj
 0002:000023d0       $cppxdata$?addPair@@YAXPEB_WAEBG@Z 00000001800293d0     GlassClipboard.obj
 0002:000023f8       $cppxdata$?getClipboardFormat@@YAGPEB_W@Z 00000001800293f8     GlassClipboard.obj
 0002:00002420       $cppxdata$?getMime@@YA?AV_bstr_t@@G@Z 0000000180029420     GlassClipboard.obj
 0002:00002448       $cppxdata$?create_mime_stuff@@YAHXZ 0000000180029448     GlassClipboard.obj
 0002:00002470       $cppxdata$?getString@BinaryChunk@@QEAA?AV_bstr_t@@XZ 0000000180029470     GlassClipboard.obj
 0002:00002498       $cppxdata$?PopImage@@YAJPEAUJNIEnv_@@PEAUIDataObject@@PEAPEAV_jbyteArray@@@Z 0000000180029498     GlassClipboard.obj
 0002:000024c0       $cppxdata$?PushImage@@YAJPEAUJNIEnv_@@PEAV_jbyteArray@@PEAUtagSTGMEDIUM@@@Z 00000001800294c0     GlassClipboard.obj
 0002:000024e8       $cppxdata$??0ClipboardData@@QEAA@PEAUJNIEnv_@@PEAV_jobject@@PEAV_jstring@@@Z 00000001800294e8     GlassClipboard.obj
 0002:00002510       $cppxdata$?pushCommit@ClipboardData@@QEAAJPEAUJNIEnv_@@PEAV_jobjectArray@@J@Z 0000000180029510     GlassClipboard.obj
 0002:00002538       $cppxdata$?GetData@ClipboardData@@UEAAJPEAUtagFORMATETC@@PEAUtagSTGMEDIUM@@@Z 0000000180029538     GlassClipboard.obj
 0002:00002560       $cppxdata$?GetDataHere@ClipboardData@@UEAAJPEAUtagFORMATETC@@PEAUtagSTGMEDIUM@@@Z 0000000180029560     GlassClipboard.obj
 0002:00002588       $cppxdata$?SetData@ClipboardData@@UEAAJPEAUtagFORMATETC@@PEAUtagSTGMEDIUM@@H@Z 0000000180029588     GlassClipboard.obj
 0002:000025b0       $cppxdata$?DAdvise@ClipboardData@@UEAAJPEAUtagFORMATETC@@KPEAUIAdviseSink@@PEAK@Z 00000001800295b0     GlassClipboard.obj
 0002:000025d8       $cppxdata$?DUnadvise@ClipboardData@@UEAAJK@Z 00000001800295d8     GlassClipboard.obj
 0002:00002600       $cppxdata$?_Buynode0@?$_List_alloc@U?$_List_base_types@U?$pair@$$CBUtagFORMATETC@@V_bstr_t@@@std@@V?$allocator@U?$pair@$$CBUtagFORMATETC@@V_bstr_t@@@std@@@2@@std@@@std@@QEAAPEAU?$_List_node@U?$pair@$$CBUtagFORMATETC@@V_bstr_t@@@std@@PEAX@2@PEAU32@0@Z 0000000180029600     GlassClipboard.obj
 0002:00002628       $cppxdata$??A?$hash_map@UtagFORMATETC@@V_bstr_t@@V?$hash_compare@UtagFORMATETC@@U?$less@UtagFORMATETC@@@std@@@stdext@@V?$allocator@U?$pair@$$CBUtagFORMATETC@@V_bstr_t@@@std@@@std@@@stdext@@QEAAAEAV_bstr_t@@AEBUtagFORMATETC@@@Z 0000000180029628     GlassClipboard.obj
 0002:00002650       $cppxdata$?_Buynode0@?$_List_alloc@U?$_List_base_types@U?$pair@$$CBUtagFORMATETC@@UtagSTGMEDIUM@@@std@@V?$allocator@U?$pair@$$CBUtagFORMATETC@@UtagSTGMEDIUM@@@std@@@2@@std@@@std@@QEAAPEAU?$_List_node@U?$pair@$$CBUtagFORMATETC@@UtagSTGMEDIUM@@@std@@PEAX@2@PEAU32@0@Z 0000000180029650     GlassClipboard.obj
 0002:00002678       $cppxdata$??_GClipboardEnumFORMATETC@ClipboardData@@UEAAPEAXI@Z 0000000180029678     GlassClipboard.obj
 0002:000026a0       $cppxdata$??_GClipboardData@@UEAAPEAXI@Z 00000001800296a0     GlassClipboard.obj
 0002:000026c8       $cppxdata$?Do@_MyAction@?1??Java_com_sun_glass_ui_win_WinSystemClipboard_dispose@@YAXPEAUJNIEnv_@@PEAV_jobject@@@Z@UEAAXXZ 00000001800296c8     GlassClipboard.obj
 0002:000026f0       $cppxdata$?Do@_MyAction@?1??Java_com_sun_glass_ui_win_WinSystemClipboard_push@@YAXPEAUJNIEnv_@@PEAV_jobject@@PEAV_jobjectArray@@J@Z@UEAAXXZ 00000001800296f0     GlassClipboard.obj
 0002:00002718       $cppxdata$??1_MyAction@?1??Java_com_sun_glass_ui_win_WinSystemClipboard_push@@YAXPEAUJNIEnv_@@PEAV_jobject@@PEAV_jobjectArray@@J@Z@UEAA@XZ 0000000180029718     GlassClipboard.obj
 0002:00002718       $cppxdata$??1_MyAction@?1??Java_com_sun_glass_ui_win_WinDnDClipboard_push@@YAXPEAUJNIEnv_@@PEAV_jobject@@PEAV_jobjectArray@@J@Z@UEAA@XZ 0000000180029718     GlassClipboard.obj
 0002:00002740       $cppxdata$??_G_MyAction@?1??Java_com_sun_glass_ui_win_WinWindow__1createChildWindow@@YA_JPEAUJNIEnv_@@PEAV_jobject@@_J@Z@UEAAPEAXI@Z 0000000180029740     GlassWindow.obj
 0002:00002740       $cppxdata$??_G_MyAction@?1??Java_com_sun_glass_ui_win_WinSystemClipboard_pop@@YAEPEAUJNIEnv_@@PEAV_jobject@@@Z@UEAAPEAXI@Z 0000000180029740     GlassClipboard.obj
 0002:00002768       $cppxdata$?_UserDo@_MyAction@?1??Java_com_sun_glass_ui_win_WinSystemClipboard_popBytes@@YAPEAV_jbyteArray@@PEAUJNIEnv_@@PEAV_jobject@@PEAV_jstring@@_J@Z@QEAAPEAV3@XZ 0000000180029768     GlassClipboard.obj
 0002:00002790       $cppxdata$??_G_MyAction@?1??Java_com_sun_glass_ui_win_WinSystemClipboard_popBytes@@YAPEAV_jbyteArray@@PEAUJNIEnv_@@PEAV_jobject@@PEAV_jstring@@_J@Z@UEAAPEAXI@Z 0000000180029790     GlassClipboard.obj
 0002:000027b8       $cppxdata$?_UserDo@_MyAction@?1??Java_com_sun_glass_ui_win_WinSystemClipboard_popMimesFromSystem@@YAPEAV_jobjectArray@@PEAUJNIEnv_@@PEAV_jobject@@@Z@QEAAPEAV3@XZ 00000001800297b8     GlassClipboard.obj
 0002:000027e0       $cppxdata$?_Buynode0@?$_List_alloc@U?$_List_base_types@V_bstr_t@@V?$allocator@V_bstr_t@@@std@@@std@@@std@@QEAAPEAU?$_List_node@V_bstr_t@@PEAX@2@PEAU32@0@Z 00000001800297e0     GlassClipboard.obj
 0002:00002808       $cppxdata$?erase@?$_Hash@V?$_Hset_traits@V_bstr_t@@V?$hash_compare@V_bstr_t@@U?$less@V_bstr_t@@@std@@@stdext@@V?$allocator@V_bstr_t@@@std@@$0A@@stdext@@@std@@QEAA_KAEBV_bstr_t@@@Z 0000000180029808     GlassClipboard.obj
 0002:00002830       $cppxdata$?Do@_MyAction@?1??Java_com_sun_glass_ui_win_WinSystemClipboard_pushTargetActionToSystem@@YAXPEAUJNIEnv_@@PEAV_jobject@@J@Z@UEAAXXZ 0000000180029830     GlassClipboard.obj
 0002:00002858       $cppxdata$?Do@_MyAction@?1??Java_com_sun_glass_ui_win_WinSystemClipboard_popSupportedSourceActions@@YAJPEAUJNIEnv_@@PEAV_jobject@@@Z@UEAAXXZ 0000000180029858     GlassClipboard.obj
 0002:00002880       $cppxdata$setDragImage     0000000180029880     GlassClipboard.obj
 0002:000028a8       $cppxdata$?Do@_MyAction@?1??Java_com_sun_glass_ui_win_WinDnDClipboard_push@@YAXPEAUJNIEnv_@@PEAV_jobject@@PEAV_jobjectArray@@J@Z@UEAAXXZ 00000001800298a8     GlassClipboard.obj
 0002:000028d0       $cppxdata$??$_Insert@AEBV_bstr_t@@U_Not_a_node_tag@std@@@?$_Hash@V?$_Hset_traits@V_bstr_t@@V?$hash_compare@V_bstr_t@@U?$less@V_bstr_t@@@std@@@stdext@@V?$allocator@V_bstr_t@@@std@@$0A@@stdext@@@std@@IEAA?AU?$pair@V?$_List_const_iterator@V?$_List_val@U?$_List_simple_types@V_bstr_t@@@std@@@std@@@std@@_N@1@AEBV_bstr_t@@U_Not_a_node_tag@1@@Z 00000001800298d0     GlassClipboard.obj
 0002:000028d0       $cppxdata$??$_Insert@V_bstr_t@@U_Not_a_node_tag@std@@@?$_Hash@V?$_Hset_traits@V_bstr_t@@V?$hash_compare@V_bstr_t@@U?$less@V_bstr_t@@@std@@@stdext@@V?$allocator@V_bstr_t@@@std@@$0A@@stdext@@@std@@IEAA?AU?$pair@V?$_List_const_iterator@V?$_List_val@U?$_List_simple_types@V_bstr_t@@@std@@@std@@@std@@_N@1@$$QEAV_bstr_t@@U_Not_a_node_tag@1@@Z 00000001800298d0     GlassClipboard.obj
 0002:000028f8       $cppxdata$??$_Insert@AEAU?$pair@$$CBUtagFORMATETC@@UtagSTGMEDIUM@@@std@@V?$_List_unchecked_iterator@V?$_List_val@U?$_List_simple_types@U?$pair@$$CBUtagFORMATETC@@UtagSTGMEDIUM@@@std@@@std@@@std@@@2@@?$_Hash@V?$_Hmap_traits@UtagFORMATETC@@UtagSTGMEDIUM@@V?$hash_compare@UtagFORMATETC@@U?$less@UtagFORMATETC@@@std@@@stdext@@V?$allocator@U?$pair@$$CBUtagFORMATETC@@UtagSTGMEDIUM@@@std@@@std@@$0A@@stdext@@@std@@IEAA?AU?$pair@V?$_List_iterator@V?$_List_val@U?$_List_simple_types@U?$pair@$$CBUtagFORMATETC@@UtagSTGMEDIUM@@@std@@@std@@@std@@@std@@_N@1@AEAU?$pair@$$CBUtagFORMATETC@@UtagSTGMEDIUM@@@1@V?$_List_unchecked_iterator@V?$_List_val@U?$_List_simple_types@U?$pair@$$CBUtagFORMATETC@@UtagSTGMEDIUM@@@std@@@std@@@std@@@1@@Z 00000001800298f8     GlassClipboard.obj
 0002:00002920       $cppxdata$??$_Insert@AEAU?$pair@$$CBUtagFORMATETC@@V_bstr_t@@@std@@V?$_List_unchecked_iterator@V?$_List_val@U?$_List_simple_types@U?$pair@$$CBUtagFORMATETC@@V_bstr_t@@@std@@@std@@@std@@@2@@?$_Hash@V?$_Hmap_traits@UtagFORMATETC@@V_bstr_t@@V?$hash_compare@UtagFORMATETC@@U?$less@UtagFORMATETC@@@std@@@stdext@@V?$allocator@U?$pair@$$CBUtagFORMATETC@@V_bstr_t@@@std@@@std@@$0A@@stdext@@@std@@IEAA?AU?$pair@V?$_List_iterator@V?$_List_val@U?$_List_simple_types@U?$pair@$$CBUtagFORMATETC@@V_bstr_t@@@std@@@std@@@std@@@std@@_N@1@AEAU?$pair@$$CBUtagFORMATETC@@V_bstr_t@@@1@V?$_List_unchecked_iterator@V?$_List_val@U?$_List_simple_types@U?$pair@$$CBUtagFORMATETC@@V_bstr_t@@@std@@@std@@@std@@@1@@Z 0000000180029920     GlassClipboard.obj
 0002:00002948       $cppxdata$??$_Insert@AEAU?$pair@$$CBGV_bstr_t@@@std@@V?$_List_unchecked_iterator@V?$_List_val@U?$_List_simple_types@U?$pair@$$CBGV_bstr_t@@@std@@@std@@@std@@@2@@?$_Hash@V?$_Hmap_traits@GV_bstr_t@@V?$hash_compare@GU?$less@G@std@@@stdext@@V?$allocator@U?$pair@$$CBGV_bstr_t@@@std@@@std@@$0A@@stdext@@@std@@IEAA?AU?$pair@V?$_List_iterator@V?$_List_val@U?$_List_simple_types@U?$pair@$$CBGV_bstr_t@@@std@@@std@@@std@@@std@@_N@1@AEAU?$pair@$$CBGV_bstr_t@@@1@V?$_List_unchecked_iterator@V?$_List_val@U?$_List_simple_types@U?$pair@$$CBGV_bstr_t@@@std@@@std@@@std@@@1@@Z 0000000180029948     GlassClipboard.obj
 0002:00002970       $cppxdata$??$_Insert@AEAU?$pair@$$CBV_bstr_t@@G@std@@V?$_List_unchecked_iterator@V?$_List_val@U?$_List_simple_types@U?$pair@$$CBV_bstr_t@@G@std@@@std@@@std@@@2@@?$_Hash@V?$_Hmap_traits@V_bstr_t@@GV?$hash_compare@V_bstr_t@@U?$less@V_bstr_t@@@std@@@stdext@@V?$allocator@U?$pair@$$CBV_bstr_t@@G@std@@@std@@$0A@@stdext@@@std@@IEAA?AU?$pair@V?$_List_iterator@V?$_List_val@U?$_List_simple_types@U?$pair@$$CBV_bstr_t@@G@std@@@std@@@std@@@std@@_N@1@AEAU?$pair@$$CBV_bstr_t@@G@1@V?$_List_unchecked_iterator@V?$_List_val@U?$_List_simple_types@U?$pair@$$CBV_bstr_t@@G@std@@@std@@@std@@@1@@Z 0000000180029970     GlassClipboard.obj
 0002:00002998       $cppxdata$??$_Insert@AEBV_bstr_t@@V?$_List_unchecked_const_iterator@V?$_List_val@U?$_List_simple_types@V_bstr_t@@@std@@@std@@U_Iterator_base0@2@@std@@@?$_Hash@V?$_Hset_traits@V_bstr_t@@V?$hash_compare@V_bstr_t@@U?$less@V_bstr_t@@@std@@@stdext@@V?$allocator@V_bstr_t@@@std@@$0A@@stdext@@@std@@IEAA?AU?$pair@V?$_List_const_iterator@V?$_List_val@U?$_List_simple_types@V_bstr_t@@@std@@@std@@@std@@_N@1@AEBV_bstr_t@@V?$_List_unchecked_const_iterator@V?$_List_val@U?$_List_simple_types@V_bstr_t@@@std@@@std@@U_Iterator_base0@2@@1@@Z 0000000180029998     GlassClipboard.obj
 0002:000029c0       $cppxdata$??$_Buynode@U?$pair@UtagFORMATETC@@UtagSTGMEDIUM@@@std@@@?$_List_buy@U?$pair@$$CBUtagFORMATETC@@UtagSTGMEDIUM@@@std@@V?$allocator@U?$pair@$$CBUtagFORMATETC@@UtagSTGMEDIUM@@@std@@@2@@std@@QEAAPEAU?$_List_node@U?$pair@$$CBUtagFORMATETC@@UtagSTGMEDIUM@@@std@@PEAX@1@PEAU21@0$$QEAU?$pair@UtagFORMATETC@@UtagSTGMEDIUM@@@1@@Z 00000001800299c0     GlassClipboard.obj
 0002:000029e8       $cppxdata$??$_Buynode@U?$pair@UtagFORMATETC@@V_bstr_t@@@std@@@?$_List_buy@U?$pair@$$CBUtagFORMATETC@@V_bstr_t@@@std@@V?$allocator@U?$pair@$$CBUtagFORMATETC@@V_bstr_t@@@std@@@2@@std@@QEAAPEAU?$_List_node@U?$pair@$$CBUtagFORMATETC@@V_bstr_t@@@std@@PEAX@1@PEAU21@0$$QEAU?$pair@UtagFORMATETC@@V_bstr_t@@@1@@Z 00000001800299e8     GlassClipboard.obj
 0002:00002a10       $cppxdata$??$_Buynode@U?$pair@GV_bstr_t@@@std@@@?$_List_buy@U?$pair@$$CBGV_bstr_t@@@std@@V?$allocator@U?$pair@$$CBGV_bstr_t@@@std@@@2@@std@@QEAAPEAU?$_List_node@U?$pair@$$CBGV_bstr_t@@@std@@PEAX@1@PEAU21@0$$QEAU?$pair@GV_bstr_t@@@1@@Z 0000000180029a10     GlassClipboard.obj
 0002:00002a38       $cppxdata$??$_Buynode@U?$pair@V_bstr_t@@G@std@@@?$_List_buy@U?$pair@$$CBV_bstr_t@@G@std@@V?$allocator@U?$pair@$$CBV_bstr_t@@G@std@@@2@@std@@QEAAPEAU?$_List_node@U?$pair@$$CBV_bstr_t@@G@std@@PEAX@1@PEAU21@0$$QEAU?$pair@V_bstr_t@@G@1@@Z 0000000180029a38     GlassClipboard.obj
 0002:00002a60       $cppxdata$??$_Buynode@AEBV_bstr_t@@@?$_List_buy@V_bstr_t@@V?$allocator@V_bstr_t@@@std@@@std@@QEAAPEAU?$_List_node@V_bstr_t@@PEAX@1@PEAU21@0AEBV_bstr_t@@@Z 0000000180029a60     GlassClipboard.obj
 0002:00002a60       $cppxdata$??$_Buynode@V_bstr_t@@@?$_List_buy@V_bstr_t@@V?$allocator@V_bstr_t@@@std@@@std@@QEAAPEAU?$_List_node@V_bstr_t@@PEAX@1@PEAU21@0$$QEAV_bstr_t@@@Z 0000000180029a60     GlassClipboard.obj
 0002:00003118       ??_7_MyAction@?1??Java_com_sun_glass_ui_win_WinSystemClipboard_isOwner@@YAEPEAUJNIEnv_@@PEAV_jobject@@@Z@6B@ 000000018002a118     GlassClipboard.obj
 0002:00003130       ??_7_MyAction@?1??Java_com_sun_glass_ui_win_WinSystemClipboard_create@@YAXPEAUJNIEnv_@@PEAV_jobject@@@Z@6B@ 000000018002a130     GlassClipboard.obj
 0002:00003148       ??_7_MyAction@?1??Java_com_sun_glass_ui_win_WinSystemClipboard_dispose@@YAXPEAUJNIEnv_@@PEAV_jobject@@@Z@6B@ 000000018002a148     GlassClipboard.obj
 0002:00003160       ??_7_MyAction@?1??Java_com_sun_glass_ui_win_WinSystemClipboard_push@@YAXPEAUJNIEnv_@@PEAV_jobject@@PEAV_jobjectArray@@J@Z@6B@ 000000018002a160     GlassClipboard.obj
 0002:00003178       ??_7_MyAction@?1??Java_com_sun_glass_ui_win_WinSystemClipboard_pop@@YAEPEAUJNIEnv_@@PEAV_jobject@@@Z@6B@ 000000018002a178     GlassClipboard.obj
 0002:00003190       ??_7_MyAction@?1??Java_com_sun_glass_ui_win_WinSystemClipboard_popBytes@@YAPEAV_jbyteArray@@PEAUJNIEnv_@@PEAV_jobject@@PEAV_jstring@@_J@Z@6B@ 000000018002a190     GlassClipboard.obj
 0002:000031a8       ??_7_MyAction@?1??Java_com_sun_glass_ui_win_WinSystemClipboard_popMimesFromSystem@@YAPEAV_jobjectArray@@PEAUJNIEnv_@@PEAV_jobject@@@Z@6B@ 000000018002a1a8     GlassClipboard.obj
 0002:00003238       ??_7_MyAction@?1??Java_com_sun_glass_ui_win_WinSystemClipboard_pushTargetActionToSystem@@YAXPEAUJNIEnv_@@PEAV_jobject@@J@Z@6B@ 000000018002a238     GlassClipboard.obj
 0002:00003250       ??_7_MyAction@?1??Java_com_sun_glass_ui_win_WinSystemClipboard_popSupportedSourceActions@@YAJPEAUJNIEnv_@@PEAV_jobject@@@Z@6B@ 000000018002a250     GlassClipboard.obj
 0002:00003268       ??_7_MyAction@?1??Java_com_sun_glass_ui_win_WinDnDClipboard_dispose@@YAXPEAUJNIEnv_@@PEAV_jobject@@@Z@6B@ 000000018002a268     GlassClipboard.obj
 0002:00003280       ??_7_MyAction@?1??Java_com_sun_glass_ui_win_WinDnDClipboard_push@@YAXPEAUJNIEnv_@@PEAV_jobject@@PEAV_jobjectArray@@J@Z@6B@ 000000018002a280     GlassClipboard.obj
 0002:00003370       $cppxdata$??0GlassDropTarget@@QEAA@PEAVViewContainer@@PEAUHWND__@@@Z 000000018002a370     GlassDnD.obj
 0002:00003398       $cppxdata$?DragEnter@GlassDropTarget@@MEAAJPEAUIDataObject@@KU_POINTL@@PEAK@Z 000000018002a398     GlassDnD.obj
 0002:000033c0       $cppxdata$?DragOver@GlassDropTarget@@MEAAJKU_POINTL@@PEAK@Z 000000018002a3c0     GlassDnD.obj
 0002:000033e8       $cppxdata$?DragLeave@GlassDropTarget@@MEAAJXZ 000000018002a3e8     GlassDnD.obj
 0002:00003410       $cppxdata$?Drop@GlassDropTarget@@MEAAJPEAUIDataObject@@KU_POINTL@@PEAK@Z 000000018002a410     GlassDnD.obj
 0002:00003438       $cppxdata$?UpdateDnDClipboardData@GlassDropTarget@@IEAAJPEAUIDataObject@@@Z 000000018002a438     GlassDnD.obj
 0002:00003460       $cppxdata$?SetSourceSupportedActions@GlassDropTarget@@CAJJ@Z 000000018002a460     GlassDnD.obj
 0002:00003488       $cppxdata$??_GGlassDropTarget@@UEAAPEAXI@Z 000000018002a488     GlassDnD.obj
 0002:000034b0       $cppxdata$??0GlassDropSource@@QEAA@PEAV_jobject@@@Z 000000018002a4b0     GlassDnD.obj
 0002:000034d8       $cppxdata$?SetDragButton@GlassDropSource@@SAJJ@Z 000000018002a4d8     GlassDnD.obj
 0002:000036e0       $cppxdata$?GetClauseInfo@GlassInputTextInfo@@QEAAHAEAPEAH@Z 000000018002a6e0     GlassInputTextInfo.obj
 0002:00003708       $cppxdata$?GetAttributeInfo@GlassInputTextInfo@@QEAAHAEAPEAHAEAPEAE@Z 000000018002a708     GlassInputTextInfo.obj
 0002:00003730       $cppxdata$??1GlassInputTextInfo@@QEAA@XZ 000000018002a730     GlassInputTextInfo.obj
 0002:00003848       $cppxdata$??_GGlassTextRangeProvider@@EEAAPEAXI@Z 000000018002a848     GlassTextRangeProvider.obj
 0002:00003b40       $cppxdata$??_GGlassView@@UEAAPEAXI@Z 000000018002ab40     GlassView.obj
 0002:00003b68       $cppxdata$??1?$JArray@C@@QEAA@XZ 000000018002ab68     GlassView.obj
 0002:00003b68       $cppxdata$??1?$JArray@J@@QEAA@XZ 000000018002ab68     GlassView.obj
 0002:00003b90       $cppxdata$??1?$JBufferArray@C@@QEAA@XZ 000000018002ab90     GlassView.obj
 0002:00003b90       $cppxdata$??1?$JBufferArray@J@@QEAA@XZ 000000018002ab90     GlassView.obj
 0002:00003bb8       $cppxdata$??1Pixels@@QEAA@XZ 000000018002abb8     GlassView.obj
 0002:00003be0       $cppxdata$Java_com_sun_glass_ui_win_WinView__1uploadPixels 000000018002abe0     GlassView.obj
 0002:00003c08       $cppxdata$?Do@_MyAction@?1??Java_com_sun_glass_ui_win_WinView__1uploadPixels@@YAXPEAUJNIEnv_@@PEAV_jobject@@_J1@Z@UEAAXXZ 000000018002ac08     GlassView.obj
 0002:00003c30       $cppxdata$??_G_MyAction@?1??Java_com_sun_glass_ui_win_WinView__1uploadPixels@@YAXPEAUJNIEnv_@@PEAV_jobject@@_J1@Z@UEAAPEAXI@Z 000000018002ac30     GlassView.obj
 0002:00003c30       $cppxdata$??_G_MyAction@?1??Java_com_sun_glass_ui_win_WinWindow__1setCursor@@YAXPEAUJNIEnv_@@PEAV_jobject@@_J1@Z@UEAAPEAXI@Z 000000018002ac30     GlassWindow.obj
 0002:00003c58       $cppxdata$?Do@_MyAction@?1??Java_com_sun_glass_ui_win_WinView__1enterFullscreen@@YAEPEAUJNIEnv_@@PEAV_jobject@@_JEEE@Z@UEAAXXZ 000000018002ac58     GlassView.obj
 0002:00003e40       ??_7_MyAction@?1??Java_com_sun_glass_ui_win_WinView__1close@@YAEPEAUJNIEnv_@@PEAV_jobject@@_J@Z@6B@ 000000018002ae40     GlassView.obj
 0002:00003e58       ??_7_MyAction@?1??Java_com_sun_glass_ui_win_WinView__1setParent@@YAXPEAUJNIEnv_@@PEAV_jobject@@_J2@Z@6B@ 000000018002ae58     GlassView.obj
 0002:00003e70       ??_7_MyAction@?1??Java_com_sun_glass_ui_win_WinView__1getX@@YAJPEAUJNIEnv_@@PEAV_jobject@@_J@Z@6B@ 000000018002ae70     GlassView.obj
 0002:00003e88       ??_7_MyAction@?1??Java_com_sun_glass_ui_win_WinView__1getY@@YAJPEAUJNIEnv_@@PEAV_jobject@@_J@Z@6B@ 000000018002ae88     GlassView.obj
 0002:00003ea0       ??_7_MyAction@?1??Java_com_sun_glass_ui_win_WinView__1uploadPixels@@YAXPEAUJNIEnv_@@PEAV_jobject@@_J1@Z@6B@ 000000018002aea0     GlassView.obj
 0002:00003eb8       ??_7_MyAction@?1??Java_com_sun_glass_ui_win_WinView__1scheduleRepaint@@YAXPEAUJNIEnv_@@PEAV_jobject@@_J@Z@6B@ 000000018002aeb8     GlassView.obj
 0002:00003ed0       ??_7_MyAction@?1??Java_com_sun_glass_ui_win_WinView__1enterFullscreen@@YAEPEAUJNIEnv_@@PEAV_jobject@@_JEEE@Z@6B@ 000000018002aed0     GlassView.obj
 0002:00003ee8       ??_7_MyAction@?1??Java_com_sun_glass_ui_win_WinView__1exitFullscreen@@YAXPEAUJNIEnv_@@PEAV_jobject@@_JE@Z@6B@ 000000018002aee8     GlassView.obj
 0002:00003f20       $cppxdata$??0GlassWindow@@QEAA@PEAV_jobject@@_N111PEAUHWND__@@@Z 000000018002af20     GlassWindow.obj
 0002:00003f48       $cppxdata$??_GGlassWindow@@UEAAPEAXI@Z 000000018002af48     GlassWindow.obj
 0002:00003f70       $cppxdata$Java_com_sun_glass_ui_win_WinWindow__1createWindow 000000018002af70     GlassWindow.obj
 0002:00003f98       $cppxdata$Java_com_sun_glass_ui_win_WinWindow__1createChildWindow 000000018002af98     GlassWindow.obj
 0002:00003fc0       $cppxdata$Java_com_sun_glass_ui_win_WinWindow__1setCursor 000000018002afc0     GlassWindow.obj
 0002:00003fe8       $cppxdata$?_UserDo@_MyAction@?1??Java_com_sun_glass_ui_win_WinWindow__1createWindow@@YA_JPEAUJNIEnv_@@PEAV_jobject@@_J2J@Z@QEAA_JXZ 000000018002afe8     GlassWindow.obj
 0002:00004010       $cppxdata$??_G_MyAction@?1??Java_com_sun_glass_ui_win_WinWindow__1createWindow@@YA_JPEAUJNIEnv_@@PEAV_jobject@@_J2J@Z@UEAAPEAXI@Z 000000018002b010     GlassWindow.obj
 0002:00004038       $cppxdata$?Do@_MyAction@?1??Java_com_sun_glass_ui_win_WinWindow__1createChildWindow@@YA_JPEAUJNIEnv_@@PEAV_jobject@@_J@Z@UEAAXXZ 000000018002b038     GlassWindow.obj
 0002:00004298       ??_7_MyAction@?1??Java_com_sun_glass_ui_win_WinWindow__1createWindow@@YA_JPEAUJNIEnv_@@PEAV_jobject@@_J2J@Z@6B@ 000000018002b298     GlassWindow.obj
 0002:000042b0       ??_7_MyAction@?1??Java_com_sun_glass_ui_win_WinWindow__1createChildWindow@@YA_JPEAUJNIEnv_@@PEAV_jobject@@_J@Z@6B@ 000000018002b2b0     GlassWindow.obj
 0002:000042c8       ??_7_MyAction@?1??Java_com_sun_glass_ui_win_WinWindow__1close@@YAEPEAUJNIEnv_@@PEAV_jobject@@_J@Z@6B@ 000000018002b2c8     GlassWindow.obj
 0002:000042e0       ??_7_MyAction@?1??Java_com_sun_glass_ui_win_WinWindow__1setView@@YAEPEAUJNIEnv_@@PEAV_jobject@@_J1@Z@6B@ 000000018002b2e0     GlassWindow.obj
 0002:000042f8       ??_7_MyAction@?1??Java_com_sun_glass_ui_win_WinWindow__1setMenubar@@YAEPEAUJNIEnv_@@PEAV_jobject@@_J2@Z@6B@ 000000018002b2f8     GlassWindow.obj
 0002:00004310       ??_7_MyAction@?1??Java_com_sun_glass_ui_win_WinWindow__1setLevel@@YAXPEAUJNIEnv_@@PEAV_jobject@@_JJ@Z@6B@ 000000018002b310     GlassWindow.obj
 0002:00004328       ??_7_MyAction@?1??Java_com_sun_glass_ui_win_WinWindow__1setFocusable@@YAXPEAUJNIEnv_@@PEAV_jobject@@_JE@Z@6B@ 000000018002b328     GlassWindow.obj
 0002:00004340       ??_7_MyAction@?1??Java_com_sun_glass_ui_win_WinWindow__1setEnabled@@YAXPEAUJNIEnv_@@PEAV_jobject@@_JE@Z@6B@ 000000018002b340     GlassWindow.obj
 0002:00004358       ??_7_MyAction@?1??Java_com_sun_glass_ui_win_WinWindow__1setAlpha@@YAXPEAUJNIEnv_@@PEAV_jobject@@_JM@Z@6B@ 000000018002b358     GlassWindow.obj
 0002:00004370       ??_7_MyAction@?1??Java_com_sun_glass_ui_win_WinWindow__1setBackground@@YAEPEAUJNIEnv_@@PEAV_jobject@@_JMMM@Z@6B@ 000000018002b370     GlassWindow.obj
 0002:00004388       ??_7_MyAction@?1??Java_com_sun_glass_ui_win_WinWindow__1setBounds@@YAXPEAUJNIEnv_@@PEAV_jobject@@_JJJEEJJJJMM@Z@6B@ 000000018002b388     GlassWindow.obj
 0002:000043a0       ??_7_MyAction@?1??Java_com_sun_glass_ui_win_WinWindow__1setTitle@@YAEPEAUJNIEnv_@@PEAV_jobject@@_JPEAV_jstring@@@Z@6B@ 000000018002b3a0     GlassWindow.obj
 0002:000043b8       ??_7_MyAction@?1??Java_com_sun_glass_ui_win_WinWindow__1setResizable@@YAEPEAUJNIEnv_@@PEAV_jobject@@_JE@Z@6B@ 000000018002b3b8     GlassWindow.obj
 0002:000043d0       ??_7_MyAction@?1??Java_com_sun_glass_ui_win_WinWindow__1setVisible@@YAEPEAUJNIEnv_@@PEAV_jobject@@_JE@Z@6B@ 000000018002b3d0     GlassWindow.obj
 0002:000043e8       ??_7_MyAction@?1??Java_com_sun_glass_ui_win_WinWindow__1requestFocus@@YAEPEAUJNIEnv_@@PEAV_jobject@@_JJ@Z@6B@ 000000018002b3e8     GlassWindow.obj
 0002:00004400       ??_7_MyAction@?1??Java_com_sun_glass_ui_win_WinWindow__1grabFocus@@YAEPEAUJNIEnv_@@PEAV_jobject@@_J@Z@6B@ 000000018002b400     GlassWindow.obj
 0002:00004418       ??_7_MyAction@?1??Java_com_sun_glass_ui_win_WinWindow__1ungrabFocus@@YAXPEAUJNIEnv_@@PEAV_jobject@@_J@Z@6B@ 000000018002b418     GlassWindow.obj
 0002:00004430       ??_7_MyAction@?1??Java_com_sun_glass_ui_win_WinWindow__1minimize@@YAEPEAUJNIEnv_@@PEAV_jobject@@_JE@Z@6B@ 000000018002b430     GlassWindow.obj
 0002:00004448       ??_7_MyAction@?1??Java_com_sun_glass_ui_win_WinWindow__1maximize@@YAEPEAUJNIEnv_@@PEAV_jobject@@_JEE@Z@6B@ 000000018002b448     GlassWindow.obj
 0002:00004460       ??_7_MyAction@?1??Java_com_sun_glass_ui_win_WinWindow__1setMinimumSize@@YAEPEAUJNIEnv_@@PEAV_jobject@@_JJJ@Z@6B@ 000000018002b460     GlassWindow.obj
 0002:00004478       ??_7_MyAction@?1??Java_com_sun_glass_ui_win_WinWindow__1setMaximumSize@@YAEPEAUJNIEnv_@@PEAV_jobject@@_JJJ@Z@6B@ 000000018002b478     GlassWindow.obj
 0002:00004490       ??_7_MyAction@?1??Java_com_sun_glass_ui_win_WinWindow__1toFront@@YAXPEAUJNIEnv_@@PEAV_jobject@@_J@Z@6B@ 000000018002b490     GlassWindow.obj
 0002:000044a8       ??_7_MyAction@?1??Java_com_sun_glass_ui_win_WinWindow__1toBack@@YAXPEAUJNIEnv_@@PEAV_jobject@@_J@Z@6B@ 000000018002b4a8     GlassWindow.obj
 0002:000044c0       ??_7_MyAction@?1??Java_com_sun_glass_ui_win_WinWindow__1getEmbeddedX@@YAJPEAUJNIEnv_@@PEAV_jobject@@_J@Z@6B@ 000000018002b4c0     GlassWindow.obj
 0002:000044d8       ??_7_MyAction@?1??Java_com_sun_glass_ui_win_WinWindow__1getEmbeddedY@@YAJPEAUJNIEnv_@@PEAV_jobject@@_J@Z@6B@ 000000018002b4d8     GlassWindow.obj
 0002:000044f0       ??_7_MyAction@?1??Java_com_sun_glass_ui_win_WinWindow__1setCursor@@YAXPEAUJNIEnv_@@PEAV_jobject@@_J1@Z@6B@ 000000018002b4f0     GlassWindow.obj
 0002:00004520       ?keyMapTable@@3QBUKeyMapEntry@@B 000000018002b520     KeyTable.obj
 0002:00004898       $cppxdata$??0ManipulationEventSink@@QEAA@PEAUIManipulationProcessor@@PEAVViewContainer@@PEAUHWND__@@@Z 000000018002b898     ManipulationEvents.obj
 0002:000048c0       $cppxdata$??0ManipulationEventSink@@QEAA@PEAUIInertiaProcessor@@PEAVViewContainer@@PEAUHWND__@@@Z 000000018002b8c0     ManipulationEvents.obj
 0002:00004978       $cppxdata$??0DIBitmap@@QEAA@AEAVPixels@@@Z 000000018002b978     Pixels.obj
 0002:000049a0       $cppxdata$?CreateIcon@Pixels@@SAPEAUHICON__@@PEAUJNIEnv_@@PEAV_jobject@@HJJ@Z 000000018002b9a0     Pixels.obj
 0002:000049c8       $cppxdata$??0Pixels@@QEAA@PEAUJNIEnv_@@PEAV_jobject@@@Z 000000018002b9c8     Pixels.obj
 0002:00004a1c       ?redMask@?1??GetScreenCapture@@9@4UtagRGBQUAD@@B 000000018002ba1c     Robot.obj
 0002:00004a20       ?greenMask@?1??GetScreenCapture@@9@4UtagRGBQUAD@@B 000000018002ba20     Robot.obj
 0002:00004a24       ?blueMask@?1??GetScreenCapture@@9@4UtagRGBQUAD@@B 000000018002ba24     Robot.obj
 0002:00004a28       $cppxdata$?Start@RunnableTimer@@SA_JPEAV_jobject@@J@Z 000000018002ba28     Timer.obj
 0002:00004a50       $cppxdata$??_GRunnableTimer@@UEAAPEAXI@Z 000000018002ba50     Timer.obj
 0002:00004ac8       $cppxdata$?WmImeComposition@ViewContainer@@AEAAXPEAUHWND__@@_K_J@Z 000000018002bac8     ViewContainer.obj
 0002:00004af0       $cppxdata$?InitDropTarget@ViewContainer@@IEAAXPEAUHWND__@@@Z 000000018002baf0     ViewContainer.obj
 0002:00004b18       $cppxdata$?InitManipProcessor@ViewContainer@@IEAAXPEAUHWND__@@@Z 000000018002bb18     ViewContainer.obj
 0002:00004b40       $cppxdata$??_GManipulationEventSinkWithInertia@@UEAAPEAXI@Z 000000018002bb40     ViewContainer.obj
 0002:00004b68       $cppxdata$??$_Resize@V<lambda_a9b804bd1df033981f51d8cd70da6946>@@@?$vector@UtagTOUCHINPUT@@V?$allocator@UtagTOUCHINPUT@@@std@@@std@@AEAAX_KV<lambda_a9b804bd1df033981f51d8cd70da6946>@@@Z 000000018002bb68     ViewContainer.obj
 0002:00004fd0       $cppxdata$??2@YAPEAX_KAEBUnothrow_t@std@@@Z 000000018002bfd0     MSVCRT:new_scalar_nothrow.obj
 0002:00004ff8       $cppxdata$?__scrt_initialize_thread_safe_statics@@YAHXZ 000000018002bff8     MSVCRT:thread_safe_statics.obj
 0002:00005178       GS_ExceptionPointers       000000018002c178     MSVCRT:gs_report.obj
 0002:00005430       ??_R4_MyAction@?4???1BaseWnd@@UEAA@XZ@6B@ 000000018002c430     BaseWnd.obj
 0002:00005458       ??_R3_MyAction@?4???1BaseWnd@@UEAA@XZ@8 000000018002c458     BaseWnd.obj
 0002:00005470       ??_R2_MyAction@?4???1BaseWnd@@UEAA@XZ@8 000000018002c470     BaseWnd.obj
 0002:00005488       ??_R1A@?0A@EA@_MyAction@?4???1BaseWnd@@UEAA@XZ@8 000000018002c488     BaseWnd.obj
 0002:00006818       ??_R4_MyAction@?1??Java_com_sun_glass_ui_win_WinApplication__1invokeAndWait@@YAXPEAUJNIEnv_@@PEAV_jobject@@1@Z@6B@ 000000018002d818     GlassApplication.obj
 0002:00006840       ??_R3_MyAction@?1??Java_com_sun_glass_ui_win_WinApplication__1invokeAndWait@@YAXPEAUJNIEnv_@@PEAV_jobject@@1@Z@8 000000018002d840     GlassApplication.obj
 0002:00006858       ??_R2_MyAction@?1??Java_com_sun_glass_ui_win_WinApplication__1invokeAndWait@@YAXPEAUJNIEnv_@@PEAV_jobject@@1@Z@8 000000018002d858     GlassApplication.obj
 0002:00006870       ??_R1A@?0A@EA@_MyAction@?1??Java_com_sun_glass_ui_win_WinApplication__1invokeAndWait@@YAXPEAUJNIEnv_@@PEAV_jobject@@1@Z@8 000000018002d870     GlassApplication.obj
 0002:00006898       ??_R4_MyAction@?1??Java_com_sun_glass_ui_win_WinApplication__1submitForLaterInvocation@@YAXPEAUJNIEnv_@@PEAV_jobject@@1@Z@6B@ 000000018002d898     GlassApplication.obj
 0002:000068c0       ??_R3_MyAction@?1??Java_com_sun_glass_ui_win_WinApplication__1submitForLaterInvocation@@YAXPEAUJNIEnv_@@PEAV_jobject@@1@Z@8 000000018002d8c0     GlassApplication.obj
 0002:000068d8       ??_R2_MyAction@?1??Java_com_sun_glass_ui_win_WinApplication__1submitForLaterInvocation@@YAXPEAUJNIEnv_@@PEAV_jobject@@1@Z@8 000000018002d8d8     GlassApplication.obj
 0002:000068f0       ??_R1A@?0A@EA@_MyAction@?1??Java_com_sun_glass_ui_win_WinApplication__1submitForLaterInvocation@@YAXPEAUJNIEnv_@@PEAV_jobject@@1@Z@8 000000018002d8f0     GlassApplication.obj
 0002:00006c70       ??_R4_MyAction@?1??Java_com_sun_glass_ui_win_WinSystemClipboard_isOwner@@YAEPEAUJNIEnv_@@PEAV_jobject@@@Z@6B@ 000000018002dc70     GlassClipboard.obj
 0002:00006c98       ??_R3_MyAction@?1??Java_com_sun_glass_ui_win_WinSystemClipboard_isOwner@@YAEPEAUJNIEnv_@@PEAV_jobject@@@Z@8 000000018002dc98     GlassClipboard.obj
 0002:00006cb0       ??_R2_MyAction@?1??Java_com_sun_glass_ui_win_WinSystemClipboard_isOwner@@YAEPEAUJNIEnv_@@PEAV_jobject@@@Z@8 000000018002dcb0     GlassClipboard.obj
 0002:00006cc8       ??_R1A@?0A@EA@_MyAction@?1??Java_com_sun_glass_ui_win_WinSystemClipboard_isOwner@@YAEPEAUJNIEnv_@@PEAV_jobject@@@Z@8 000000018002dcc8     GlassClipboard.obj
 0002:00006cf0       ??_R4_MyAction@?1??Java_com_sun_glass_ui_win_WinSystemClipboard_create@@YAXPEAUJNIEnv_@@PEAV_jobject@@@Z@6B@ 000000018002dcf0     GlassClipboard.obj
 0002:00006d18       ??_R3_MyAction@?1??Java_com_sun_glass_ui_win_WinSystemClipboard_create@@YAXPEAUJNIEnv_@@PEAV_jobject@@@Z@8 000000018002dd18     GlassClipboard.obj
 0002:00006d30       ??_R2_MyAction@?1??Java_com_sun_glass_ui_win_WinSystemClipboard_create@@YAXPEAUJNIEnv_@@PEAV_jobject@@@Z@8 000000018002dd30     GlassClipboard.obj
 0002:00006d48       ??_R1A@?0A@EA@_MyAction@?1??Java_com_sun_glass_ui_win_WinSystemClipboard_create@@YAXPEAUJNIEnv_@@PEAV_jobject@@@Z@8 000000018002dd48     GlassClipboard.obj
 0002:00006d70       ??_R4_MyAction@?1??Java_com_sun_glass_ui_win_WinSystemClipboard_dispose@@YAXPEAUJNIEnv_@@PEAV_jobject@@@Z@6B@ 000000018002dd70     GlassClipboard.obj
 0002:00006d98       ??_R3_MyAction@?1??Java_com_sun_glass_ui_win_WinSystemClipboard_dispose@@YAXPEAUJNIEnv_@@PEAV_jobject@@@Z@8 000000018002dd98     GlassClipboard.obj
 0002:00006db0       ??_R2_MyAction@?1??Java_com_sun_glass_ui_win_WinSystemClipboard_dispose@@YAXPEAUJNIEnv_@@PEAV_jobject@@@Z@8 000000018002ddb0     GlassClipboard.obj
 0002:00006dc8       ??_R1A@?0A@EA@_MyAction@?1??Java_com_sun_glass_ui_win_WinSystemClipboard_dispose@@YAXPEAUJNIEnv_@@PEAV_jobject@@@Z@8 000000018002ddc8     GlassClipboard.obj
 0002:00006df0       ??_R4_MyAction@?1??Java_com_sun_glass_ui_win_WinSystemClipboard_push@@YAXPEAUJNIEnv_@@PEAV_jobject@@PEAV_jobjectArray@@J@Z@6B@ 000000018002ddf0     GlassClipboard.obj
 0002:00006e18       ??_R3_MyAction@?1??Java_com_sun_glass_ui_win_WinSystemClipboard_push@@YAXPEAUJNIEnv_@@PEAV_jobject@@PEAV_jobjectArray@@J@Z@8 000000018002de18     GlassClipboard.obj
 0002:00006e30       ??_R2_MyAction@?1??Java_com_sun_glass_ui_win_WinSystemClipboard_push@@YAXPEAUJNIEnv_@@PEAV_jobject@@PEAV_jobjectArray@@J@Z@8 000000018002de30     GlassClipboard.obj
 0002:00006e48       ??_R1A@?0A@EA@_MyAction@?1??Java_com_sun_glass_ui_win_WinSystemClipboard_push@@YAXPEAUJNIEnv_@@PEAV_jobject@@PEAV_jobjectArray@@J@Z@8 000000018002de48     GlassClipboard.obj
 0002:00006e70       ??_R4_MyAction@?1??Java_com_sun_glass_ui_win_WinSystemClipboard_pop@@YAEPEAUJNIEnv_@@PEAV_jobject@@@Z@6B@ 000000018002de70     GlassClipboard.obj
 0002:00006e98       ??_R3_MyAction@?1??Java_com_sun_glass_ui_win_WinSystemClipboard_pop@@YAEPEAUJNIEnv_@@PEAV_jobject@@@Z@8 000000018002de98     GlassClipboard.obj
 0002:00006eb0       ??_R2_MyAction@?1??Java_com_sun_glass_ui_win_WinSystemClipboard_pop@@YAEPEAUJNIEnv_@@PEAV_jobject@@@Z@8 000000018002deb0     GlassClipboard.obj
 0002:00006ec8       ??_R1A@?0A@EA@_MyAction@?1??Java_com_sun_glass_ui_win_WinSystemClipboard_pop@@YAEPEAUJNIEnv_@@PEAV_jobject@@@Z@8 000000018002dec8     GlassClipboard.obj
 0002:00006ef0       ??_R4_MyAction@?1??Java_com_sun_glass_ui_win_WinSystemClipboard_popBytes@@YAPEAV_jbyteArray@@PEAUJNIEnv_@@PEAV_jobject@@PEAV_jstring@@_J@Z@6B@ 000000018002def0     GlassClipboard.obj
 0002:00006f18       ??_R3_MyAction@?1??Java_com_sun_glass_ui_win_WinSystemClipboard_popBytes@@YAPEAV_jbyteArray@@PEAUJNIEnv_@@PEAV_jobject@@PEAV_jstring@@_J@Z@8 000000018002df18     GlassClipboard.obj
 0002:00006f30       ??_R2_MyAction@?1??Java_com_sun_glass_ui_win_WinSystemClipboard_popBytes@@YAPEAV_jbyteArray@@PEAUJNIEnv_@@PEAV_jobject@@PEAV_jstring@@_J@Z@8 000000018002df30     GlassClipboard.obj
 0002:00006f48       ??_R1A@?0A@EA@_MyAction@?1??Java_com_sun_glass_ui_win_WinSystemClipboard_popBytes@@YAPEAV_jbyteArray@@PEAUJNIEnv_@@PEAV_jobject@@PEAV_jstring@@_J@Z@8 000000018002df48     GlassClipboard.obj
 0002:00006f70       ??_R4_MyAction@?1??Java_com_sun_glass_ui_win_WinSystemClipboard_popMimesFromSystem@@YAPEAV_jobjectArray@@PEAUJNIEnv_@@PEAV_jobject@@@Z@6B@ 000000018002df70     GlassClipboard.obj
 0002:00006f98       ??_R3_MyAction@?1??Java_com_sun_glass_ui_win_WinSystemClipboard_popMimesFromSystem@@YAPEAV_jobjectArray@@PEAUJNIEnv_@@PEAV_jobject@@@Z@8 000000018002df98     GlassClipboard.obj
 0002:00006fb0       ??_R2_MyAction@?1??Java_com_sun_glass_ui_win_WinSystemClipboard_popMimesFromSystem@@YAPEAV_jobjectArray@@PEAUJNIEnv_@@PEAV_jobject@@@Z@8 000000018002dfb0     GlassClipboard.obj
 0002:00006fc8       ??_R1A@?0A@EA@_MyAction@?1??Java_com_sun_glass_ui_win_WinSystemClipboard_popMimesFromSystem@@YAPEAV_jobjectArray@@PEAUJNIEnv_@@PEAV_jobject@@@Z@8 000000018002dfc8     GlassClipboard.obj
 0002:00006ff0       ??_R4_MyAction@?1??Java_com_sun_glass_ui_win_WinSystemClipboard_pushTargetActionToSystem@@YAXPEAUJNIEnv_@@PEAV_jobject@@J@Z@6B@ 000000018002dff0     GlassClipboard.obj
 0002:00007018       ??_R3_MyAction@?1??Java_com_sun_glass_ui_win_WinSystemClipboard_pushTargetActionToSystem@@YAXPEAUJNIEnv_@@PEAV_jobject@@J@Z@8 000000018002e018     GlassClipboard.obj
 0002:00007030       ??_R2_MyAction@?1??Java_com_sun_glass_ui_win_WinSystemClipboard_pushTargetActionToSystem@@YAXPEAUJNIEnv_@@PEAV_jobject@@J@Z@8 000000018002e030     GlassClipboard.obj
 0002:00007048       ??_R1A@?0A@EA@_MyAction@?1??Java_com_sun_glass_ui_win_WinSystemClipboard_pushTargetActionToSystem@@YAXPEAUJNIEnv_@@PEAV_jobject@@J@Z@8 000000018002e048     GlassClipboard.obj
 0002:00007070       ??_R4_MyAction@?1??Java_com_sun_glass_ui_win_WinSystemClipboard_popSupportedSourceActions@@YAJPEAUJNIEnv_@@PEAV_jobject@@@Z@6B@ 000000018002e070     GlassClipboard.obj
 0002:00007098       ??_R3_MyAction@?1??Java_com_sun_glass_ui_win_WinSystemClipboard_popSupportedSourceActions@@YAJPEAUJNIEnv_@@PEAV_jobject@@@Z@8 000000018002e098     GlassClipboard.obj
 0002:000070b0       ??_R2_MyAction@?1??Java_com_sun_glass_ui_win_WinSystemClipboard_popSupportedSourceActions@@YAJPEAUJNIEnv_@@PEAV_jobject@@@Z@8 000000018002e0b0     GlassClipboard.obj
 0002:000070c8       ??_R1A@?0A@EA@_MyAction@?1??Java_com_sun_glass_ui_win_WinSystemClipboard_popSupportedSourceActions@@YAJPEAUJNIEnv_@@PEAV_jobject@@@Z@8 000000018002e0c8     GlassClipboard.obj
 0002:000070f0       ??_R4_MyAction@?1??Java_com_sun_glass_ui_win_WinDnDClipboard_dispose@@YAXPEAUJNIEnv_@@PEAV_jobject@@@Z@6B@ 000000018002e0f0     GlassClipboard.obj
 0002:00007118       ??_R3_MyAction@?1??Java_com_sun_glass_ui_win_WinDnDClipboard_dispose@@YAXPEAUJNIEnv_@@PEAV_jobject@@@Z@8 000000018002e118     GlassClipboard.obj
 0002:00007130       ??_R2_MyAction@?1??Java_com_sun_glass_ui_win_WinDnDClipboard_dispose@@YAXPEAUJNIEnv_@@PEAV_jobject@@@Z@8 000000018002e130     GlassClipboard.obj
 0002:00007148       ??_R1A@?0A@EA@_MyAction@?1??Java_com_sun_glass_ui_win_WinDnDClipboard_dispose@@YAXPEAUJNIEnv_@@PEAV_jobject@@@Z@8 000000018002e148     GlassClipboard.obj
 0002:00007170       ??_R4_MyAction@?1??Java_com_sun_glass_ui_win_WinDnDClipboard_push@@YAXPEAUJNIEnv_@@PEAV_jobject@@PEAV_jobjectArray@@J@Z@6B@ 000000018002e170     GlassClipboard.obj
 0002:00007198       ??_R3_MyAction@?1??Java_com_sun_glass_ui_win_WinDnDClipboard_push@@YAXPEAUJNIEnv_@@PEAV_jobject@@PEAV_jobjectArray@@J@Z@8 000000018002e198     GlassClipboard.obj
 0002:000071b0       ??_R2_MyAction@?1??Java_com_sun_glass_ui_win_WinDnDClipboard_push@@YAXPEAUJNIEnv_@@PEAV_jobject@@PEAV_jobjectArray@@J@Z@8 000000018002e1b0     GlassClipboard.obj
 0002:000071c8       ??_R1A@?0A@EA@_MyAction@?1??Java_com_sun_glass_ui_win_WinDnDClipboard_push@@YAXPEAUJNIEnv_@@PEAV_jobject@@PEAV_jobjectArray@@J@Z@8 000000018002e1c8     GlassClipboard.obj
 0002:00007628       ??_R4_MyAction@?1??Java_com_sun_glass_ui_win_WinView__1close@@YAEPEAUJNIEnv_@@PEAV_jobject@@_J@Z@6B@ 000000018002e628     GlassView.obj
 0002:00007650       ??_R3_MyAction@?1??Java_com_sun_glass_ui_win_WinView__1close@@YAEPEAUJNIEnv_@@PEAV_jobject@@_J@Z@8 000000018002e650     GlassView.obj
 0002:00007668       ??_R2_MyAction@?1??Java_com_sun_glass_ui_win_WinView__1close@@YAEPEAUJNIEnv_@@PEAV_jobject@@_J@Z@8 000000018002e668     GlassView.obj
 0002:00007680       ??_R1A@?0A@EA@_MyAction@?1??Java_com_sun_glass_ui_win_WinView__1close@@YAEPEAUJNIEnv_@@PEAV_jobject@@_J@Z@8 000000018002e680     GlassView.obj
 0002:000076a8       ??_R4_MyAction@?1??Java_com_sun_glass_ui_win_WinView__1setParent@@YAXPEAUJNIEnv_@@PEAV_jobject@@_J2@Z@6B@ 000000018002e6a8     GlassView.obj
 0002:000076d0       ??_R3_MyAction@?1??Java_com_sun_glass_ui_win_WinView__1setParent@@YAXPEAUJNIEnv_@@PEAV_jobject@@_J2@Z@8 000000018002e6d0     GlassView.obj
 0002:000076e8       ??_R2_MyAction@?1??Java_com_sun_glass_ui_win_WinView__1setParent@@YAXPEAUJNIEnv_@@PEAV_jobject@@_J2@Z@8 000000018002e6e8     GlassView.obj
 0002:00007700       ??_R1A@?0A@EA@_MyAction@?1??Java_com_sun_glass_ui_win_WinView__1setParent@@YAXPEAUJNIEnv_@@PEAV_jobject@@_J2@Z@8 000000018002e700     GlassView.obj
 0002:00007728       ??_R4_MyAction@?1??Java_com_sun_glass_ui_win_WinView__1getX@@YAJPEAUJNIEnv_@@PEAV_jobject@@_J@Z@6B@ 000000018002e728     GlassView.obj
 0002:00007750       ??_R3_MyAction@?1??Java_com_sun_glass_ui_win_WinView__1getX@@YAJPEAUJNIEnv_@@PEAV_jobject@@_J@Z@8 000000018002e750     GlassView.obj
 0002:00007768       ??_R2_MyAction@?1??Java_com_sun_glass_ui_win_WinView__1getX@@YAJPEAUJNIEnv_@@PEAV_jobject@@_J@Z@8 000000018002e768     GlassView.obj
 0002:00007780       ??_R1A@?0A@EA@_MyAction@?1??Java_com_sun_glass_ui_win_WinView__1getX@@YAJPEAUJNIEnv_@@PEAV_jobject@@_J@Z@8 000000018002e780     GlassView.obj
 0002:000077a8       ??_R4_MyAction@?1??Java_com_sun_glass_ui_win_WinView__1getY@@YAJPEAUJNIEnv_@@PEAV_jobject@@_J@Z@6B@ 000000018002e7a8     GlassView.obj
 0002:000077d0       ??_R3_MyAction@?1??Java_com_sun_glass_ui_win_WinView__1getY@@YAJPEAUJNIEnv_@@PEAV_jobject@@_J@Z@8 000000018002e7d0     GlassView.obj
 0002:000077e8       ??_R2_MyAction@?1??Java_com_sun_glass_ui_win_WinView__1getY@@YAJPEAUJNIEnv_@@PEAV_jobject@@_J@Z@8 000000018002e7e8     GlassView.obj
 0002:00007800       ??_R1A@?0A@EA@_MyAction@?1??Java_com_sun_glass_ui_win_WinView__1getY@@YAJPEAUJNIEnv_@@PEAV_jobject@@_J@Z@8 000000018002e800     GlassView.obj
 0002:00007828       ??_R4_MyAction@?1??Java_com_sun_glass_ui_win_WinView__1uploadPixels@@YAXPEAUJNIEnv_@@PEAV_jobject@@_J1@Z@6B@ 000000018002e828     GlassView.obj
 0002:00007850       ??_R3_MyAction@?1??Java_com_sun_glass_ui_win_WinView__1uploadPixels@@YAXPEAUJNIEnv_@@PEAV_jobject@@_J1@Z@8 000000018002e850     GlassView.obj
 0002:00007868       ??_R2_MyAction@?1??Java_com_sun_glass_ui_win_WinView__1uploadPixels@@YAXPEAUJNIEnv_@@PEAV_jobject@@_J1@Z@8 000000018002e868     GlassView.obj
 0002:00007880       ??_R1A@?0A@EA@_MyAction@?1??Java_com_sun_glass_ui_win_WinView__1uploadPixels@@YAXPEAUJNIEnv_@@PEAV_jobject@@_J1@Z@8 000000018002e880     GlassView.obj
 0002:000078a8       ??_R4_MyAction@?1??Java_com_sun_glass_ui_win_WinView__1scheduleRepaint@@YAXPEAUJNIEnv_@@PEAV_jobject@@_J@Z@6B@ 000000018002e8a8     GlassView.obj
 0002:000078d0       ??_R3_MyAction@?1??Java_com_sun_glass_ui_win_WinView__1scheduleRepaint@@YAXPEAUJNIEnv_@@PEAV_jobject@@_J@Z@8 000000018002e8d0     GlassView.obj
 0002:000078e8       ??_R2_MyAction@?1??Java_com_sun_glass_ui_win_WinView__1scheduleRepaint@@YAXPEAUJNIEnv_@@PEAV_jobject@@_J@Z@8 000000018002e8e8     GlassView.obj
 0002:00007900       ??_R1A@?0A@EA@_MyAction@?1??Java_com_sun_glass_ui_win_WinView__1scheduleRepaint@@YAXPEAUJNIEnv_@@PEAV_jobject@@_J@Z@8 000000018002e900     GlassView.obj
 0002:00007928       ??_R4_MyAction@?1??Java_com_sun_glass_ui_win_WinView__1enterFullscreen@@YAEPEAUJNIEnv_@@PEAV_jobject@@_JEEE@Z@6B@ 000000018002e928     GlassView.obj
 0002:00007950       ??_R3_MyAction@?1??Java_com_sun_glass_ui_win_WinView__1enterFullscreen@@YAEPEAUJNIEnv_@@PEAV_jobject@@_JEEE@Z@8 000000018002e950     GlassView.obj
 0002:00007968       ??_R2_MyAction@?1??Java_com_sun_glass_ui_win_WinView__1enterFullscreen@@YAEPEAUJNIEnv_@@PEAV_jobject@@_JEEE@Z@8 000000018002e968     GlassView.obj
 0002:00007980       ??_R1A@?0A@EA@_MyAction@?1??Java_com_sun_glass_ui_win_WinView__1enterFullscreen@@YAEPEAUJNIEnv_@@PEAV_jobject@@_JEEE@Z@8 000000018002e980     GlassView.obj
 0002:000079a8       ??_R4_MyAction@?1??Java_com_sun_glass_ui_win_WinView__1exitFullscreen@@YAXPEAUJNIEnv_@@PEAV_jobject@@_JE@Z@6B@ 000000018002e9a8     GlassView.obj
 0002:000079d0       ??_R3_MyAction@?1??Java_com_sun_glass_ui_win_WinView__1exitFullscreen@@YAXPEAUJNIEnv_@@PEAV_jobject@@_JE@Z@8 000000018002e9d0     GlassView.obj
 0002:000079e8       ??_R2_MyAction@?1??Java_com_sun_glass_ui_win_WinView__1exitFullscreen@@YAXPEAUJNIEnv_@@PEAV_jobject@@_JE@Z@8 000000018002e9e8     GlassView.obj
 0002:00007a00       ??_R1A@?0A@EA@_MyAction@?1??Java_com_sun_glass_ui_win_WinView__1exitFullscreen@@YAXPEAUJNIEnv_@@PEAV_jobject@@_JE@Z@8 000000018002ea00     GlassView.obj
 0002:00007ad8       ??_R4_MyAction@?1??Java_com_sun_glass_ui_win_WinWindow__1createWindow@@YA_JPEAUJNIEnv_@@PEAV_jobject@@_J2J@Z@6B@ 000000018002ead8     GlassWindow.obj
 0002:00007b00       ??_R3_MyAction@?1??Java_com_sun_glass_ui_win_WinWindow__1createWindow@@YA_JPEAUJNIEnv_@@PEAV_jobject@@_J2J@Z@8 000000018002eb00     GlassWindow.obj
 0002:00007b18       ??_R2_MyAction@?1??Java_com_sun_glass_ui_win_WinWindow__1createWindow@@YA_JPEAUJNIEnv_@@PEAV_jobject@@_J2J@Z@8 000000018002eb18     GlassWindow.obj
 0002:00007b30       ??_R1A@?0A@EA@_MyAction@?1??Java_com_sun_glass_ui_win_WinWindow__1createWindow@@YA_JPEAUJNIEnv_@@PEAV_jobject@@_J2J@Z@8 000000018002eb30     GlassWindow.obj
 0002:00007b58       ??_R4_MyAction@?1??Java_com_sun_glass_ui_win_WinWindow__1createChildWindow@@YA_JPEAUJNIEnv_@@PEAV_jobject@@_J@Z@6B@ 000000018002eb58     GlassWindow.obj
 0002:00007b80       ??_R3_MyAction@?1??Java_com_sun_glass_ui_win_WinWindow__1createChildWindow@@YA_JPEAUJNIEnv_@@PEAV_jobject@@_J@Z@8 000000018002eb80     GlassWindow.obj
 0002:00007b98       ??_R2_MyAction@?1??Java_com_sun_glass_ui_win_WinWindow__1createChildWindow@@YA_JPEAUJNIEnv_@@PEAV_jobject@@_J@Z@8 000000018002eb98     GlassWindow.obj
 0002:00007bb0       ??_R1A@?0A@EA@_MyAction@?1??Java_com_sun_glass_ui_win_WinWindow__1createChildWindow@@YA_JPEAUJNIEnv_@@PEAV_jobject@@_J@Z@8 000000018002ebb0     GlassWindow.obj
 0002:00007bd8       ??_R4_MyAction@?1??Java_com_sun_glass_ui_win_WinWindow__1close@@YAEPEAUJNIEnv_@@PEAV_jobject@@_J@Z@6B@ 000000018002ebd8     GlassWindow.obj
 0002:00007c00       ??_R3_MyAction@?1??Java_com_sun_glass_ui_win_WinWindow__1close@@YAEPEAUJNIEnv_@@PEAV_jobject@@_J@Z@8 000000018002ec00     GlassWindow.obj
 0002:00007c18       ??_R2_MyAction@?1??Java_com_sun_glass_ui_win_WinWindow__1close@@YAEPEAUJNIEnv_@@PEAV_jobject@@_J@Z@8 000000018002ec18     GlassWindow.obj
 0002:00007c30       ??_R1A@?0A@EA@_MyAction@?1??Java_com_sun_glass_ui_win_WinWindow__1close@@YAEPEAUJNIEnv_@@PEAV_jobject@@_J@Z@8 000000018002ec30     GlassWindow.obj
 0002:00007c58       ??_R4_MyAction@?1??Java_com_sun_glass_ui_win_WinWindow__1setView@@YAEPEAUJNIEnv_@@PEAV_jobject@@_J1@Z@6B@ 000000018002ec58     GlassWindow.obj
 0002:00007c80       ??_R3_MyAction@?1??Java_com_sun_glass_ui_win_WinWindow__1setView@@YAEPEAUJNIEnv_@@PEAV_jobject@@_J1@Z@8 000000018002ec80     GlassWindow.obj
 0002:00007c98       ??_R2_MyAction@?1??Java_com_sun_glass_ui_win_WinWindow__1setView@@YAEPEAUJNIEnv_@@PEAV_jobject@@_J1@Z@8 000000018002ec98     GlassWindow.obj
 0002:00007cb0       ??_R1A@?0A@EA@_MyAction@?1??Java_com_sun_glass_ui_win_WinWindow__1setView@@YAEPEAUJNIEnv_@@PEAV_jobject@@_J1@Z@8 000000018002ecb0     GlassWindow.obj
 0002:00007cd8       ??_R4_MyAction@?1??Java_com_sun_glass_ui_win_WinWindow__1setMenubar@@YAEPEAUJNIEnv_@@PEAV_jobject@@_J2@Z@6B@ 000000018002ecd8     GlassWindow.obj
 0002:00007d00       ??_R3_MyAction@?1??Java_com_sun_glass_ui_win_WinWindow__1setMenubar@@YAEPEAUJNIEnv_@@PEAV_jobject@@_J2@Z@8 000000018002ed00     GlassWindow.obj
 0002:00007d18       ??_R2_MyAction@?1??Java_com_sun_glass_ui_win_WinWindow__1setMenubar@@YAEPEAUJNIEnv_@@PEAV_jobject@@_J2@Z@8 000000018002ed18     GlassWindow.obj
 0002:00007d30       ??_R1A@?0A@EA@_MyAction@?1??Java_com_sun_glass_ui_win_WinWindow__1setMenubar@@YAEPEAUJNIEnv_@@PEAV_jobject@@_J2@Z@8 000000018002ed30     GlassWindow.obj
 0002:00007d58       ??_R4_MyAction@?1??Java_com_sun_glass_ui_win_WinWindow__1setLevel@@YAXPEAUJNIEnv_@@PEAV_jobject@@_JJ@Z@6B@ 000000018002ed58     GlassWindow.obj
 0002:00007d80       ??_R3_MyAction@?1??Java_com_sun_glass_ui_win_WinWindow__1setLevel@@YAXPEAUJNIEnv_@@PEAV_jobject@@_JJ@Z@8 000000018002ed80     GlassWindow.obj
 0002:00007d98       ??_R2_MyAction@?1??Java_com_sun_glass_ui_win_WinWindow__1setLevel@@YAXPEAUJNIEnv_@@PEAV_jobject@@_JJ@Z@8 000000018002ed98     GlassWindow.obj
 0002:00007db0       ??_R1A@?0A@EA@_MyAction@?1??Java_com_sun_glass_ui_win_WinWindow__1setLevel@@YAXPEAUJNIEnv_@@PEAV_jobject@@_JJ@Z@8 000000018002edb0     GlassWindow.obj
 0002:00007dd8       ??_R4_MyAction@?1??Java_com_sun_glass_ui_win_WinWindow__1setFocusable@@YAXPEAUJNIEnv_@@PEAV_jobject@@_JE@Z@6B@ 000000018002edd8     GlassWindow.obj
 0002:00007e00       ??_R3_MyAction@?1??Java_com_sun_glass_ui_win_WinWindow__1setFocusable@@YAXPEAUJNIEnv_@@PEAV_jobject@@_JE@Z@8 000000018002ee00     GlassWindow.obj
 0002:00007e18       ??_R2_MyAction@?1??Java_com_sun_glass_ui_win_WinWindow__1setFocusable@@YAXPEAUJNIEnv_@@PEAV_jobject@@_JE@Z@8 000000018002ee18     GlassWindow.obj
 0002:00007e30       ??_R1A@?0A@EA@_MyAction@?1??Java_com_sun_glass_ui_win_WinWindow__1setFocusable@@YAXPEAUJNIEnv_@@PEAV_jobject@@_JE@Z@8 000000018002ee30     GlassWindow.obj
 0002:00007e58       ??_R4_MyAction@?1??Java_com_sun_glass_ui_win_WinWindow__1setEnabled@@YAXPEAUJNIEnv_@@PEAV_jobject@@_JE@Z@6B@ 000000018002ee58     GlassWindow.obj
 0002:00007e80       ??_R3_MyAction@?1??Java_com_sun_glass_ui_win_WinWindow__1setEnabled@@YAXPEAUJNIEnv_@@PEAV_jobject@@_JE@Z@8 000000018002ee80     GlassWindow.obj
 0002:00007e98       ??_R2_MyAction@?1??Java_com_sun_glass_ui_win_WinWindow__1setEnabled@@YAXPEAUJNIEnv_@@PEAV_jobject@@_JE@Z@8 000000018002ee98     GlassWindow.obj
 0002:00007eb0       ??_R1A@?0A@EA@_MyAction@?1??Java_com_sun_glass_ui_win_WinWindow__1setEnabled@@YAXPEAUJNIEnv_@@PEAV_jobject@@_JE@Z@8 000000018002eeb0     GlassWindow.obj
 0002:00007ed8       ??_R4_MyAction@?1??Java_com_sun_glass_ui_win_WinWindow__1setAlpha@@YAXPEAUJNIEnv_@@PEAV_jobject@@_JM@Z@6B@ 000000018002eed8     GlassWindow.obj
 0002:00007f00       ??_R3_MyAction@?1??Java_com_sun_glass_ui_win_WinWindow__1setAlpha@@YAXPEAUJNIEnv_@@PEAV_jobject@@_JM@Z@8 000000018002ef00     GlassWindow.obj
 0002:00007f18       ??_R2_MyAction@?1??Java_com_sun_glass_ui_win_WinWindow__1setAlpha@@YAXPEAUJNIEnv_@@PEAV_jobject@@_JM@Z@8 000000018002ef18     GlassWindow.obj
 0002:00007f30       ??_R1A@?0A@EA@_MyAction@?1??Java_com_sun_glass_ui_win_WinWindow__1setAlpha@@YAXPEAUJNIEnv_@@PEAV_jobject@@_JM@Z@8 000000018002ef30     GlassWindow.obj
 0002:00007f58       ??_R4_MyAction@?1??Java_com_sun_glass_ui_win_WinWindow__1setBackground@@YAEPEAUJNIEnv_@@PEAV_jobject@@_JMMM@Z@6B@ 000000018002ef58     GlassWindow.obj
 0002:00007f80       ??_R3_MyAction@?1??Java_com_sun_glass_ui_win_WinWindow__1setBackground@@YAEPEAUJNIEnv_@@PEAV_jobject@@_JMMM@Z@8 000000018002ef80     GlassWindow.obj
 0002:00007f98       ??_R2_MyAction@?1??Java_com_sun_glass_ui_win_WinWindow__1setBackground@@YAEPEAUJNIEnv_@@PEAV_jobject@@_JMMM@Z@8 000000018002ef98     GlassWindow.obj
 0002:00007fb0       ??_R1A@?0A@EA@_MyAction@?1??Java_com_sun_glass_ui_win_WinWindow__1setBackground@@YAEPEAUJNIEnv_@@PEAV_jobject@@_JMMM@Z@8 000000018002efb0     GlassWindow.obj
 0002:00007fd8       ??_R4_MyAction@?1??Java_com_sun_glass_ui_win_WinWindow__1setBounds@@YAXPEAUJNIEnv_@@PEAV_jobject@@_JJJEEJJJJMM@Z@6B@ 000000018002efd8     GlassWindow.obj
 0002:00008000       ??_R3_MyAction@?1??Java_com_sun_glass_ui_win_WinWindow__1setBounds@@YAXPEAUJNIEnv_@@PEAV_jobject@@_JJJEEJJJJMM@Z@8 000000018002f000     GlassWindow.obj
 0002:00008018       ??_R2_MyAction@?1??Java_com_sun_glass_ui_win_WinWindow__1setBounds@@YAXPEAUJNIEnv_@@PEAV_jobject@@_JJJEEJJJJMM@Z@8 000000018002f018     GlassWindow.obj
 0002:00008030       ??_R1A@?0A@EA@_MyAction@?1??Java_com_sun_glass_ui_win_WinWindow__1setBounds@@YAXPEAUJNIEnv_@@PEAV_jobject@@_JJJEEJJJJMM@Z@8 000000018002f030     GlassWindow.obj
 0002:00008058       ??_R4_MyAction@?1??Java_com_sun_glass_ui_win_WinWindow__1setTitle@@YAEPEAUJNIEnv_@@PEAV_jobject@@_JPEAV_jstring@@@Z@6B@ 000000018002f058     GlassWindow.obj
 0002:00008080       ??_R3_MyAction@?1??Java_com_sun_glass_ui_win_WinWindow__1setTitle@@YAEPEAUJNIEnv_@@PEAV_jobject@@_JPEAV_jstring@@@Z@8 000000018002f080     GlassWindow.obj
 0002:00008098       ??_R2_MyAction@?1??Java_com_sun_glass_ui_win_WinWindow__1setTitle@@YAEPEAUJNIEnv_@@PEAV_jobject@@_JPEAV_jstring@@@Z@8 000000018002f098     GlassWindow.obj
 0002:000080b0       ??_R1A@?0A@EA@_MyAction@?1??Java_com_sun_glass_ui_win_WinWindow__1setTitle@@YAEPEAUJNIEnv_@@PEAV_jobject@@_JPEAV_jstring@@@Z@8 000000018002f0b0     GlassWindow.obj
 0002:000080d8       ??_R4_MyAction@?1??Java_com_sun_glass_ui_win_WinWindow__1setResizable@@YAEPEAUJNIEnv_@@PEAV_jobject@@_JE@Z@6B@ 000000018002f0d8     GlassWindow.obj
 0002:00008100       ??_R3_MyAction@?1??Java_com_sun_glass_ui_win_WinWindow__1setResizable@@YAEPEAUJNIEnv_@@PEAV_jobject@@_JE@Z@8 000000018002f100     GlassWindow.obj
 0002:00008118       ??_R2_MyAction@?1??Java_com_sun_glass_ui_win_WinWindow__1setResizable@@YAEPEAUJNIEnv_@@PEAV_jobject@@_JE@Z@8 000000018002f118     GlassWindow.obj
 0002:00008130       ??_R1A@?0A@EA@_MyAction@?1??Java_com_sun_glass_ui_win_WinWindow__1setResizable@@YAEPEAUJNIEnv_@@PEAV_jobject@@_JE@Z@8 000000018002f130     GlassWindow.obj
 0002:00008158       ??_R4_MyAction@?1??Java_com_sun_glass_ui_win_WinWindow__1setVisible@@YAEPEAUJNIEnv_@@PEAV_jobject@@_JE@Z@6B@ 000000018002f158     GlassWindow.obj
 0002:00008180       ??_R3_MyAction@?1??Java_com_sun_glass_ui_win_WinWindow__1setVisible@@YAEPEAUJNIEnv_@@PEAV_jobject@@_JE@Z@8 000000018002f180     GlassWindow.obj
 0002:00008198       ??_R2_MyAction@?1??Java_com_sun_glass_ui_win_WinWindow__1setVisible@@YAEPEAUJNIEnv_@@PEAV_jobject@@_JE@Z@8 000000018002f198     GlassWindow.obj
 0002:000081b0       ??_R1A@?0A@EA@_MyAction@?1??Java_com_sun_glass_ui_win_WinWindow__1setVisible@@YAEPEAUJNIEnv_@@PEAV_jobject@@_JE@Z@8 000000018002f1b0     GlassWindow.obj
 0002:000081d8       ??_R4_MyAction@?1??Java_com_sun_glass_ui_win_WinWindow__1requestFocus@@YAEPEAUJNIEnv_@@PEAV_jobject@@_JJ@Z@6B@ 000000018002f1d8     GlassWindow.obj
 0002:00008200       ??_R3_MyAction@?1??Java_com_sun_glass_ui_win_WinWindow__1requestFocus@@YAEPEAUJNIEnv_@@PEAV_jobject@@_JJ@Z@8 000000018002f200     GlassWindow.obj
 0002:00008218       ??_R2_MyAction@?1??Java_com_sun_glass_ui_win_WinWindow__1requestFocus@@YAEPEAUJNIEnv_@@PEAV_jobject@@_JJ@Z@8 000000018002f218     GlassWindow.obj
 0002:00008230       ??_R1A@?0A@EA@_MyAction@?1??Java_com_sun_glass_ui_win_WinWindow__1requestFocus@@YAEPEAUJNIEnv_@@PEAV_jobject@@_JJ@Z@8 000000018002f230     GlassWindow.obj
 0002:00008258       ??_R4_MyAction@?1??Java_com_sun_glass_ui_win_WinWindow__1grabFocus@@YAEPEAUJNIEnv_@@PEAV_jobject@@_J@Z@6B@ 000000018002f258     GlassWindow.obj
 0002:00008280       ??_R3_MyAction@?1??Java_com_sun_glass_ui_win_WinWindow__1grabFocus@@YAEPEAUJNIEnv_@@PEAV_jobject@@_J@Z@8 000000018002f280     GlassWindow.obj
 0002:00008298       ??_R2_MyAction@?1??Java_com_sun_glass_ui_win_WinWindow__1grabFocus@@YAEPEAUJNIEnv_@@PEAV_jobject@@_J@Z@8 000000018002f298     GlassWindow.obj
 0002:000082b0       ??_R1A@?0A@EA@_MyAction@?1??Java_com_sun_glass_ui_win_WinWindow__1grabFocus@@YAEPEAUJNIEnv_@@PEAV_jobject@@_J@Z@8 000000018002f2b0     GlassWindow.obj
 0002:000082d8       ??_R4_MyAction@?1??Java_com_sun_glass_ui_win_WinWindow__1ungrabFocus@@YAXPEAUJNIEnv_@@PEAV_jobject@@_J@Z@6B@ 000000018002f2d8     GlassWindow.obj
 0002:00008300       ??_R3_MyAction@?1??Java_com_sun_glass_ui_win_WinWindow__1ungrabFocus@@YAXPEAUJNIEnv_@@PEAV_jobject@@_J@Z@8 000000018002f300     GlassWindow.obj
 0002:00008318       ??_R2_MyAction@?1??Java_com_sun_glass_ui_win_WinWindow__1ungrabFocus@@YAXPEAUJNIEnv_@@PEAV_jobject@@_J@Z@8 000000018002f318     GlassWindow.obj
 0002:00008330       ??_R1A@?0A@EA@_MyAction@?1??Java_com_sun_glass_ui_win_WinWindow__1ungrabFocus@@YAXPEAUJNIEnv_@@PEAV_jobject@@_J@Z@8 000000018002f330     GlassWindow.obj
 0002:00008358       ??_R4_MyAction@?1??Java_com_sun_glass_ui_win_WinWindow__1minimize@@YAEPEAUJNIEnv_@@PEAV_jobject@@_JE@Z@6B@ 000000018002f358     GlassWindow.obj
 0002:00008380       ??_R3_MyAction@?1??Java_com_sun_glass_ui_win_WinWindow__1minimize@@YAEPEAUJNIEnv_@@PEAV_jobject@@_JE@Z@8 000000018002f380     GlassWindow.obj
 0002:00008398       ??_R2_MyAction@?1??Java_com_sun_glass_ui_win_WinWindow__1minimize@@YAEPEAUJNIEnv_@@PEAV_jobject@@_JE@Z@8 000000018002f398     GlassWindow.obj
 0002:000083b0       ??_R1A@?0A@EA@_MyAction@?1??Java_com_sun_glass_ui_win_WinWindow__1minimize@@YAEPEAUJNIEnv_@@PEAV_jobject@@_JE@Z@8 000000018002f3b0     GlassWindow.obj
 0002:000083d8       ??_R4_MyAction@?1??Java_com_sun_glass_ui_win_WinWindow__1maximize@@YAEPEAUJNIEnv_@@PEAV_jobject@@_JEE@Z@6B@ 000000018002f3d8     GlassWindow.obj
 0002:00008400       ??_R3_MyAction@?1??Java_com_sun_glass_ui_win_WinWindow__1maximize@@YAEPEAUJNIEnv_@@PEAV_jobject@@_JEE@Z@8 000000018002f400     GlassWindow.obj
 0002:00008418       ??_R2_MyAction@?1??Java_com_sun_glass_ui_win_WinWindow__1maximize@@YAEPEAUJNIEnv_@@PEAV_jobject@@_JEE@Z@8 000000018002f418     GlassWindow.obj
 0002:00008430       ??_R1A@?0A@EA@_MyAction@?1??Java_com_sun_glass_ui_win_WinWindow__1maximize@@YAEPEAUJNIEnv_@@PEAV_jobject@@_JEE@Z@8 000000018002f430     GlassWindow.obj
 0002:00008458       ??_R4_MyAction@?1??Java_com_sun_glass_ui_win_WinWindow__1setMinimumSize@@YAEPEAUJNIEnv_@@PEAV_jobject@@_JJJ@Z@6B@ 000000018002f458     GlassWindow.obj
 0002:00008480       ??_R3_MyAction@?1??Java_com_sun_glass_ui_win_WinWindow__1setMinimumSize@@YAEPEAUJNIEnv_@@PEAV_jobject@@_JJJ@Z@8 000000018002f480     GlassWindow.obj
 0002:00008498       ??_R2_MyAction@?1??Java_com_sun_glass_ui_win_WinWindow__1setMinimumSize@@YAEPEAUJNIEnv_@@PEAV_jobject@@_JJJ@Z@8 000000018002f498     GlassWindow.obj
 0002:000084b0       ??_R1A@?0A@EA@_MyAction@?1??Java_com_sun_glass_ui_win_WinWindow__1setMinimumSize@@YAEPEAUJNIEnv_@@PEAV_jobject@@_JJJ@Z@8 000000018002f4b0     GlassWindow.obj
 0002:000084d8       ??_R4_MyAction@?1??Java_com_sun_glass_ui_win_WinWindow__1setMaximumSize@@YAEPEAUJNIEnv_@@PEAV_jobject@@_JJJ@Z@6B@ 000000018002f4d8     GlassWindow.obj
 0002:00008500       ??_R3_MyAction@?1??Java_com_sun_glass_ui_win_WinWindow__1setMaximumSize@@YAEPEAUJNIEnv_@@PEAV_jobject@@_JJJ@Z@8 000000018002f500     GlassWindow.obj
 0002:00008518       ??_R2_MyAction@?1??Java_com_sun_glass_ui_win_WinWindow__1setMaximumSize@@YAEPEAUJNIEnv_@@PEAV_jobject@@_JJJ@Z@8 000000018002f518     GlassWindow.obj
 0002:00008530       ??_R1A@?0A@EA@_MyAction@?1??Java_com_sun_glass_ui_win_WinWindow__1setMaximumSize@@YAEPEAUJNIEnv_@@PEAV_jobject@@_JJJ@Z@8 000000018002f530     GlassWindow.obj
 0002:00008558       ??_R4_MyAction@?1??Java_com_sun_glass_ui_win_WinWindow__1toFront@@YAXPEAUJNIEnv_@@PEAV_jobject@@_J@Z@6B@ 000000018002f558     GlassWindow.obj
 0002:00008580       ??_R3_MyAction@?1??Java_com_sun_glass_ui_win_WinWindow__1toFront@@YAXPEAUJNIEnv_@@PEAV_jobject@@_J@Z@8 000000018002f580     GlassWindow.obj
 0002:00008598       ??_R2_MyAction@?1??Java_com_sun_glass_ui_win_WinWindow__1toFront@@YAXPEAUJNIEnv_@@PEAV_jobject@@_J@Z@8 000000018002f598     GlassWindow.obj
 0002:000085b0       ??_R1A@?0A@EA@_MyAction@?1??Java_com_sun_glass_ui_win_WinWindow__1toFront@@YAXPEAUJNIEnv_@@PEAV_jobject@@_J@Z@8 000000018002f5b0     GlassWindow.obj
 0002:000085d8       ??_R4_MyAction@?1??Java_com_sun_glass_ui_win_WinWindow__1toBack@@YAXPEAUJNIEnv_@@PEAV_jobject@@_J@Z@6B@ 000000018002f5d8     GlassWindow.obj
 0002:00008600       ??_R3_MyAction@?1??Java_com_sun_glass_ui_win_WinWindow__1toBack@@YAXPEAUJNIEnv_@@PEAV_jobject@@_J@Z@8 000000018002f600     GlassWindow.obj
 0002:00008618       ??_R2_MyAction@?1??Java_com_sun_glass_ui_win_WinWindow__1toBack@@YAXPEAUJNIEnv_@@PEAV_jobject@@_J@Z@8 000000018002f618     GlassWindow.obj
 0002:00008630       ??_R1A@?0A@EA@_MyAction@?1??Java_com_sun_glass_ui_win_WinWindow__1toBack@@YAXPEAUJNIEnv_@@PEAV_jobject@@_J@Z@8 000000018002f630     GlassWindow.obj
 0002:00008658       ??_R4_MyAction@?1??Java_com_sun_glass_ui_win_WinWindow__1getEmbeddedX@@YAJPEAUJNIEnv_@@PEAV_jobject@@_J@Z@6B@ 000000018002f658     GlassWindow.obj
 0002:00008680       ??_R3_MyAction@?1??Java_com_sun_glass_ui_win_WinWindow__1getEmbeddedX@@YAJPEAUJNIEnv_@@PEAV_jobject@@_J@Z@8 000000018002f680     GlassWindow.obj
 0002:00008698       ??_R2_MyAction@?1??Java_com_sun_glass_ui_win_WinWindow__1getEmbeddedX@@YAJPEAUJNIEnv_@@PEAV_jobject@@_J@Z@8 000000018002f698     GlassWindow.obj
 0002:000086b0       ??_R1A@?0A@EA@_MyAction@?1??Java_com_sun_glass_ui_win_WinWindow__1getEmbeddedX@@YAJPEAUJNIEnv_@@PEAV_jobject@@_J@Z@8 000000018002f6b0     GlassWindow.obj
 0002:000086d8       ??_R4_MyAction@?1??Java_com_sun_glass_ui_win_WinWindow__1getEmbeddedY@@YAJPEAUJNIEnv_@@PEAV_jobject@@_J@Z@6B@ 000000018002f6d8     GlassWindow.obj
 0002:00008700       ??_R3_MyAction@?1??Java_com_sun_glass_ui_win_WinWindow__1getEmbeddedY@@YAJPEAUJNIEnv_@@PEAV_jobject@@_J@Z@8 000000018002f700     GlassWindow.obj
 0002:00008718       ??_R2_MyAction@?1??Java_com_sun_glass_ui_win_WinWindow__1getEmbeddedY@@YAJPEAUJNIEnv_@@PEAV_jobject@@_J@Z@8 000000018002f718     GlassWindow.obj
 0002:00008730       ??_R1A@?0A@EA@_MyAction@?1??Java_com_sun_glass_ui_win_WinWindow__1getEmbeddedY@@YAJPEAUJNIEnv_@@PEAV_jobject@@_J@Z@8 000000018002f730     GlassWindow.obj
 0002:00008758       ??_R4_MyAction@?1??Java_com_sun_glass_ui_win_WinWindow__1setCursor@@YAXPEAUJNIEnv_@@PEAV_jobject@@_J1@Z@6B@ 000000018002f758     GlassWindow.obj
 0002:00008780       ??_R3_MyAction@?1??Java_com_sun_glass_ui_win_WinWindow__1setCursor@@YAXPEAUJNIEnv_@@PEAV_jobject@@_J1@Z@8 000000018002f780     GlassWindow.obj
 0002:00008798       ??_R2_MyAction@?1??Java_com_sun_glass_ui_win_WinWindow__1setCursor@@YAXPEAUJNIEnv_@@PEAV_jobject@@_J1@Z@8 000000018002f798     GlassWindow.obj
 0002:000087b0       ??_R1A@?0A@EA@_MyAction@?1??Java_com_sun_glass_ui_win_WinWindow__1setCursor@@YAXPEAUJNIEnv_@@PEAV_jobject@@_J1@Z@8 000000018002f7b0     GlassWindow.obj
 0002:000091e0       $unwind$printf             00000001800301e0     ViewContainer.obj
 0002:000091e0       $unwind$wprintf_s          00000001800301e0     BaseWnd.obj
 0002:000091ec       $unwind$swprintf_s         00000001800301ec     BaseWnd.obj
 0002:000091fc       $unwind$??1BaseWnd@@UEAA@XZ 00000001800301fc     BaseWnd.obj
 0002:00009210       $ip2state$??1BaseWnd@@UEAA@XZ 0000000180030210     BaseWnd.obj
 0002:00009218       $unwind$?Create@BaseWnd@@QEAAPEAUHWND__@@PEAU2@HHHHPEB_WKKPEAUHBRUSH__@@@Z 0000000180030218     BaseWnd.obj
 0002:00009238       $unwind$?GetDefaultWindowBounds@BaseWnd@@SAHPEAUtagRECT@@@Z 0000000180030238     BaseWnd.obj
 0002:00009250       $unwind$?callArrayMethod@GlassAccessible@@EEAAJPEAU_jmethodID@@GPEAPEAUtagSAFEARRAY@@@Z 0000000180030250     GlassAccessible.obj
 0002:00009250       $unwind$?erase@?$_Hash@V?$_Hset_traits@V_bstr_t@@V?$hash_compare@V_bstr_t@@U?$less@V_bstr_t@@@std@@@stdext@@V?$allocator@V_bstr_t@@@std@@$0A@@stdext@@@std@@QEAA?AV?$_List_const_iterator@V?$_List_val@U?$_List_simple_types@V_bstr_t@@@std@@@std@@@2@V32@@Z 0000000180030250     GlassClipboard.obj
 0002:00009250       $unwind$?StaticWindowProc@BaseWnd@@CA_JPEAUHWND__@@I_K_J@Z 0000000180030250     BaseWnd.obj
 0002:00009250       $unwind$??$erase@V?$_List_iterator@V?$_List_val@U?$_List_simple_types@U?$pair@$$CBV_bstr_t@@G@std@@@std@@@std@@@std@@X@?$_Hash@V?$_Hmap_traits@V_bstr_t@@GV?$hash_compare@V_bstr_t@@U?$less@V_bstr_t@@@std@@@stdext@@V?$allocator@U?$pair@$$CBV_bstr_t@@G@std@@@std@@$0A@@stdext@@@std@@QEAA?AV?$_List_iterator@V?$_List_val@U?$_List_simple_types@U?$pair@$$CBV_bstr_t@@G@std@@@std@@@std@@@1@V21@@Z 0000000180030250     GlassClipboard.obj
 0002:00009250       $unwind$??$erase@V?$_List_iterator@V?$_List_val@U?$_List_simple_types@U?$pair@$$CBUtagFORMATETC@@V_bstr_t@@@std@@@std@@@std@@@std@@X@?$_Hash@V?$_Hmap_traits@UtagFORMATETC@@V_bstr_t@@V?$hash_compare@UtagFORMATETC@@U?$less@UtagFORMATETC@@@std@@@stdext@@V?$allocator@U?$pair@$$CBUtagFORMATETC@@V_bstr_t@@@std@@@std@@$0A@@stdext@@@std@@QEAA?AV?$_List_iterator@V?$_List_val@U?$_List_simple_types@U?$pair@$$CBUtagFORMATETC@@V_bstr_t@@@std@@@std@@@std@@@1@V21@@Z 0000000180030250     GlassClipboard.obj
 0002:00009250       $unwind$?copyString@GlassAccessible@@SAJPEAUJNIEnv_@@PEAV_jstring@@PEAPEA_W@Z 0000000180030250     GlassAccessible.obj
 0002:00009250       $unwind$?setLimit@DNTString@@QEAAX_K_N@Z 0000000180030250     CommonDialogs_Standard.obj
 0002:00009268       $unwind$??_G_MyAction@?1??Java_com_sun_glass_ui_win_WinWindow__1getEmbeddedY@@YAJPEAUJNIEnv_@@PEAV_jobject@@_J@Z@UEAAPEAXI@Z 0000000180030268     GlassWindow.obj
 0002:00009268       $unwind$??__FbsContentHeader@?P@??GetData@ClipboardData@@UEAAJPEAUtagFORMATETC@@PEAUtagSTGMEDIUM@@@Z@YAXXZ 0000000180030268     GlassClipboard.obj
 0002:00009268       $unwind$__raise_securityfailure 0000000180030268     MSVCRT:gs_report.obj
 0002:00009268       $unwind$??1DNTString@@QEAA@XZ 0000000180030268     CommonDialogs_Standard.obj
 0002:00009268       $unwind$??_G_MyAction@?1??Java_com_sun_glass_ui_win_WinWindow__1setBackground@@YAEPEAUJNIEnv_@@PEAV_jobject@@_JMMM@Z@UEAAPEAXI@Z 0000000180030268     GlassWindow.obj
 0002:00009268       $unwind$??0bad_array_new_length@std@@QEAA@AEBV01@@Z 0000000180030268     MSVCRT:throw_bad_alloc.obj
 0002:00009268       $unwind$?Do@_MyAction@?1??Java_com_sun_glass_ui_win_WinWindow__1setBackground@@YAEPEAUJNIEnv_@@PEAV_jobject@@_JMMM@Z@UEAAXXZ 0000000180030268     GlassWindow.obj
 0002:00009268       $unwind$?calculateSubstrings@DNTString@@AEAAXXZ 0000000180030268     CommonDialogs_Standard.obj
 0002:00009268       $unwind$??_G_MyAction@?1??Java_com_sun_glass_ui_win_WinWindow__1setAlpha@@YAXPEAUJNIEnv_@@PEAV_jobject@@_JM@Z@UEAAPEAXI@Z 0000000180030268     GlassWindow.obj
 0002:00009268       $unwind$?DloadAcquireSectionWriteAccess@@YAXXZ 0000000180030268     delayimp:delayhlp.obj
 0002:00009268       $unwind$?get_ContainingGrid@GlassAccessible@@UEAAJPEAPEAUIRawElementProviderSimple@@@Z 0000000180030268     GlassAccessible.obj
 0002:00009268       $unwind$?Do@_MyAction@?1??Java_com_sun_glass_ui_win_WinSystemClipboard_isOwner@@YAEPEAUJNIEnv_@@PEAV_jobject@@@Z@UEAAXXZ 0000000180030268     GlassClipboard.obj
 0002:00009268       $unwind$??_G_MyAction@?1??Java_com_sun_glass_ui_win_WinWindow__1setEnabled@@YAXPEAUJNIEnv_@@PEAV_jobject@@_JE@Z@UEAAPEAXI@Z 0000000180030268     GlassWindow.obj
 0002:00009268       $unwind$??_G_MyAction@?1??Java_com_sun_glass_ui_win_WinSystemClipboard_isOwner@@YAEPEAUJNIEnv_@@PEAV_jobject@@@Z@UEAAPEAXI@Z 0000000180030268     GlassClipboard.obj
 0002:00009268       $unwind$??_G_MyAction@?1??Java_com_sun_glass_ui_win_WinSystemClipboard_dispose@@YAXPEAUJNIEnv_@@PEAV_jobject@@@Z@UEAAPEAXI@Z 0000000180030268     GlassClipboard.obj
 0002:00009268       $unwind$??_G_MyAction@?1??Java_com_sun_glass_ui_win_WinDnDClipboard_dispose@@YAXPEAUJNIEnv_@@PEAV_jobject@@@Z@UEAAPEAXI@Z 0000000180030268     GlassClipboard.obj
 0002:00009268       $unwind$??_G_MyAction@?1??Java_com_sun_glass_ui_win_WinWindow__1setFocusable@@YAXPEAUJNIEnv_@@PEAV_jobject@@_JE@Z@UEAAPEAXI@Z 0000000180030268     GlassWindow.obj
 0002:00009268       $unwind$??_G_MyAction@?1??Java_com_sun_glass_ui_win_WinSystemClipboard_popMimesFromSystem@@YAPEAV_jobjectArray@@PEAUJNIEnv_@@PEAV_jobject@@@Z@UEAAPEAXI@Z 0000000180030268     GlassClipboard.obj
 0002:00009268       $unwind$??0exception@std@@QEAA@AEBV01@@Z 0000000180030268     MSVCRT:throw_bad_alloc.obj
 0002:00009268       $unwind$Java_com_sun_glass_ui_win_WinPixels__1attachInt 0000000180030268     Pixels.obj
 0002:00009268       $unwind$??_G_MyAction@?1??Java_com_sun_glass_ui_win_WinWindow__1setLevel@@YAXPEAUJNIEnv_@@PEAV_jobject@@_JJ@Z@UEAAPEAXI@Z 0000000180030268     GlassWindow.obj
 0002:00009268       $unwind$??_G?$IUnknownImpl@UIEnumFORMATETC@@@@UEAAPEAXI@Z 0000000180030268     GlassClipboard.obj
 0002:00009268       $unwind$??_G_MyAction@?1??Java_com_sun_glass_ui_win_WinWindow__1setResizable@@YAEPEAUJNIEnv_@@PEAV_jobject@@_JE@Z@UEAAPEAXI@Z 0000000180030268     GlassWindow.obj
 0002:00009268       $unwind$??1?$vector@V?$_List_unchecked_iterator@V?$_List_val@U?$_List_simple_types@U?$pair@$$CBUtagFORMATETC@@V_bstr_t@@@std@@@std@@@std@@@std@@V?$allocator@V?$_List_unchecked_iterator@V?$_List_val@U?$_List_simple_types@U?$pair@$$CBUtagFORMATETC@@V_bstr_t@@@std@@@std@@@std@@@std@@@2@@std@@QEAA@XZ 0000000180030268     GlassClipboard.obj
 0002:00009268       $unwind$??_G_MyAction@?1??Java_com_sun_glass_ui_win_WinWindow__1setMenubar@@YAEPEAUJNIEnv_@@PEAV_jobject@@_J2@Z@UEAAPEAXI@Z 0000000180030268     GlassWindow.obj
 0002:00009268       $unwind$??_G_MyAction@?1??Java_com_sun_glass_ui_win_WinWindow__1getEmbeddedX@@YAJPEAUJNIEnv_@@PEAV_jobject@@_J@Z@UEAAPEAXI@Z 0000000180030268     GlassWindow.obj
 0002:00009268       $unwind$?Do@_MyAction@?1??Java_com_sun_glass_ui_win_WinWindow__1setMenubar@@YAEPEAUJNIEnv_@@PEAV_jobject@@_J2@Z@UEAAXXZ 0000000180030268     GlassWindow.obj
 0002:00009268       $unwind$?_Destroy_if_node@?$_Hash@V?$_Hmap_traits@UtagFORMATETC@@V_bstr_t@@V?$hash_compare@UtagFORMATETC@@U?$less@UtagFORMATETC@@@std@@@stdext@@V?$allocator@U?$pair@$$CBUtagFORMATETC@@V_bstr_t@@@std@@@std@@$0A@@stdext@@@std@@IEAAXV?$_List_unchecked_iterator@V?$_List_val@U?$_List_simple_types@U?$pair@$$CBUtagFORMATETC@@V_bstr_t@@@std@@@std@@@std@@@2@@Z 0000000180030268     GlassClipboard.obj
 0002:00009268       $unwind$??_G_MyAction@?1??Java_com_sun_glass_ui_win_WinWindow__1setView@@YAEPEAUJNIEnv_@@PEAV_jobject@@_J1@Z@UEAAPEAXI@Z 0000000180030268     GlassWindow.obj
 0002:00009268       $unwind$??_G_MyAction@?1??Java_com_sun_glass_ui_win_WinWindow__1setVisible@@YAEPEAUJNIEnv_@@PEAV_jobject@@_JE@Z@UEAAPEAXI@Z 0000000180030268     GlassWindow.obj
 0002:00009268       $unwind$??_G_MyAction@?1??Java_com_sun_glass_ui_win_WinWindow__1setBounds@@YAXPEAUJNIEnv_@@PEAV_jobject@@_JJJEEJJJJMM@Z@UEAAPEAXI@Z 0000000180030268     GlassWindow.obj
 0002:00009268       $unwind$?Do@_MyAction@?1??Java_com_sun_glass_ui_win_WinWindow__1requestFocus@@YAEPEAUJNIEnv_@@PEAV_jobject@@_JJ@Z@UEAAXXZ 0000000180030268     GlassWindow.obj
 0002:00009268       $unwind$??_G_MyAction@?1??Java_com_sun_glass_ui_win_WinWindow__1close@@YAEPEAUJNIEnv_@@PEAV_jobject@@_J@Z@UEAAPEAXI@Z 0000000180030268     GlassWindow.obj
 0002:00009268       $unwind$?Release@?$IUnknownImpl@U_IManipulationEvents@@@@UEAAKXZ 0000000180030268     ManipulationEvents.obj
 0002:00009268       $unwind$??_GManipulationEventSink@@UEAAPEAXI@Z 0000000180030268     ManipulationEvents.obj
 0002:00009268       $unwind$??_G_MyAction@?1??Java_com_sun_glass_ui_win_WinWindow__1requestFocus@@YAEPEAUJNIEnv_@@PEAV_jobject@@_JJ@Z@UEAAPEAXI@Z 0000000180030268     GlassWindow.obj
 0002:00009268       $unwind$??_G_MyAction@?1??Java_com_sun_glass_ui_win_WinWindow__1setMaximumSize@@YAEPEAUJNIEnv_@@PEAV_jobject@@_JJJ@Z@UEAAPEAXI@Z 0000000180030268     GlassWindow.obj
 0002:00009268       $unwind$Java_com_sun_glass_ui_win_WinPixels__1attachByte 0000000180030268     Pixels.obj
 0002:00009268       $unwind$?Do@_MyAction@?1??Java_com_sun_glass_ui_win_WinApplication__1submitForLaterInvocation@@YAXPEAUJNIEnv_@@PEAV_jobject@@1@Z@UEAAXXZ 0000000180030268     GlassApplication.obj
 0002:00009268       $unwind$?Release@?$IUnknownImpl@UIEnumFORMATETC@@@@UEAAKXZ 0000000180030268     GlassClipboard.obj
 0002:00009268       $unwind$?Do@_MyAction@?1??Java_com_sun_glass_ui_win_WinWindow__1setMinimumSize@@YAEPEAUJNIEnv_@@PEAV_jobject@@_JJJ@Z@UEAAXXZ 0000000180030268     GlassWindow.obj
 0002:00009268       $unwind$??_G_MyAction@?1??Java_com_sun_glass_ui_win_WinWindow__1setTitle@@YAEPEAUJNIEnv_@@PEAV_jobject@@_JPEAV_jstring@@@Z@UEAAPEAXI@Z 0000000180030268     GlassWindow.obj
 0002:00009268       $unwind$?Do@_MyAction@?1??Java_com_sun_glass_ui_win_WinWindow__1setMaximumSize@@YAEPEAUJNIEnv_@@PEAV_jobject@@_JJJ@Z@UEAAXXZ 0000000180030268     GlassWindow.obj
 0002:00009268       $unwind$??_G?$IUnknownImpl@UIDataObject@@@@UEAAPEAXI@Z 0000000180030268     GlassClipboard.obj
 0002:00009268       $unwind$??_G_MyAction@?1??Java_com_sun_glass_ui_win_WinWindow__1grabFocus@@YAEPEAUJNIEnv_@@PEAV_jobject@@_J@Z@UEAAPEAXI@Z 0000000180030268     GlassWindow.obj
 0002:00009268       $unwind$??_G_MyAction@?1??Java_com_sun_glass_ui_win_WinWindow__1toBack@@YAXPEAUJNIEnv_@@PEAV_jobject@@_J@Z@UEAAPEAXI@Z 0000000180030268     GlassWindow.obj
 0002:00009268       $unwind$??_G_MyAction@?1??Java_com_sun_glass_ui_win_WinView__1exitFullscreen@@YAXPEAUJNIEnv_@@PEAV_jobject@@_JE@Z@UEAAPEAXI@Z 0000000180030268     GlassView.obj
 0002:00009268       $unwind$?GetPatternProvider@GlassAccessible@@UEAAJHPEAPEAUIUnknown@@@Z 0000000180030268     GlassAccessible.obj
 0002:00009268       $unwind$??0bad_alloc@std@@QEAA@AEBV01@@Z 0000000180030268     MSVCRT:throw_bad_alloc.obj
 0002:00009268       $unwind$??_G_MyAction@?1??Java_com_sun_glass_ui_win_WinSystemClipboard_popSupportedSourceActions@@YAJPEAUJNIEnv_@@PEAV_jobject@@@Z@UEAAPEAXI@Z 0000000180030268     GlassClipboard.obj
 0002:00009268       $unwind$Java_com_sun_glass_ui_win_WinCursor__1setVisible 0000000180030268     GlassCursor.obj
 0002:00009268       $unwind$_Init_thread_wait  0000000180030268     MSVCRT:thread_safe_statics.obj
 0002:00009268       $unwind$?ReleaseDropTarget@ViewContainer@@IEAAXXZ 0000000180030268     ViewContainer.obj
 0002:00009268       $unwind$??_G_MyAction@?1??Java_com_sun_glass_ui_win_WinSystemClipboard_pushTargetActionToSystem@@YAXPEAUJNIEnv_@@PEAV_jobject@@J@Z@UEAAPEAXI@Z 0000000180030268     GlassClipboard.obj
 0002:00009268       $unwind$?HandleViewInputLangChange@ViewContainer@@IEAAXPEAUHWND__@@I_K_J@Z 0000000180030268     ViewContainer.obj
 0002:00009268       $unwind$??__Fempty@?1??getString@BinaryChunk@@QEAA?AV_bstr_t@@XZ@YAXXZ 0000000180030268     GlassClipboard.obj
 0002:00009268       $unwind$??__FbsAcessType@?CN@??_UserDo@_MyAction@?1??Java_com_sun_glass_ui_win_WinSystemClipboard_popMimesFromSystem@@YAPEAV_jobjectArray@@PEAUJNIEnv_@@PEAV_jobject@@@Z@QEAAPEAV3@XZ@YAXXZ 0000000180030268     GlassClipboard.obj
 0002:00009268       $unwind$??1?$_Hash@V?$_Hset_traits@V_bstr_t@@V?$hash_compare@V_bstr_t@@U?$less@V_bstr_t@@@std@@@stdext@@V?$allocator@V_bstr_t@@@std@@$0A@@stdext@@@std@@QEAA@XZ 0000000180030268     GlassClipboard.obj
 0002:00009268       $unwind$?get_SelectionContainer@GlassAccessible@@UEAAJPEAPEAUIRawElementProviderSimple@@@Z 0000000180030268     GlassAccessible.obj
 0002:00009268       $unwind$??_G_MyAction@?1??Java_com_sun_glass_ui_win_WinView__1close@@YAEPEAUJNIEnv_@@PEAV_jobject@@_J@Z@UEAAPEAXI@Z 0000000180030268     GlassView.obj
 0002:00009268       $unwind$?Do@_MyAction@?1??Java_com_sun_glass_ui_win_WinWindow__1createWindow@@YA_JPEAUJNIEnv_@@PEAV_jobject@@_J2J@Z@UEAAXXZ 0000000180030268     GlassWindow.obj
 0002:00009268       $unwind$??1?$vector@UtagTOUCHINPUT@@V?$allocator@UtagTOUCHINPUT@@@std@@@std@@QEAA@XZ 0000000180030268     FullScreenWindow.obj
 0002:00009268       $unwind$_Init_thread_footer 0000000180030268     MSVCRT:thread_safe_statics.obj
 0002:00009268       $unwind$??1ViewContainer@@QEAA@XZ 0000000180030268     FullScreenWindow.obj
 0002:00009268       $unwind$??1?$vector@V?$_List_unchecked_const_iterator@V?$_List_val@U?$_List_simple_types@V_bstr_t@@@std@@@std@@U_Iterator_base0@2@@std@@V?$allocator@V?$_List_unchecked_const_iterator@V?$_List_val@U?$_List_simple_types@V_bstr_t@@@std@@@std@@U_Iterator_base0@2@@std@@@2@@std@@QEAA@XZ 0000000180030268     GlassClipboard.obj
 0002:00009268       $unwind$?Do@_MyAction@?1??Java_com_sun_glass_ui_win_WinSystemClipboard_popBytes@@YAPEAV_jbyteArray@@PEAUJNIEnv_@@PEAV_jobject@@PEAV_jstring@@_J@Z@UEAAXXZ 0000000180030268     GlassClipboard.obj
 0002:00009268       $unwind$?_Destroy_if_node@?$_Hash@V?$_Hset_traits@V_bstr_t@@V?$hash_compare@V_bstr_t@@U?$less@V_bstr_t@@@std@@@stdext@@V?$allocator@V_bstr_t@@@std@@$0A@@stdext@@@std@@IEAAXV?$_List_unchecked_const_iterator@V?$_List_val@U?$_List_simple_types@V_bstr_t@@@std@@@std@@U_Iterator_base0@2@@2@@Z 0000000180030268     GlassClipboard.obj
 0002:00009268       $unwind$?Release@?$IUnknownImpl@UIDropTarget@@@@UEAAKXZ 0000000180030268     GlassDnD.obj
 0002:00009268       $unwind$JNI_OnLoad         0000000180030268     Utils.obj
 0002:00009268       $unwind$??_G?$IUnknownImpl@UIDropTarget@@@@UEAAPEAXI@Z 0000000180030268     GlassDnD.obj
 0002:00009268       $unwind$_Init_thread_abort 0000000180030268     MSVCRT:thread_safe_statics.obj
 0002:00009268       $unwind$??_G_MyAction@?1??Java_com_sun_glass_ui_win_WinView__1getX@@YAJPEAUJNIEnv_@@PEAV_jobject@@_J@Z@UEAAPEAXI@Z 0000000180030268     GlassView.obj
 0002:00009268       $unwind$??_G_MyAction@?4???1BaseWnd@@UEAA@XZ@UEAAPEAXI@Z 0000000180030268     BaseWnd.obj
 0002:00009268       $unwind$?Do@_MyAction@?4???1BaseWnd@@UEAA@XZ@UEAAXXZ 0000000180030268     BaseWnd.obj
 0002:00009268       $unwind$Java_com_sun_glass_ui_win_WinView__1finishInputMethodComposition 0000000180030268     GlassView.obj
 0002:00009268       $unwind$??_GAction@@UEAAPEAXI@Z 0000000180030268     BaseWnd.obj
 0002:00009268       $unwind$?Do@_MyAction@?1??Java_com_sun_glass_ui_win_WinApplication__1invokeAndWait@@YAXPEAUJNIEnv_@@PEAV_jobject@@1@Z@UEAAXXZ 0000000180030268     GlassApplication.obj
 0002:00009268       $unwind$??_G_MyAction@?1??Java_com_sun_glass_ui_win_WinWindow__1minimize@@YAEPEAUJNIEnv_@@PEAV_jobject@@_JE@Z@UEAAPEAXI@Z 0000000180030268     GlassWindow.obj
 0002:00009268       $unwind$?Do@_MyAction@?1??Java_com_sun_glass_ui_win_WinView__1exitFullscreen@@YAXPEAUJNIEnv_@@PEAV_jobject@@_JE@Z@UEAAXXZ 0000000180030268     GlassView.obj
 0002:00009268       $unwind$??_G?$IUnknownImpl@U_IManipulationEvents@@@@UEAAPEAXI@Z 0000000180030268     ManipulationEvents.obj
 0002:00009268       $unwind$?Do@_MyAction@?1??Java_com_sun_glass_ui_win_WinSystemClipboard_popMimesFromSystem@@YAPEAV_jobjectArray@@PEAUJNIEnv_@@PEAV_jobject@@@Z@UEAAXXZ 0000000180030268     GlassClipboard.obj
 0002:00009268       $unwind$?CommonWindowProc@BaseWnd@@MEAA?AUMessageResult@@I_K_J@Z 0000000180030268     BaseWnd.obj
 0002:00009268       $unwind$_Init_thread_header 0000000180030268     MSVCRT:thread_safe_statics.obj
 0002:00009268       $unwind$??_G_MyAction@?1??Java_com_sun_glass_ui_win_WinView__1enterFullscreen@@YAEPEAUJNIEnv_@@PEAV_jobject@@_JEEE@Z@UEAAPEAXI@Z 0000000180030268     GlassView.obj
 0002:00009268       $unwind$?Do@_MyAction@?1??Java_com_sun_glass_ui_win_WinWindow__1setTitle@@YAEPEAUJNIEnv_@@PEAV_jobject@@_JPEAV_jstring@@@Z@UEAAXXZ 0000000180030268     GlassWindow.obj
 0002:00009268       $unwind$??_G_MyAction@?1??Java_com_sun_glass_ui_win_WinView__1setParent@@YAXPEAUJNIEnv_@@PEAV_jobject@@_J2@Z@UEAAPEAXI@Z 0000000180030268     GlassView.obj
 0002:00009268       $unwind$Java_com_sun_glass_ui_win_WinApplication__1terminateLoop 0000000180030268     GlassApplication.obj
 0002:00009268       $unwind$?Release@?$IUnknownImpl@UIDropSource@@@@UEAAKXZ 0000000180030268     GlassDnD.obj
 0002:00009268       $unwind$??_G?$IUnknownImpl@UIDropSource@@@@UEAAPEAXI@Z 0000000180030268     GlassDnD.obj
 0002:00009268       $unwind$??1?$_Hash@V?$_Hmap_traits@UtagFORMATETC@@UtagSTGMEDIUM@@V?$hash_compare@UtagFORMATETC@@U?$less@UtagFORMATETC@@@std@@@stdext@@V?$allocator@U?$pair@$$CBUtagFORMATETC@@UtagSTGMEDIUM@@@std@@@std@@$0A@@stdext@@@std@@QEAA@XZ 0000000180030268     GlassClipboard.obj
 0002:00009268       $unwind$??_G_MyAction@?1??Java_com_sun_glass_ui_win_WinWindow__1maximize@@YAEPEAUJNIEnv_@@PEAV_jobject@@_JEE@Z@UEAAPEAXI@Z 0000000180030268     GlassWindow.obj
 0002:00009268       $unwind$??_GGlassDropSource@@UEAAPEAXI@Z 0000000180030268     GlassDnD.obj
 0002:00009268       $unwind$??1?$vector@V?$_List_unchecked_iterator@V?$_List_val@U?$_List_simple_types@U?$pair@$$CBGV_bstr_t@@@std@@@std@@@std@@@std@@V?$allocator@V?$_List_unchecked_iterator@V?$_List_val@U?$_List_simple_types@U?$pair@$$CBGV_bstr_t@@@std@@@std@@@std@@@std@@@2@@std@@QEAA@XZ 0000000180030268     GlassClipboard.obj
 0002:00009268       $unwind$?_Destroy_if_node@?$_Hash@V?$_Hmap_traits@GV_bstr_t@@V?$hash_compare@GU?$less@G@std@@@stdext@@V?$allocator@U?$pair@$$CBGV_bstr_t@@@std@@@std@@$0A@@stdext@@@std@@IEAAXV?$_List_unchecked_iterator@V?$_List_val@U?$_List_simple_types@U?$pair@$$CBGV_bstr_t@@@std@@@std@@@std@@@2@@Z 0000000180030268     GlassClipboard.obj
 0002:00009268       $unwind$__scrt_uninitialize_crt 0000000180030268     MSVCRT:utility.obj
 0002:00009268       $unwind$??_G_MyAction@?1??Java_com_sun_glass_ui_win_WinView__1getY@@YAJPEAUJNIEnv_@@PEAV_jobject@@_J@Z@UEAAPEAXI@Z 0000000180030268     GlassView.obj
 0002:00009268       $unwind$?Release@GlassAccessible@@UEAAKXZ 0000000180030268     GlassAccessible.obj
 0002:00009268       $unwind$__scrt_initialize_crt 0000000180030268     MSVCRT:utility.obj
 0002:00009268       $unwind$??1?$vector@V?$_List_unchecked_iterator@V?$_List_val@U?$_List_simple_types@U?$pair@$$CBUtagFORMATETC@@UtagSTGMEDIUM@@@std@@@std@@@std@@@std@@V?$allocator@V?$_List_unchecked_iterator@V?$_List_val@U?$_List_simple_types@U?$pair@$$CBUtagFORMATETC@@UtagSTGMEDIUM@@@std@@@std@@@std@@@std@@@2@@std@@QEAA@XZ 0000000180030268     GlassClipboard.obj
 0002:00009268       $unwind$??1?$vector@V?$_List_unchecked_iterator@V?$_List_val@U?$_List_simple_types@U?$pair@$$CBV_bstr_t@@G@std@@@std@@@std@@@std@@V?$allocator@V?$_List_unchecked_iterator@V?$_List_val@U?$_List_simple_types@U?$pair@$$CBV_bstr_t@@G@std@@@std@@@std@@@std@@@2@@std@@QEAA@XZ 0000000180030268     GlassClipboard.obj
 0002:00009268       $unwind$?Release@?$IUnknownImpl@UIDataObject@@@@UEAAKXZ 0000000180030268     GlassClipboard.obj
 0002:00009268       $unwind$__scrt_release_startup_lock 0000000180030268     MSVCRT:utility.obj
 0002:00009268       $unwind$?_Destroy_if_node@?$_Hash@V?$_Hmap_traits@V_bstr_t@@GV?$hash_compare@V_bstr_t@@U?$less@V_bstr_t@@@std@@@stdext@@V?$allocator@U?$pair@$$CBV_bstr_t@@G@std@@@std@@$0A@@stdext@@@std@@IEAAXV?$_List_unchecked_iterator@V?$_List_val@U?$_List_simple_types@U?$pair@$$CBV_bstr_t@@G@std@@@std@@@std@@@2@@Z 0000000180030268     GlassClipboard.obj
 0002:00009268       $unwind$_onexit            0000000180030268     MSVCRT:utility.obj
 0002:00009268       $unwind$?Release@GlassTextRangeProvider@@UEAAKXZ 0000000180030268     GlassTextRangeProvider.obj
 0002:00009268       $unwind$??1?$_Hash@V?$_Hmap_traits@UtagFORMATETC@@V_bstr_t@@V?$hash_compare@UtagFORMATETC@@U?$less@UtagFORMATETC@@@std@@@stdext@@V?$allocator@U?$pair@$$CBUtagFORMATETC@@V_bstr_t@@@std@@@std@@$0A@@stdext@@@std@@QEAA@XZ 0000000180030268     GlassClipboard.obj
 0002:00009268       $unwind$??1?$list@V_bstr_t@@V?$allocator@V_bstr_t@@@std@@@std@@QEAA@XZ 0000000180030268     GlassClipboard.obj
 0002:00009268       $unwind$??_Gtype_info@@UEAAPEAXI@Z 0000000180030268     MSVCRT:std_type_info_static.obj
 0002:00009268       $unwind$??_G_MyAction@?1??Java_com_sun_glass_ui_win_WinWindow__1ungrabFocus@@YAXPEAUJNIEnv_@@PEAV_jobject@@_J@Z@UEAAPEAXI@Z 0000000180030268     GlassWindow.obj
 0002:00009268       $unwind$??2@YAPEAX_K@Z     0000000180030268     MSVCRT:new_scalar.obj
 0002:00009268       $unwind$??_G_MyAction@?1??Java_com_sun_glass_ui_win_WinWindow__1setMinimumSize@@YAEPEAUJNIEnv_@@PEAV_jobject@@_JJJ@Z@UEAAPEAXI@Z 0000000180030268     GlassWindow.obj
 0002:00009268       $unwind$??1_com_error@@UEAA@XZ 0000000180030268     comsuppw:comraise.obj
 0002:00009268       $unwind$??0_com_error@@QEAA@AEBV0@@Z 0000000180030268     comsuppw:comraise.obj
 0002:00009268       $unwind$??0_com_error@@QEAA@JPEAUIErrorInfo@@_N@Z 0000000180030268     comsuppw:comraise.obj
 0002:00009268       $unwind$??_G_MyAction@?1??Java_com_sun_glass_ui_win_WinWindow__1toFront@@YAXPEAUJNIEnv_@@PEAV_jobject@@_J@Z@UEAAPEAXI@Z 0000000180030268     GlassWindow.obj
 0002:00009268       $unwind$??_G_MyAction@?1??Java_com_sun_glass_ui_win_WinView__1scheduleRepaint@@YAXPEAUJNIEnv_@@PEAV_jobject@@_J@Z@UEAAPEAXI@Z 0000000180030268     GlassView.obj
 0002:00009270       $unwind$??_GBaseWnd@@UEAAPEAXI@Z 0000000180030270     BaseWnd.obj
 0002:00009284       $stateUnwindMap$??_G_MyAction@?1??Java_com_sun_glass_ui_win_WinView__1uploadPixels@@YAXPEAUJNIEnv_@@PEAV_jobject@@_J1@Z@UEAAPEAXI@Z 0000000180030284     GlassView.obj
 0002:00009284       $stateUnwindMap$??_GGlassView@@UEAAPEAXI@Z 0000000180030284     GlassView.obj
 0002:00009284       $stateUnwindMap$?RegisterClipboardViewer@GlassApplication@@QEAAXPEAV_jobject@@@Z 0000000180030284     GlassApplication.obj
 0002:00009284       $stateUnwindMap$??_GManipulationEventSinkWithInertia@@UEAAPEAXI@Z 0000000180030284     ViewContainer.obj
 0002:00009284       $stateUnwindMap$??__F?sm_nestedLoopReturnValue@GlassApplication@@0V?$JGlobalRef@PEAV_jobject@@@@A@@YAXXZ 0000000180030284     GlassApplication.obj
 0002:00009284       $stateUnwindMap$??_GGlassAccessible@@EEAAPEAXI@Z 0000000180030284     GlassAccessible.obj
 0002:00009284       $stateUnwindMap$??_GGlassTextRangeProvider@@EEAAPEAXI@Z 0000000180030284     GlassTextRangeProvider.obj
 0002:00009284       $stateUnwindMap$??_GBaseWnd@@UEAAPEAXI@Z 0000000180030284     BaseWnd.obj
 0002:00009284       $stateUnwindMap$Java_com_sun_glass_ui_win_WinSystemClipboard_create 0000000180030284     GlassClipboard.obj
 0002:00009284       $stateUnwindMap$Java_com_sun_glass_ui_win_WinSystemClipboard_push 0000000180030284     GlassClipboard.obj
 0002:00009284       $stateUnwindMap$Java_com_sun_glass_ui_win_WinWindow__1createChildWindow 0000000180030284     GlassWindow.obj
 0002:00009284       $stateUnwindMap$Java_com_sun_glass_ui_win_WinSystemClipboard_pop 0000000180030284     GlassClipboard.obj
 0002:00009284       $stateUnwindMap$??_G_MyAction@?1??Java_com_sun_glass_ui_win_WinApplication__1invokeAndWait@@YAXPEAUJNIEnv_@@PEAV_jobject@@1@Z@UEAAPEAXI@Z 0000000180030284     GlassApplication.obj
 0002:00009284       $stateUnwindMap$Java_com_sun_glass_ui_win_WinSystemClipboard_popBytes 0000000180030284     GlassClipboard.obj
 0002:00009284       $stateUnwindMap$??1?$JArray@C@@QEAA@XZ 0000000180030284     GlassView.obj
 0002:00009284       $stateUnwindMap$Java_com_sun_glass_ui_win_WinWindow__1createWindow 0000000180030284     GlassWindow.obj
 0002:00009284       $stateUnwindMap$??_G_MyAction@?1??Java_com_sun_glass_ui_win_WinApplication__1submitForLaterInvocation@@YAXPEAUJNIEnv_@@PEAV_jobject@@1@Z@UEAAPEAXI@Z 0000000180030284     GlassApplication.obj
 0002:00009284       $stateUnwindMap$??_G_MyAction@?1??Java_com_sun_glass_ui_win_WinSystemClipboard_popBytes@@YAPEAV_jbyteArray@@PEAUJNIEnv_@@PEAV_jobject@@PEAV_jstring@@_J@Z@UEAAPEAXI@Z 0000000180030284     GlassClipboard.obj
 0002:00009284       $stateUnwindMap$?erase@?$_Hash@V?$_Hset_traits@V_bstr_t@@V?$hash_compare@V_bstr_t@@U?$less@V_bstr_t@@@std@@@stdext@@V?$allocator@V_bstr_t@@@std@@$0A@@stdext@@@std@@QEAA_KAEBV_bstr_t@@@Z 0000000180030284     GlassClipboard.obj
 0002:00009284       $stateUnwindMap$??_G_MyAction@?1??Java_com_sun_glass_ui_win_WinSystemClipboard_pop@@YAEPEAUJNIEnv_@@PEAV_jobject@@@Z@UEAAPEAXI@Z 0000000180030284     GlassClipboard.obj
 0002:00009284       $stateUnwindMap$??1_MyAction@?1??Java_com_sun_glass_ui_win_WinSystemClipboard_push@@YAXPEAUJNIEnv_@@PEAV_jobject@@PEAV_jobjectArray@@J@Z@UEAA@XZ 0000000180030284     GlassClipboard.obj
 0002:00009284       $stateUnwindMap$?WindowProc@GlassApplication@@MEAA_JI_K_J@Z 0000000180030284     GlassApplication.obj
 0002:00009284       $stateUnwindMap$??_GGlassWindow@@UEAAPEAXI@Z 0000000180030284     GlassWindow.obj
 0002:00009284       $stateUnwindMap$??_G_MyAction@?1??Java_com_sun_glass_ui_win_WinSystemClipboard_create@@YAXPEAUJNIEnv_@@PEAV_jobject@@@Z@UEAAPEAXI@Z 0000000180030284     GlassClipboard.obj
 0002:00009284       $stateUnwindMap$Java_com_sun_glass_ui_win_WinDnDClipboard_push 0000000180030284     GlassClipboard.obj
 0002:00009284       $stateUnwindMap$??_G_MyAction@?1??Java_com_sun_glass_ui_win_WinWindow__1setCursor@@YAXPEAUJNIEnv_@@PEAV_jobject@@_J1@Z@UEAAPEAXI@Z 0000000180030284     GlassWindow.obj
 0002:00009284       $stateUnwindMap$??1_MyAction@?1??Java_com_sun_glass_ui_win_WinDnDClipboard_push@@YAXPEAUJNIEnv_@@PEAV_jobject@@PEAV_jobjectArray@@J@Z@UEAA@XZ 0000000180030284     GlassClipboard.obj
 0002:00009284       $stateUnwindMap$Java_com_sun_glass_ui_win_WinApplication__1invokeAndWait 0000000180030284     GlassApplication.obj
 0002:00009284       $stateUnwindMap$??_GClipboardData@@UEAAPEAXI@Z 0000000180030284     GlassClipboard.obj
 0002:00009284       $stateUnwindMap$??_GClipboardEnumFORMATETC@ClipboardData@@UEAAPEAXI@Z 0000000180030284     GlassClipboard.obj
 0002:00009284       $stateUnwindMap$Java_com_sun_glass_ui_win_WinView__1uploadPixels 0000000180030284     GlassView.obj
 0002:00009284       $stateUnwindMap$??1?$JArray@J@@QEAA@XZ 0000000180030284     GlassView.obj
 0002:00009284       $stateUnwindMap$??_GGlassDropTarget@@UEAAPEAXI@Z 0000000180030284     GlassDnD.obj
 0002:00009284       $stateUnwindMap$??_G_MyAction@?1??Java_com_sun_glass_ui_win_WinWindow__1createChildWindow@@YA_JPEAUJNIEnv_@@PEAV_jobject@@_J@Z@UEAAPEAXI@Z 0000000180030284     GlassWindow.obj
 0002:00009284       $stateUnwindMap$??_GGlassApplication@@UEAAPEAXI@Z 0000000180030284     GlassApplication.obj
 0002:00009284       $stateUnwindMap$Java_com_sun_glass_ui_win_WinWindow__1setCursor 0000000180030284     GlassWindow.obj
 0002:00009284       $stateUnwindMap$??_GRunnableTimer@@UEAAPEAXI@Z 0000000180030284     Timer.obj
 0002:00009284       $stateUnwindMap$?__scrt_initialize_thread_safe_statics@@YAHXZ 0000000180030284     MSVCRT:thread_safe_statics.obj
 0002:00009284       $stateUnwindMap$??_G_MyAction@?1??Java_com_sun_glass_ui_win_WinWindow__1createWindow@@YA_JPEAUJNIEnv_@@PEAV_jobject@@_J2J@Z@UEAAPEAXI@Z 0000000180030284     GlassWindow.obj
 0002:00009290       $ip2state$??_GBaseWnd@@UEAAPEAXI@Z 0000000180030290     BaseWnd.obj
 0002:000092a0       $unwind$??0JString@@QEAA@PEAUJNIEnv_@@PEAV_jstring@@@Z 00000001800302a0     CommonDialogs.obj
 0002:000092a0       $unwind$Java_com_sun_glass_ui_win_WinCursor__1getBestSize 00000001800302a0     GlassCursor.obj
 0002:000092b0       $unwind$??1BinaryChunk@@QEAA@XZ 00000001800302b0     GlassClipboard.obj
 0002:000092b0       $unwind$?AddToSelection@GlassTextRangeProvider@@UEAAJXZ 00000001800302b0     GlassTextRangeProvider.obj
 0002:000092b0       $unwind$Java_com_sun_glass_ui_win_WinApplication__1leaveNestedEventLoopImpl 00000001800302b0     GlassApplication.obj
 0002:000092b0       $unwind$?RemoveFromSelection@GlassTextRangeProvider@@UEAAJXZ 00000001800302b0     GlassTextRangeProvider.obj
 0002:000092b0       $unwind$?EnumChildWndProc@@YAHPEAUHWND__@@_J@Z 00000001800302b0     GlassWindow.obj
 0002:000092b0       $unwind$?JCursorToHCURSOR@@YAPEAUHICON__@@PEAUJNIEnv_@@PEAV_jobject@@@Z 00000001800302b0     GlassCursor.obj
 0002:000092b0       $unwind$Java_com_sun_glass_ui_win_WinView__1initIDs 00000001800302b0     GlassView.obj
 0002:000092b0       $unwind$?Close@FullScreenWindow@@QEAAXXZ 00000001800302b0     FullScreenWindow.obj
 0002:000092b0       $unwind$?Do@_MyAction@?1??Java_com_sun_glass_ui_win_WinWindow__1close@@YAEPEAUJNIEnv_@@PEAV_jobject@@_J@Z@UEAAXXZ 00000001800302b0     GlassWindow.obj
 0002:000092b0       $unwind$?Do@_MyAction@?1??Java_com_sun_glass_ui_win_WinWindow__1setFocusable@@YAXPEAUJNIEnv_@@PEAV_jobject@@_JE@Z@UEAAXXZ 00000001800302b0     GlassWindow.obj
 0002:000092b0       $unwind$?Do@_MyAction@?1??Java_com_sun_glass_ui_win_WinWindow__1setAlpha@@YAXPEAUJNIEnv_@@PEAV_jobject@@_JM@Z@UEAAXXZ 00000001800302b0     GlassWindow.obj
 0002:000092b0       $unwind$?GetModifiers@@YAJXZ 00000001800302b0     Utils.obj
 0002:000092b0       $unwind$?SetFocus@GlassAccessible@@UEAAJXZ 00000001800302b0     GlassAccessible.obj
 0002:000092b0       $unwind$??_Gexception@std@@UEAAPEAXI@Z 00000001800302b0     MSVCRT:throw_bad_alloc.obj
 0002:000092b0       $unwind$?ClientRectInScreen@FullScreenWindow@@SAXPEAUHWND__@@PEAUtagRECT@@@Z 00000001800302b0     FullScreenWindow.obj
 0002:000092b0       $unwind$??_Gbad_alloc@std@@UEAAPEAXI@Z 00000001800302b0     MSVCRT:throw_bad_alloc.obj
 0002:000092b0       $unwind$?ReleaseManipProcessor@ViewContainer@@IEAAXXZ 00000001800302b0     ViewContainer.obj
 0002:000092b0       $unwind$??_Gbad_array_new_length@std@@UEAAPEAXI@Z 00000001800302b0     MSVCRT:throw_bad_alloc.obj
 0002:000092b0       $unwind$Java_com_sun_glass_ui_win_WinMenuImpl__1initIDs 00000001800302b0     GlassMenu.obj
 0002:000092b0       $unwind$?HandleCloseEvent@GlassWindow@@QEAAXXZ 00000001800302b0     GlassWindow.obj
 0002:000092b0       $unwind$??_G_MyAction@?1??Java_com_sun_glass_ui_win_WinDnDClipboard_push@@YAXPEAUJNIEnv_@@PEAV_jobject@@PEAV_jobjectArray@@J@Z@UEAAPEAXI@Z 00000001800302b0     GlassClipboard.obj
 0002:000092b0       $unwind$?TimerCallback@RunnableTimer@@UEAAXXZ 00000001800302b0     Timer.obj
 0002:000092b0       $unwind$?Invoke@GlassAccessible@@UEAAJXZ 00000001800302b0     GlassAccessible.obj
 0002:000092b0       $unwind$_RTC_Initialize    00000001800302b0     MSVCRT:initsect.obj
 0002:000092b0       $unwind$?HandleFocusDisabledEvent@GlassWindow@@AEAAXXZ 00000001800302b0     GlassWindow.obj
 0002:000092b0       $unwind$?Select@GlassTextRangeProvider@@UEAAJXZ 00000001800302b0     GlassTextRangeProvider.obj
 0002:000092b0       $unwind$?Expand@GlassAccessible@@UEAAJXZ 00000001800302b0     GlassAccessible.obj
 0002:000092b0       $unwind$?DloadGetSRWLockFunctionPointers@@YAEXZ 00000001800302b0     delayimp:delayhlp.obj
 0002:000092b0       $unwind$?Select@GlassAccessible@@UEAAJXZ 00000001800302b0     GlassAccessible.obj
 0002:000092b0       $unwind$Java_com_sun_glass_ui_win_WinMenuImpl__1removeAtPos 00000001800302b0     GlassMenu.obj
 0002:000092b0       $unwind$?AddToSelection@GlassAccessible@@UEAAJXZ 00000001800302b0     GlassAccessible.obj
 0002:000092b0       $unwind$?ScrollIntoView@GlassAccessible@@UEAAJXZ 00000001800302b0     GlassAccessible.obj
 0002:000092b0       $unwind$?RemoveFromSelection@GlassAccessible@@UEAAJXZ 00000001800302b0     GlassAccessible.obj
 0002:000092b0       $unwind$??0ViewContainer@@QEAA@XZ 00000001800302b0     ViewContainer.obj
 0002:000092b0       $unwind$?Collapse@GlassAccessible@@UEAAJXZ 00000001800302b0     GlassAccessible.obj
 0002:000092b0       $unwind$Java_com_sun_glass_ui_win_WinMenuImpl__1enableItem 00000001800302b0     GlassMenu.obj
 0002:000092b0       $unwind$Java_com_sun_glass_ui_win_WinWindow__1initIDs 00000001800302b0     GlassWindow.obj
 0002:000092b0       $unwind$??_G_MyAction@?1??Java_com_sun_glass_ui_win_WinSystemClipboard_push@@YAXPEAUJNIEnv_@@PEAV_jobject@@PEAV_jobjectArray@@J@Z@UEAAPEAXI@Z 00000001800302b0     GlassClipboard.obj
 0002:000092b0       $unwind$?Do@_MyAction@?1??Java_com_sun_glass_ui_win_WinSystemClipboard_pop@@YAEPEAUJNIEnv_@@PEAV_jobject@@@Z@UEAAXXZ 00000001800302b0     GlassClipboard.obj
 0002:000092b0       $unwind$Java_com_sun_glass_ui_win_WinView__1create 00000001800302b0     GlassView.obj
 0002:000092b0       $unwind$?CreateJString@@YAPEAV_jstring@@PEAUJNIEnv_@@PEB_W@Z 00000001800302b0     CommonDialogs_COM.obj
 0002:000092b0       $unwind$Java_com_sun_glass_ui_win_WinMenuImpl__1enableSubmenu 00000001800302b0     GlassMenu.obj
 0002:000092b0       $unwind$Java_com_sun_glass_ui_win_WinAccessible__1initIDs 00000001800302b0     GlassAccessible.obj
 0002:000092b0       $unwind$Java_com_sun_glass_ui_win_WinApplication__1getKeyCodeForChar 00000001800302b0     KeyTable.obj
 0002:000092b0       $unwind$Java_com_sun_glass_ui_win_WinMenuImpl__1checkItem 00000001800302b0     GlassMenu.obj
 0002:000092b0       $unwind$?Toggle@GlassAccessible@@UEAAJXZ 00000001800302b0     GlassAccessible.obj
 0002:000092b0       $unwind$Java_com_sun_glass_ui_win_WinTextRangeProvider__1initIDs 00000001800302b0     GlassTextRangeProvider.obj
 0002:000092b0       $unwind$Java_com_sun_glass_ui_win_WinCommonDialogs__1initIDs 00000001800302b0     CommonDialogs.obj
 0002:000092b0       $unwind$??_GTimer@@UEAAPEAXI@Z 00000001800302b0     Timer.obj
 0002:000092b0       $unwind$Java_com_sun_glass_ui_win_WinCursor__1initIDs 00000001800302b0     GlassCursor.obj
 0002:000092b0       $unwind$?UnregisterClipboardViewer@GlassApplication@@QEAAXXZ 00000001800302b0     GlassApplication.obj
 0002:000092b0       $unwind$?GetBits@Pixels@@QEAAPEAXXZ 00000001800302b0     Pixels.obj
 0002:000092b0       $unwind$_RTC_Terminate     00000001800302b0     MSVCRT:initsect.obj
 0002:000092b0       $unwind$??_G_com_error@@UEAAPEAXI@Z 00000001800302b0     comsuppw:comraise.obj
 0002:000092b0       $unwind$?HandleDisplayChange@GlassScreen@@SAXXZ 00000001800302b0     GlassScreen.obj
 0002:000092b0       $unwind$Java_com_sun_glass_ui_win_WinSystemClipboard_initIDs 00000001800302b0     GlassClipboard.obj
 0002:000092b0       $unwind$Java_com_sun_glass_ui_win_WinGestureSupport__1initIDs 00000001800302b0     ViewContainer.obj
 0002:000092b0       $unwind$Java_com_sun_glass_ui_win_WinApplication__1submitForLaterInvocation 00000001800302b0     GlassApplication.obj
 0002:000092b0       $unwind$??_GBaseBitmap@@UEAAPEAXI@Z 00000001800302b0     GlassClipboard.obj
 0002:000092b0       $unwind$??4_bstr_t@@QEAAAEAV0@AEBV0@@Z 00000001800302b0     GlassClipboard.obj
 0002:000092b0       $unwind$??_GBitmap@@UEAAPEAXI@Z 00000001800302b0     Pixels.obj
 0002:000092b0       $unwind$??_GDIBitmap@@UEAAPEAXI@Z 00000001800302b0     Pixels.obj
 0002:000092b0       $unwind$??_GBackgroundWindow@@UEAAPEAXI@Z 00000001800302b0     FullScreenWindow.obj
 0002:000092b0       $unwind$Java_com_sun_glass_ui_win_WinApplication_initIDs 00000001800302b0     GlassApplication.obj
 0002:000092b0       $unwind$??_GFullScreenWindow@@UEAAPEAXI@Z 00000001800302b0     FullScreenWindow.obj
 0002:000092bc       $unwind$Java_com_sun_glass_ui_win_WinCommonDialogs__1showFileChooser 00000001800302bc     CommonDialogs.obj
 0002:000092d8       $unwind$Java_com_sun_glass_ui_win_WinCommonDialogs__1showFolderChooser 00000001800302d8     CommonDialogs.obj
 0002:000092f4       $unwind$?get_ColumnCount@GlassAccessible@@UEAAJPEAH@Z 00000001800302f4     GlassAccessible.obj
 0002:000092f4       $unwind$?get_SupportedTextSelection@GlassAccessible@@UEAAJPEAW4SupportedTextSelection@@@Z 00000001800302f4     GlassAccessible.obj
 0002:000092f4       $unwind$?Attach@?$JGlobalRef@PEAV_jobject@@@@QEAAXPEAUJNIEnv_@@PEAV_jobject@@@Z 00000001800302f4     GlassApplication.obj
 0002:000092f4       $unwind$?get_ColumnSpan@GlassAccessible@@UEAAJPEAH@Z 00000001800302f4     GlassAccessible.obj
 0002:000092f4       $unwind$?get_Value@GlassAccessible@@UEAAJPEAPEA_W@Z 00000001800302f4     GlassAccessible.obj
 0002:000092f4       $unwind$?get_SmallChange@GlassAccessible@@UEAAJPEAN@Z 00000001800302f4     GlassAccessible.obj
 0002:000092f4       $unwind$?get_LargeChange@GlassAccessible@@UEAAJPEAN@Z 00000001800302f4     GlassAccessible.obj
 0002:000092f4       $unwind$?get_Row@GlassAccessible@@UEAAJPEAH@Z 00000001800302f4     GlassAccessible.obj
 0002:000092f4       $unwind$?get_Minimum@GlassAccessible@@UEAAJPEAN@Z 00000001800302f4     GlassAccessible.obj
 0002:000092f4       $unwind$?get_RowSpan@GlassAccessible@@UEAAJPEAH@Z 00000001800302f4     GlassAccessible.obj
 0002:000092f4       $unwind$?get_Maximum@GlassAccessible@@UEAAJPEAN@Z 00000001800302f4     GlassAccessible.obj
 0002:000092f4       $unwind$?get_RowOrColumnMajor@GlassAccessible@@UEAAJPEAW4RowOrColumnMajor@@@Z 00000001800302f4     GlassAccessible.obj
 0002:000092f4       $unwind$?get_RowCount@GlassAccessible@@UEAAJPEAH@Z 00000001800302f4     GlassAccessible.obj
 0002:000092f4       $unwind$?get_ToggleState@GlassAccessible@@UEAAJPEAW4ToggleState@@@Z 00000001800302f4     GlassAccessible.obj
 0002:000092f4       $unwind$?get_Value@GlassAccessible@@UEAAJPEAN@Z 00000001800302f4     GlassAccessible.obj
 0002:000092f4       $unwind$?get_IsSelected@GlassAccessible@@UEAAJPEAH@Z 00000001800302f4     GlassAccessible.obj
 0002:000092f4       $unwind$?get_IsSelectionRequired@GlassAccessible@@UEAAJPEAH@Z 00000001800302f4     GlassAccessible.obj
 0002:000092f4       $unwind$?get_ExpandCollapseState@GlassAccessible@@UEAAJPEAW4ExpandCollapseState@@@Z 00000001800302f4     GlassAccessible.obj
 0002:000092f4       $unwind$?get_CanMove@GlassAccessible@@UEAAJPEAH@Z 00000001800302f4     GlassAccessible.obj
 0002:000092f4       $unwind$?Attach@?$JGlobalRef@PEAV_jarray@@@@QEAAXPEAUJNIEnv_@@PEAV_jarray@@@Z 00000001800302f4     Pixels.obj
 0002:000092f4       $unwind$?get_CanResize@GlassAccessible@@UEAAJPEAH@Z 00000001800302f4     GlassAccessible.obj
 0002:000092f4       $unwind$?get_CanRotate@GlassAccessible@@UEAAJPEAH@Z 00000001800302f4     GlassAccessible.obj
 0002:000092f4       $unwind$?get_CanSelectMultiple@GlassAccessible@@UEAAJPEAH@Z 00000001800302f4     GlassAccessible.obj
 0002:000092f4       $unwind$?HandleActivateEvent@GlassWindow@@QEAAXJ@Z 00000001800302f4     GlassWindow.obj
 0002:000092f4       $unwind$_DllMainCRTStartup 00000001800302f4     MSVCRT:dll_dllmain.obj
 0002:000092f4       $unwind$?GetChildren@GlassTextRangeProvider@@UEAAJPEAPEAUtagSAFEARRAY@@@Z 00000001800302f4     GlassTextRangeProvider.obj
 0002:000092f4       $unwind$?get_IsReadOnly@GlassAccessible@@UEAAJPEAH@Z 00000001800302f4     GlassAccessible.obj
 0002:000092f4       $unwind$?HandleWindowPosChangedEvent@GlassWindow@@QEAAXXZ 00000001800302f4     GlassWindow.obj
 0002:000092f4       $unwind$?get_Column@GlassAccessible@@UEAAJPEAH@Z 00000001800302f4     GlassAccessible.obj
 0002:000092f4       $unwind$memcpy_s           00000001800302f4     CommonDialogs_COM.obj
 0002:000092f4       $unwind$?GetEnclosingElement@GlassTextRangeProvider@@UEAAJPEAPEAUIRawElementProviderSimple@@@Z 00000001800302f4     GlassTextRangeProvider.obj
 0002:000092f4       $unwind$?get_HorizontallyScrollable@GlassAccessible@@UEAAJPEAH@Z 00000001800302f4     GlassAccessible.obj
 0002:000092f4       $unwind$?GetBoundingRectangles@GlassTextRangeProvider@@UEAAJPEAPEAUtagSAFEARRAY@@@Z 00000001800302f4     GlassTextRangeProvider.obj
 0002:000092f4       $unwind$?get_HorizontalScrollPercent@GlassAccessible@@UEAAJPEAN@Z 00000001800302f4     GlassAccessible.obj
 0002:000092f4       $unwind$?ExpandToEnclosingUnit@GlassTextRangeProvider@@UEAAJW4TextUnit@@@Z 00000001800302f4     GlassTextRangeProvider.obj
 0002:000092f4       $unwind$?get_HorizontalViewSize@GlassAccessible@@UEAAJPEAN@Z 00000001800302f4     GlassAccessible.obj
 0002:000092f4       $unwind$?get_VerticallyScrollable@GlassAccessible@@UEAAJPEAH@Z 00000001800302f4     GlassAccessible.obj
 0002:000092f4       $unwind$?get_VerticalScrollPercent@GlassAccessible@@UEAAJPEAN@Z 00000001800302f4     GlassAccessible.obj
 0002:000092f4       $unwind$?get_VerticalViewSize@GlassAccessible@@UEAAJPEAN@Z 00000001800302f4     GlassAccessible.obj
 0002:000092f4       $unwind$?Clone@GlassTextRangeProvider@@UEAAJPEAPEAUITextRangeProvider@@@Z 00000001800302f4     GlassTextRangeProvider.obj
 0002:000092f4       $unwind$Java_com_sun_glass_ui_win_WinAccessible__1createGlassAccessible 00000001800302f4     GlassAccessible.obj
 0002:000092f4       $unwind$?Do@_MyAction@?1??Java_com_sun_glass_ui_win_WinWindow__1setCursor@@YAXPEAUJNIEnv_@@PEAV_jobject@@_J1@Z@UEAAXXZ 00000001800302f4     GlassWindow.obj
 0002:000092f4       $unwind$?Clone@ClipboardEnumFORMATETC@ClipboardData@@UEAAJPEAPEAUIEnumFORMATETC@@@Z 00000001800302f4     GlassClipboard.obj
 0002:000092f4       $unwind$?Do@_MyAction@?1??Java_com_sun_glass_ui_win_WinWindow__1setEnabled@@YAXPEAUJNIEnv_@@PEAV_jobject@@_JE@Z@UEAAXXZ 00000001800302f4     GlassWindow.obj
 0002:000092f4       $unwind$?Do@_MyAction@?1??Java_com_sun_glass_ui_win_WinWindow__1setView@@YAEPEAUJNIEnv_@@PEAV_jobject@@_J1@Z@UEAAXXZ 00000001800302f4     GlassWindow.obj
 0002:000092f4       $unwind$?ScrollIntoView@GlassTextRangeProvider@@UEAAJH@Z 00000001800302f4     GlassTextRangeProvider.obj
 0002:000092f4       $unwind$?MouseLLHook@GlassApplication@@CA_JH_K_J@Z 00000001800302f4     GlassApplication.obj
 0002:000092f4       $unwind$?Allocate@BinaryChunk@@QEAAJJ@Z 00000001800302f4     GlassClipboard.obj
 0002:00009304       $unwind$??0_bstr_t@@QEAA@PEB_W@Z 0000000180030304     CommonDialogs_COM.obj
 0002:0000931c       $stateUnwindMap$??0_bstr_t@@QEAA@PEB_W@Z 000000018003031c     CommonDialogs_COM.obj
 0002:00009328       $ip2state$??0_bstr_t@@QEAA@PEB_W@Z 0000000180030328     CommonDialogs_COM.obj
 0002:00009338       $unwind$?dtor$1@?0??getClipboardFormat@@YAGPEB_W@Z@4HA 0000000180030338     GlassClipboard.obj
 0002:00009338       $unwind$?dtor$1@?0??addPair@@YAXPEB_WAEBG@Z@4HA 0000000180030338     GlassClipboard.obj
 0002:00009338       $unwind$?dtor$3@?0??getString@BinaryChunk@@QEAA?AV_bstr_t@@XZ@4HA 0000000180030338     GlassClipboard.obj
 0002:00009338       $unwind$?dtor$0@?0??_UserDo@_MyAction@?1??Java_com_sun_glass_ui_win_WinWindow__1createWindow@@YA_JPEAUJNIEnv_@@PEAV_jobject@@_J2J@Z@QEAA_JXZ@4HA 0000000180030338     GlassWindow.obj
 0002:00009338       $unwind$?dtor$0@?0??Do@_MyAction@?1??Java_com_sun_glass_ui_win_WinWindow__1createChildWindow@@YA_JPEAUJNIEnv_@@PEAV_jobject@@_J@Z@UEAAXXZ@4HA 0000000180030338     GlassWindow.obj
 0002:00009338       $unwind$?dtor$0@?0??InitDropTarget@ViewContainer@@IEAAXPEAUHWND__@@@Z@4HA 0000000180030338     ViewContainer.obj
 0002:00009338       $unwind$?dtor$0@?0??Create@FullScreenWindow@@QEAAPEAUHWND__@@XZ@4HA 0000000180030338     FullScreenWindow.obj
 0002:00009338       $unwind$?dtor$0@?0??InitManipProcessor@ViewContainer@@IEAAXPEAUHWND__@@@Z@4HA 0000000180030338     ViewContainer.obj
 0002:00009338       $unwind$?dtor$9@?0??pushCommit@ClipboardData@@QEAAJPEAUJNIEnv_@@PEAV_jobjectArray@@J@Z@4HA 0000000180030338     GlassClipboard.obj
 0002:00009338       $unwind$?dtor$13@?0??GetData@ClipboardData@@UEAAJPEAUtagFORMATETC@@PEAUtagSTGMEDIUM@@@Z@4HA 0000000180030338     GlassClipboard.obj
 0002:00009338       $unwind$?dtor$14@?0??GetData@ClipboardData@@UEAAJPEAUtagFORMATETC@@PEAUtagSTGMEDIUM@@@Z@4HA 0000000180030338     GlassClipboard.obj
 0002:00009338       $unwind$?dtor$2@?0??InitManipProcessor@ViewContainer@@IEAAXPEAUHWND__@@@Z@4HA 0000000180030338     ViewContainer.obj
 0002:00009338       $unwind$?dtor$0@?0???4_bstr_t@@QEAAAEAV0@PEB_W@Z@4HA 0000000180030338     GlassClipboard.obj
 0002:00009338       $unwind$?dtor$1@?0??create_mime_stuff@@YAHXZ@4HA 0000000180030338     GlassClipboard.obj
 0002:00009338       $unwind$?dtor$1@?0??Do@_MyAction@?1??Java_com_sun_glass_ui_win_WinDnDClipboard_push@@YAXPEAUJNIEnv_@@PEAV_jobject@@PEAV_jobjectArray@@J@Z@UEAAXXZ@4HA 0000000180030338     GlassClipboard.obj
 0002:00009338       $unwind$?dtor$0@?0??Do@_MyAction@?1??Java_com_sun_glass_ui_win_WinDnDClipboard_push@@YAXPEAUJNIEnv_@@PEAV_jobject@@PEAV_jobjectArray@@J@Z@UEAAXXZ@4HA 0000000180030338     GlassClipboard.obj
 0002:00009338       $unwind$?dtor$0@?0??Do@_MyAction@?1??Java_com_sun_glass_ui_win_WinSystemClipboard_push@@YAXPEAUJNIEnv_@@PEAV_jobject@@PEAV_jobjectArray@@J@Z@UEAAXXZ@4HA 0000000180030338     GlassClipboard.obj
 0002:00009338       $unwind$?dtor$1@?0??Do@_MyAction@?1??Java_com_sun_glass_ui_win_WinSystemClipboard_push@@YAXPEAUJNIEnv_@@PEAV_jobject@@PEAV_jobjectArray@@J@Z@UEAAXXZ@4HA 0000000180030338     GlassClipboard.obj
 0002:00009338       $unwind$?dtor$5@?0??snvTrace@@YAXPEB_WPEAD@Z@4HA 0000000180030338     CommonDialogs_COM.obj
 0002:00009338       $unwind$?dtor$4@?0??snvTrace@@YAXPEB_WPEAD@Z@4HA 0000000180030338     CommonDialogs_COM.obj
 0002:00009338       $unwind$?dtor$3@?0??snvTrace@@YAXPEB_WPEAD@Z@4HA 0000000180030338     CommonDialogs_COM.obj
 0002:00009338       $unwind$?dtor$40@?0??_UserDo@_MyAction@?1??Java_com_sun_glass_ui_win_WinSystemClipboard_popMimesFromSystem@@YAPEAV_jobjectArray@@PEAUJNIEnv_@@PEAV_jobject@@@Z@QEAAPEAV3@XZ@4HA 0000000180030338     GlassClipboard.obj
 0002:00009338       $unwind$?dtor$0@?0???Y_bstr_t@@QEAAAEAV0@AEBV0@@Z@4HA 0000000180030338     CommonDialogs_COM.obj
 0002:00009338       $unwind$?dtor$41@?0??_UserDo@_MyAction@?1??Java_com_sun_glass_ui_win_WinSystemClipboard_popMimesFromSystem@@YAPEAV_jobjectArray@@PEAUJNIEnv_@@PEAV_jobject@@@Z@QEAAPEAV3@XZ@4HA 0000000180030338     GlassClipboard.obj
 0002:00009338       $unwind$?dtor$42@?0??_UserDo@_MyAction@?1??Java_com_sun_glass_ui_win_WinSystemClipboard_popMimesFromSystem@@YAPEAV_jobjectArray@@PEAUJNIEnv_@@PEAV_jobject@@@Z@QEAAPEAV3@XZ@4HA 0000000180030338     GlassClipboard.obj
 0002:00009338       $unwind$?dtor$43@?0??_UserDo@_MyAction@?1??Java_com_sun_glass_ui_win_WinSystemClipboard_popMimesFromSystem@@YAPEAV_jobjectArray@@PEAUJNIEnv_@@PEAV_jobject@@@Z@QEAAPEAV3@XZ@4HA 0000000180030338     GlassClipboard.obj
 0002:00009338       $unwind$?dtor$0@?0???0_bstr_t@@QEAA@PEB_W@Z@4HA 0000000180030338     CommonDialogs_COM.obj
 0002:00009338       $unwind$?dtor$3@?0??getMime@@YA?AV_bstr_t@@G@Z@4HA 0000000180030338     GlassClipboard.obj
 0002:00009338       $unwind$?dtor$2@?0??Do@_MyAction@?1??Java_com_sun_glass_ui_win_WinDnDClipboard_push@@YAXPEAUJNIEnv_@@PEAV_jobject@@PEAV_jobjectArray@@J@Z@UEAAXXZ@4HA 0000000180030338     GlassClipboard.obj
 0002:00009338       $unwind$?dtor$4@?0??getMime@@YA?AV_bstr_t@@G@Z@4HA 0000000180030338     GlassClipboard.obj
 0002:00009338       $unwind$?fin$0@?0??dllmain_crt_process_attach@@YAHQEAUHINSTANCE__@@QEAX@Z@4HA 0000000180030338     MSVCRT:dll_dllmain.obj
 0002:00009338       $unwind$?fin$0@?0??dllmain_crt_process_detach@@YAH_N@Z@4HA 0000000180030338     MSVCRT:dll_dllmain.obj
 0002:00009338       $unwind$?dtor$44@?0??_UserDo@_MyAction@?1??Java_com_sun_glass_ui_win_WinSystemClipboard_popMimesFromSystem@@YAPEAV_jobjectArray@@PEAUJNIEnv_@@PEAV_jobject@@@Z@QEAAPEAV3@XZ@4HA 0000000180030338     GlassClipboard.obj
 0002:00009338       $unwind$?dtor$53@?0??_UserDo@_MyAction@?1??Java_com_sun_glass_ui_win_WinSystemClipboard_popMimesFromSystem@@YAPEAV_jobjectArray@@PEAUJNIEnv_@@PEAV_jobject@@@Z@QEAAPEAV3@XZ@4HA 0000000180030338     GlassClipboard.obj
 0002:00009338       $unwind$?dtor$45@?0??_UserDo@_MyAction@?1??Java_com_sun_glass_ui_win_WinSystemClipboard_popMimesFromSystem@@YAPEAV_jobjectArray@@PEAUJNIEnv_@@PEAV_jobject@@@Z@QEAAPEAV3@XZ@4HA 0000000180030338     GlassClipboard.obj
 0002:00009338       $unwind$?dtor$60@?0??_UserDo@_MyAction@?1??Java_com_sun_glass_ui_win_WinSystemClipboard_popMimesFromSystem@@YAPEAV_jobjectArray@@PEAUJNIEnv_@@PEAV_jobject@@@Z@QEAAPEAV3@XZ@4HA 0000000180030338     GlassClipboard.obj
 0002:00009338       $unwind$?dtor$46@?0??_UserDo@_MyAction@?1??Java_com_sun_glass_ui_win_WinSystemClipboard_popMimesFromSystem@@YAPEAV_jobjectArray@@PEAUJNIEnv_@@PEAV_jobject@@@Z@QEAAPEAV3@XZ@4HA 0000000180030338     GlassClipboard.obj
 0002:00009338       $unwind$?dtor$59@?0??_UserDo@_MyAction@?1??Java_com_sun_glass_ui_win_WinSystemClipboard_popMimesFromSystem@@YAPEAV_jobjectArray@@PEAUJNIEnv_@@PEAV_jobject@@@Z@QEAAPEAV3@XZ@4HA 0000000180030338     GlassClipboard.obj
 0002:00009338       $unwind$?dtor$9@?0??_UserDo@_MyAction@?1??Java_com_sun_glass_ui_win_WinSystemClipboard_popMimesFromSystem@@YAPEAV_jobjectArray@@PEAUJNIEnv_@@PEAV_jobject@@@Z@QEAAPEAV3@XZ@4HA 0000000180030338     GlassClipboard.obj
 0002:00009338       $unwind$?dtor$58@?0??_UserDo@_MyAction@?1??Java_com_sun_glass_ui_win_WinSystemClipboard_popMimesFromSystem@@YAPEAV_jobjectArray@@PEAUJNIEnv_@@PEAV_jobject@@@Z@QEAAPEAV3@XZ@4HA 0000000180030338     GlassClipboard.obj
 0002:00009338       $unwind$?dtor$47@?0??_UserDo@_MyAction@?1??Java_com_sun_glass_ui_win_WinSystemClipboard_popMimesFromSystem@@YAPEAV_jobjectArray@@PEAUJNIEnv_@@PEAV_jobject@@@Z@QEAAPEAV3@XZ@4HA 0000000180030338     GlassClipboard.obj
 0002:00009338       $unwind$?dtor$28@?0??_UserDo@_MyAction@?1??Java_com_sun_glass_ui_win_WinSystemClipboard_popMimesFromSystem@@YAPEAV_jobjectArray@@PEAUJNIEnv_@@PEAV_jobject@@@Z@QEAAPEAV3@XZ@4HA 0000000180030338     GlassClipboard.obj
 0002:00009338       $unwind$?dtor$48@?0??_UserDo@_MyAction@?1??Java_com_sun_glass_ui_win_WinSystemClipboard_popMimesFromSystem@@YAPEAV_jobjectArray@@PEAUJNIEnv_@@PEAV_jobject@@@Z@QEAAPEAV3@XZ@4HA 0000000180030338     GlassClipboard.obj
 0002:00009338       $unwind$?dtor$0@?0??Start@RunnableTimer@@SA_JPEAV_jobject@@J@Z@4HA 0000000180030338     Timer.obj
 0002:00009338       $unwind$?dtor$57@?0??_UserDo@_MyAction@?1??Java_com_sun_glass_ui_win_WinSystemClipboard_popMimesFromSystem@@YAPEAV_jobjectArray@@PEAUJNIEnv_@@PEAV_jobject@@@Z@QEAAPEAV3@XZ@4HA 0000000180030338     GlassClipboard.obj
 0002:00009338       $unwind$?dtor$49@?0??_UserDo@_MyAction@?1??Java_com_sun_glass_ui_win_WinSystemClipboard_popMimesFromSystem@@YAPEAV_jobjectArray@@PEAUJNIEnv_@@PEAV_jobject@@@Z@QEAAPEAV3@XZ@4HA 0000000180030338     GlassClipboard.obj
 0002:00009338       $unwind$?dtor$27@?0??_UserDo@_MyAction@?1??Java_com_sun_glass_ui_win_WinSystemClipboard_popMimesFromSystem@@YAPEAV_jobjectArray@@PEAUJNIEnv_@@PEAV_jobject@@@Z@QEAAPEAV3@XZ@4HA 0000000180030338     GlassClipboard.obj
 0002:00009338       $unwind$?dtor$0@?0??Do@_MyAction@?1??Java_com_sun_glass_ui_win_WinView__1enterFullscreen@@YAEPEAUJNIEnv_@@PEAV_jobject@@_JEEE@Z@UEAAXXZ@4HA 0000000180030338     GlassView.obj
 0002:00009338       $unwind$?dtor$50@?0??_UserDo@_MyAction@?1??Java_com_sun_glass_ui_win_WinSystemClipboard_popMimesFromSystem@@YAPEAV_jobjectArray@@PEAUJNIEnv_@@PEAV_jobject@@@Z@QEAAPEAV3@XZ@4HA 0000000180030338     GlassClipboard.obj
 0002:00009338       $unwind$?dtor$56@?0??_UserDo@_MyAction@?1??Java_com_sun_glass_ui_win_WinSystemClipboard_popMimesFromSystem@@YAPEAV_jobjectArray@@PEAUJNIEnv_@@PEAV_jobject@@@Z@QEAAPEAV3@XZ@4HA 0000000180030338     GlassClipboard.obj
 0002:00009338       $unwind$?dtor$51@?0??_UserDo@_MyAction@?1??Java_com_sun_glass_ui_win_WinSystemClipboard_popMimesFromSystem@@YAPEAV_jobjectArray@@PEAUJNIEnv_@@PEAV_jobject@@@Z@QEAAPEAV3@XZ@4HA 0000000180030338     GlassClipboard.obj
 0002:00009338       $unwind$?dtor$55@?0??_UserDo@_MyAction@?1??Java_com_sun_glass_ui_win_WinSystemClipboard_popMimesFromSystem@@YAPEAV_jobjectArray@@PEAUJNIEnv_@@PEAV_jobject@@@Z@QEAAPEAV3@XZ@4HA 0000000180030338     GlassClipboard.obj
 0002:00009338       $unwind$?dtor$52@?0??_UserDo@_MyAction@?1??Java_com_sun_glass_ui_win_WinSystemClipboard_popMimesFromSystem@@YAPEAV_jobjectArray@@PEAUJNIEnv_@@PEAV_jobject@@@Z@QEAAPEAV3@XZ@4HA 0000000180030338     GlassClipboard.obj
 0002:00009338       $unwind$?dtor$54@?0??_UserDo@_MyAction@?1??Java_com_sun_glass_ui_win_WinSystemClipboard_popMimesFromSystem@@YAPEAV_jobjectArray@@PEAUJNIEnv_@@PEAV_jobject@@@Z@QEAAPEAV3@XZ@4HA 0000000180030338     GlassClipboard.obj
 0002:00009338       $unwind$?dtor$0@?0??getString@BinaryChunk@@QEAA?AV_bstr_t@@XZ@4HA 0000000180030338     GlassClipboard.obj
 0002:00009340       $unwind$??Y_bstr_t@@QEAAAEAV0@AEBV0@@Z 0000000180030340     CommonDialogs_COM.obj
 0002:00009360       $stateUnwindMap$??Y_bstr_t@@QEAAAEAV0@AEBV0@@Z 0000000180030360     CommonDialogs_COM.obj
 0002:00009368       $ip2state$??Y_bstr_t@@QEAAAEAV0@AEBV0@@Z 0000000180030368     CommonDialogs_COM.obj
 0002:00009378       $unwind$?get_DocumentRange@GlassAccessible@@UEAAJPEAPEAUITextRangeProvider@@@Z 0000000180030378     GlassAccessible.obj
 0002:00009378       $unwind$?_Compare@_bstr_t@@AEBAHAEBV1@@Z 0000000180030378     GlassClipboard.obj
 0002:00009378       $unwind$?RequestFocus@GlassWindow@@QEAA_NJ@Z 0000000180030378     GlassWindow.obj
 0002:00009378       $unwind$?StartTouchInputInertia@ViewContainer@@QEAAXPEAUHWND__@@@Z 0000000180030378     ViewContainer.obj
 0002:00009378       $unwind$?CheckAndClearException@@YAEPEAUJNIEnv_@@@Z 0000000180030378     Utils.obj
 0002:00009378       $unwind$?_Free@_bstr_t@@AEAAXXZ 0000000180030378     CommonDialogs_COM.obj
 0002:00009378       $unwind$?DialogHook@@YA_KPEAUHWND__@@I_K_J@Z 0000000180030378     CommonDialogs_Standard.obj
 0002:00009384       $unwind$?ErrorMessage@_com_error@@QEBAPEB_WXZ 0000000180030384     CommonDialogs_COM.obj
 0002:00009384       $unwind$?EnumOwnedWndProc@@YAHPEAUHWND__@@_J@Z 0000000180030384     GlassWindow.obj
 0002:00009390       $chain$0$?ErrorMessage@_com_error@@QEBAPEB_WXZ 0000000180030390     CommonDialogs_COM.obj
 0002:000093a4       $chain$4$?ErrorMessage@_com_error@@QEBAPEB_WXZ 00000001800303a4     CommonDialogs_COM.obj
 0002:000093a4       $chain$2$?ErrorMessage@_com_error@@QEBAPEB_WXZ 00000001800303a4     CommonDialogs_COM.obj
 0002:000093b8       $chain$5$?ErrorMessage@_com_error@@QEBAPEB_WXZ 00000001800303b8     CommonDialogs_COM.obj
 0002:000093c8       $unwind$?CallDoubleMethod@JNIEnv_@@QEAANPEAV_jobject@@PEAU_jmethodID@@ZZ 00000001800303c8     GlassAccessible.obj
 0002:000093c8       $unwind$?CallStaticVoidMethod@JNIEnv_@@QEAAXPEAV_jclass@@PEAU_jmethodID@@ZZ 00000001800303c8     GlassScreen.obj
 0002:000093c8       $unwind$?CallBooleanMethod@JNIEnv_@@QEAAEPEAV_jobject@@PEAU_jmethodID@@ZZ 00000001800303c8     GlassAccessible.obj
 0002:000093c8       $unwind$?CallIntMethod@JNIEnv_@@QEAAJPEAV_jobject@@PEAU_jmethodID@@ZZ 00000001800303c8     GlassAccessible.obj
 0002:000093c8       $unwind$?CallStaticBooleanMethod@JNIEnv_@@QEAAEPEAV_jclass@@PEAU_jmethodID@@ZZ 00000001800303c8     GlassMenu.obj
 0002:000093c8       $unwind$?CallVoidMethod@JNIEnv_@@QEAAXPEAV_jobject@@PEAU_jmethodID@@ZZ 00000001800303c8     FullScreenWindow.obj
 0002:000093c8       $unwind$?CallLongMethod@JNIEnv_@@QEAA_JPEAV_jobject@@PEAU_jmethodID@@ZZ 00000001800303c8     GlassAccessible.obj
 0002:000093c8       $unwind$?NewObject@JNIEnv_@@QEAAPEAV_jobject@@PEAV_jclass@@PEAU_jmethodID@@ZZ 00000001800303c8     GlassCursor.obj
 0002:000093c8       $unwind$?CallObjectMethod@JNIEnv_@@QEAAPEAV_jobject@@PEAV2@PEAU_jmethodID@@ZZ 00000001800303c8     CommonDialogs_COM.obj
 0002:000093c8       $unwind$?CallStaticObjectMethod@JNIEnv_@@QEAAPEAV_jobject@@PEAV_jclass@@PEAU_jmethodID@@ZZ 00000001800303c8     CommonDialogs_COM.obj
 0002:000093d0       $unwind$?lower_bound@?$_Hash@V?$_Hmap_traits@UtagFORMATETC@@UtagSTGMEDIUM@@V?$hash_compare@UtagFORMATETC@@U?$less@UtagFORMATETC@@@std@@@stdext@@V?$allocator@U?$pair@$$CBUtagFORMATETC@@UtagSTGMEDIUM@@@std@@@std@@$0A@@stdext@@@std@@QEAA?AV?$_List_iterator@V?$_List_val@U?$_List_simple_types@U?$pair@$$CBUtagFORMATETC@@UtagSTGMEDIUM@@@std@@@std@@@std@@@2@AEBUtagFORMATETC@@@Z 00000001800303d0     GlassClipboard.obj
 0002:000093d0       $unwind$?GetText@GlassTextRangeProvider@@UEAAJHPEAPEA_W@Z 00000001800303d0     GlassTextRangeProvider.obj
 0002:000093d0       $unwind$?lower_bound@?$_Hash@V?$_Hmap_traits@UtagFORMATETC@@V_bstr_t@@V?$hash_compare@UtagFORMATETC@@U?$less@UtagFORMATETC@@@std@@@stdext@@V?$allocator@U?$pair@$$CBUtagFORMATETC@@V_bstr_t@@@std@@@std@@$0A@@stdext@@@std@@QEAA?AV?$_List_iterator@V?$_List_val@U?$_List_simple_types@U?$pair@$$CBUtagFORMATETC@@V_bstr_t@@@std@@@std@@@std@@@2@AEBUtagFORMATETC@@@Z 00000001800303d0     GlassClipboard.obj
 0002:000093d0       $unwind$__scrt_dllmain_exception_filter 00000001800303d0     MSVCRT:utility.obj
 0002:000093d0       $unwind$?SetValue@GlassAccessible@@UEAAJPEB_W@Z 00000001800303d0     GlassAccessible.obj
 0002:000093d0       $unwind$?GetAttributeValue@GlassTextRangeProvider@@UEAAJHPEAUtagVARIANT@@@Z 00000001800303d0     GlassTextRangeProvider.obj
 0002:000093d0       $unwind$?CBTFilter@GlassWindow@@CA_JH_K_J@Z 00000001800303d0     GlassWindow.obj
 0002:000093d0       $unwind$?ConcatJStrings@@YAPEAV_jstring@@PEAUJNIEnv_@@PEAV1@1@Z 00000001800303d0     CommonDialogs_COM.obj
 0002:000093e4       $unwind$?snvTrace@@YAXPEB_WPEAD@Z 00000001800303e4     CommonDialogs_COM.obj
 0002:00009404       $stateUnwindMap$?snvTrace@@YAXPEB_WPEAD@Z 0000000180030404     CommonDialogs_COM.obj
 0002:00009430       $ip2state$?snvTrace@@YAXPEB_WPEAD@Z 0000000180030430     CommonDialogs_COM.obj
 0002:00009468       $unwind$?snTrace@@YAXPEB_WZZ 0000000180030468     CommonDialogs_COM.obj
 0002:00009470       $unwind$??1?$JLocalRef@PEAV_jbyteArray@@@@QEAA@XZ 0000000180030470     GlassClipboard.obj
 0002:00009470       $unwind$??1?$JLocalRef@PEAV_jclass@@@@QEAA@XZ 0000000180030470     CommonDialogs_COM.obj
 0002:00009470       $unwind$??1?$JLocalRef@PEAV_jobjectArray@@@@QEAA@XZ 0000000180030470     CommonDialogs_COM.obj
 0002:00009470       $unwind$??1?$JLocalRef@PEAV_jobject@@@@QEAA@XZ 0000000180030470     CommonDialogs_COM.obj
 0002:00009470       $unwind$??1?$JLocalRef@PEAV_jthrowable@@@@QEAA@XZ 0000000180030470     GlassClipboard.obj
 0002:00009470       $unwind$??1?$JLocalRef@PEAV_jstring@@@@QEAA@XZ 0000000180030470     CommonDialogs_COM.obj
 0002:00009480       $ip2state$??1?$JLocalRef@PEAV_jstring@@@@QEAA@XZ 0000000180030480     CommonDialogs_COM.obj
 0002:00009480       $ip2state$??1?$JLocalRef@PEAV_jthrowable@@@@QEAA@XZ 0000000180030480     GlassClipboard.obj
 0002:00009480       $ip2state$??1?$JLocalRef@PEAV_jclass@@@@QEAA@XZ 0000000180030480     CommonDialogs_COM.obj
 0002:00009480       $ip2state$??1?$JLocalRef@PEAV_jobjectArray@@@@QEAA@XZ 0000000180030480     CommonDialogs_COM.obj
 0002:00009480       $ip2state$??1?$JLocalRef@PEAV_jbyteArray@@@@QEAA@XZ 0000000180030480     GlassClipboard.obj
 0002:00009480       $ip2state$??1?$JLocalRef@PEAV_jobject@@@@QEAA@XZ 0000000180030480     CommonDialogs_COM.obj
 0002:00009488       $unwind$?COMFileChooser_Show@@YAPEAV_jobject@@PEAUHWND__@@PEB_W11JEPEAV_jobjectArray@@J@Z 0000000180030488     CommonDialogs_COM.obj
 0002:000094ac       $stateUnwindMap$?COMFileChooser_Show@@YAPEAV_jobject@@PEAUHWND__@@PEB_W11JEPEAV_jobjectArray@@J@Z 00000001800304ac     CommonDialogs_COM.obj
 0002:000094e4       $tryMap$?COMFileChooser_Show@@YAPEAV_jobject@@PEAUHWND__@@PEB_W11JEPEAV_jobjectArray@@J@Z 00000001800304e4     CommonDialogs_COM.obj
 0002:000094f8       $handlerMap$0$?COMFileChooser_Show@@YAPEAV_jobject@@PEAUHWND__@@PEB_W11JEPEAV_jobjectArray@@J@Z 00000001800304f8     CommonDialogs_COM.obj
 0002:00009510       $ip2state$?COMFileChooser_Show@@YAPEAV_jobject@@PEAUHWND__@@PEB_W11JEPEAV_jobjectArray@@J@Z 0000000180030510     CommonDialogs_COM.obj
 0002:00009580       $unwind$?catch$7@?0??COMFileChooser_Show@@YAPEAV_jobject@@PEAUHWND__@@PEB_W11JEPEAV_jobjectArray@@J@Z@4HA 0000000180030580     CommonDialogs_COM.obj
 0002:00009594       $unwind$?COMFolderChooser_Show@@YAPEAV_jstring@@PEAUHWND__@@PEB_W1@Z 0000000180030594     CommonDialogs_COM.obj
 0002:000095b0       $stateUnwindMap$?COMFolderChooser_Show@@YAPEAV_jstring@@PEAUHWND__@@PEB_W1@Z 00000001800305b0     CommonDialogs_COM.obj
 0002:000095d8       $tryMap$?COMFolderChooser_Show@@YAPEAV_jstring@@PEAUHWND__@@PEB_W1@Z 00000001800305d8     CommonDialogs_COM.obj
 0002:000095ec       $handlerMap$0$?COMFolderChooser_Show@@YAPEAV_jstring@@PEAUHWND__@@PEB_W1@Z 00000001800305ec     CommonDialogs_COM.obj
 0002:00009600       $ip2state$?COMFolderChooser_Show@@YAPEAV_jstring@@PEAUHWND__@@PEB_W1@Z 0000000180030600     CommonDialogs_COM.obj
 0002:00009658       $unwind$?catch$4@?0??COMFolderChooser_Show@@YAPEAV_jstring@@PEAUHWND__@@PEB_W1@Z@4HA 0000000180030658     CommonDialogs_COM.obj
 0002:0000966c       $unwind$?CreateJString@@YAPEAV_jstring@@PEAUJNIEnv_@@V?$_com_ptr_t@V?$_com_IIID@UIShellItem@@$1?_GUID_43826d1e_e718_42ee_bc55_a1e261c37bfe@@3U__s_GUID@@B@@@@@Z 000000018003066c     CommonDialogs_COM.obj
 0002:00009684       $stateUnwindMap$?CreateJString@@YAPEAV_jstring@@PEAUJNIEnv_@@V?$_com_ptr_t@V?$_com_IIID@UIShellItem@@$1?_GUID_43826d1e_e718_42ee_bc55_a1e261c37bfe@@3U__s_GUID@@B@@@@@Z 0000000180030684     CommonDialogs_COM.obj
 0002:0000969c       $tryMap$?CreateJString@@YAPEAV_jstring@@PEAUJNIEnv_@@V?$_com_ptr_t@V?$_com_IIID@UIShellItem@@$1?_GUID_43826d1e_e718_42ee_bc55_a1e261c37bfe@@3U__s_GUID@@B@@@@@Z 000000018003069c     CommonDialogs_COM.obj
 0002:000096b0       $handlerMap$0$?CreateJString@@YAPEAV_jstring@@PEAUJNIEnv_@@V?$_com_ptr_t@V?$_com_IIID@UIShellItem@@$1?_GUID_43826d1e_e718_42ee_bc55_a1e261c37bfe@@3U__s_GUID@@B@@@@@Z 00000001800306b0     CommonDialogs_COM.obj
 0002:000096c8       $ip2state$?CreateJString@@YAPEAV_jstring@@PEAUJNIEnv_@@V?$_com_ptr_t@V?$_com_IIID@UIShellItem@@$1?_GUID_43826d1e_e718_42ee_bc55_a1e261c37bfe@@3U__s_GUID@@B@@@@@Z 00000001800306c8     CommonDialogs_COM.obj
 0002:000096f8       $unwind$?catch$1@?0??CreateJString@@YAPEAV_jstring@@PEAUJNIEnv_@@V?$_com_ptr_t@V?$_com_IIID@UIShellItem@@$1?_GUID_43826d1e_e718_42ee_bc55_a1e261c37bfe@@3U__s_GUID@@B@@@@@Z@4HA 00000001800306f8     CommonDialogs_COM.obj
 0002:0000970c       $unwind$?GetExtensions@@YAPEA_WPEAUJNIEnv_@@PEAV_jobject@@@Z 000000018003070c     CommonDialogs_COM.obj
 0002:0000972c       $stateUnwindMap$?GetExtensions@@YAPEA_WPEAUJNIEnv_@@PEAV_jobject@@@Z 000000018003072c     CommonDialogs_COM.obj
 0002:00009770       $ip2state$?GetExtensions@@YAPEA_WPEAUJNIEnv_@@PEAV_jobject@@@Z 0000000180030770     CommonDialogs_COM.obj
 0002:000097c8       $unwind$?SetFilters@@YAXV?$_com_ptr_t@V?$_com_IIID@UIFileDialog@@$1?_GUID_42f85136_db7e_439c_85f1_e4075d135fc8@@3U__s_GUID@@B@@@@PEAV_jobjectArray@@J@Z 00000001800307c8     CommonDialogs_COM.obj
 0002:000097e8       $stateUnwindMap$?SetFilters@@YAXV?$_com_ptr_t@V?$_com_IIID@UIFileDialog@@$1?_GUID_42f85136_db7e_439c_85f1_e4075d135fc8@@3U__s_GUID@@B@@@@PEAV_jobjectArray@@J@Z 00000001800307e8     CommonDialogs_COM.obj
 0002:00009820       $tryMap$?SetFilters@@YAXV?$_com_ptr_t@V?$_com_IIID@UIFileDialog@@$1?_GUID_42f85136_db7e_439c_85f1_e4075d135fc8@@3U__s_GUID@@B@@@@PEAV_jobjectArray@@J@Z 0000000180030820     CommonDialogs_COM.obj
 0002:00009834       $handlerMap$0$?SetFilters@@YAXV?$_com_ptr_t@V?$_com_IIID@UIFileDialog@@$1?_GUID_42f85136_db7e_439c_85f1_e4075d135fc8@@3U__s_GUID@@B@@@@PEAV_jobjectArray@@J@Z 0000000180030834     CommonDialogs_COM.obj
 0002:00009850       $ip2state$?SetFilters@@YAXV?$_com_ptr_t@V?$_com_IIID@UIFileDialog@@$1?_GUID_42f85136_db7e_439c_85f1_e4075d135fc8@@3U__s_GUID@@B@@@@PEAV_jobjectArray@@J@Z 0000000180030850     CommonDialogs_COM.obj
 0002:000098b8       $unwind$?catch$6@?0??SetFilters@@YAXV?$_com_ptr_t@V?$_com_IIID@UIFileDialog@@$1?_GUID_42f85136_db7e_439c_85f1_e4075d135fc8@@3U__s_GUID@@B@@@@PEAV_jobjectArray@@J@Z@4HA 00000001800308b8     CommonDialogs_COM.obj
 0002:000098cc       $unwind$?GetFiles@@YAPEAV_jobjectArray@@V?$_com_ptr_t@V?$_com_IIID@UIFileDialog@@$1?_GUID_42f85136_db7e_439c_85f1_e4075d135fc8@@3U__s_GUID@@B@@@@HJ@Z 00000001800308cc     CommonDialogs_COM.obj
 0002:000098f0       $stateUnwindMap$?GetFiles@@YAPEAV_jobjectArray@@V?$_com_ptr_t@V?$_com_IIID@UIFileDialog@@$1?_GUID_42f85136_db7e_439c_85f1_e4075d135fc8@@3U__s_GUID@@B@@@@HJ@Z 00000001800308f0     CommonDialogs_COM.obj
 0002:00009980       $tryMap$?GetFiles@@YAPEAV_jobjectArray@@V?$_com_ptr_t@V?$_com_IIID@UIFileDialog@@$1?_GUID_42f85136_db7e_439c_85f1_e4075d135fc8@@3U__s_GUID@@B@@@@HJ@Z 0000000180030980     CommonDialogs_COM.obj
 0002:00009994       $handlerMap$0$?GetFiles@@YAPEAV_jobjectArray@@V?$_com_ptr_t@V?$_com_IIID@UIFileDialog@@$1?_GUID_42f85136_db7e_439c_85f1_e4075d135fc8@@3U__s_GUID@@B@@@@HJ@Z 0000000180030994     CommonDialogs_COM.obj
 0002:000099b0       $ip2state$?GetFiles@@YAPEAV_jobjectArray@@V?$_com_ptr_t@V?$_com_IIID@UIFileDialog@@$1?_GUID_42f85136_db7e_439c_85f1_e4075d135fc8@@3U__s_GUID@@B@@@@HJ@Z 00000001800309b0     CommonDialogs_COM.obj
 0002:00009b08       $unwind$?catch$19@?0??GetFiles@@YAPEAV_jobjectArray@@V?$_com_ptr_t@V?$_com_IIID@UIFileDialog@@$1?_GUID_42f85136_db7e_439c_85f1_e4075d135fc8@@3U__s_GUID@@B@@@@HJ@Z@4HA 0000000180030b08     CommonDialogs_COM.obj
 0002:00009b1c       $unwind$?GetFolder@@YAPEAV_jstring@@V?$_com_ptr_t@V?$_com_IIID@UIFileDialog@@$1?_GUID_42f85136_db7e_439c_85f1_e4075d135fc8@@3U__s_GUID@@B@@@@H@Z 0000000180030b1c     CommonDialogs_COM.obj
 0002:00009b30       $stateUnwindMap$?GetFolder@@YAPEAV_jstring@@V?$_com_ptr_t@V?$_com_IIID@UIFileDialog@@$1?_GUID_42f85136_db7e_439c_85f1_e4075d135fc8@@3U__s_GUID@@B@@@@H@Z 0000000180030b30     CommonDialogs_COM.obj
 0002:00009b50       $tryMap$?GetFolder@@YAPEAV_jstring@@V?$_com_ptr_t@V?$_com_IIID@UIFileDialog@@$1?_GUID_42f85136_db7e_439c_85f1_e4075d135fc8@@3U__s_GUID@@B@@@@H@Z 0000000180030b50     CommonDialogs_COM.obj
 0002:00009b64       $handlerMap$0$?GetFolder@@YAPEAV_jstring@@V?$_com_ptr_t@V?$_com_IIID@UIFileDialog@@$1?_GUID_42f85136_db7e_439c_85f1_e4075d135fc8@@3U__s_GUID@@B@@@@H@Z 0000000180030b64     CommonDialogs_COM.obj
 0002:00009b80       $ip2state$?GetFolder@@YAPEAV_jstring@@V?$_com_ptr_t@V?$_com_IIID@UIFileDialog@@$1?_GUID_42f85136_db7e_439c_85f1_e4075d135fc8@@3U__s_GUID@@B@@@@H@Z 0000000180030b80     CommonDialogs_COM.obj
 0002:00009bc8       $unwind$?catch$3@?0??GetFolder@@YAPEAV_jstring@@V?$_com_ptr_t@V?$_com_IIID@UIFileDialog@@$1?_GUID_42f85136_db7e_439c_85f1_e4075d135fc8@@3U__s_GUID@@B@@@@H@Z@4HA 0000000180030bc8     CommonDialogs_COM.obj
 0002:00009bdc       $chain$0$?calculateSubstrings@DNTString@@AEAAXXZ 0000000180030bdc     CommonDialogs_Standard.obj
 0002:00009bf0       $chain$1$?calculateSubstrings@DNTString@@AEAAXXZ 0000000180030bf0     CommonDialogs_Standard.obj
 0002:00009c00       $unwind$?StandardFileChooser_Show@@YAPEAV_jobject@@PEAUHWND__@@PEB_W11JEPEAV_jobjectArray@@J@Z 0000000180030c00     CommonDialogs_Standard.obj
 0002:00009c24       $stateUnwindMap$?StandardFileChooser_Show@@YAPEAV_jobject@@PEAUHWND__@@PEB_W11JEPEAV_jobjectArray@@J@Z 0000000180030c24     CommonDialogs_Standard.obj
 0002:00009c60       $ip2state$?StandardFileChooser_Show@@YAPEAV_jobject@@PEAUHWND__@@PEB_W11JEPEAV_jobjectArray@@J@Z 0000000180030c60     CommonDialogs_Standard.obj
 0002:00009cb0       $unwind$?StandardFolderChooser_Show@@YAPEAV_jstring@@PEAUHWND__@@PEB_W1@Z 0000000180030cb0     CommonDialogs_Standard.obj
 0002:00009cd4       $stateUnwindMap$?StandardFolderChooser_Show@@YAPEAV_jstring@@PEAUHWND__@@PEB_W1@Z 0000000180030cd4     CommonDialogs_Standard.obj
 0002:00009ce0       $ip2state$?StandardFolderChooser_Show@@YAPEAV_jstring@@PEAUHWND__@@PEB_W1@Z 0000000180030ce0     CommonDialogs_Standard.obj
 0002:00009cf0       $unwind$?ConvertFilter@@YAXPEAV_jobject@@AEAVDNTString@@@Z 0000000180030cf0     CommonDialogs_Standard.obj
 0002:00009d10       $stateUnwindMap$?ConvertFilter@@YAXPEAV_jobject@@AEAVDNTString@@@Z 0000000180030d10     CommonDialogs_Standard.obj
 0002:00009d20       $ip2state$?ConvertFilter@@YAXPEAV_jobject@@AEAVDNTString@@@Z 0000000180030d20     CommonDialogs_Standard.obj
 0002:00009d48       $unwind$?ConvertFiles@@YAPEAV_jobjectArray@@AEAVDNTString@@@Z 0000000180030d48     CommonDialogs_Standard.obj
 0002:00009d6c       $stateUnwindMap$?ConvertFiles@@YAPEAV_jobjectArray@@AEAVDNTString@@@Z 0000000180030d6c     CommonDialogs_Standard.obj
 0002:00009df0       $ip2state$?ConvertFiles@@YAPEAV_jobjectArray@@AEAVDNTString@@@Z 0000000180030df0     CommonDialogs_Standard.obj
 0002:00009e78       $chain$0$?DialogHook@@YA_KPEAUHWND__@@I_K_J@Z 0000000180030e78     CommonDialogs_Standard.obj
 0002:00009e8c       $chain$1$?DialogHook@@YA_KPEAUHWND__@@I_K_J@Z 0000000180030e8c     CommonDialogs_Standard.obj
 0002:00009e9c       $unwind$?CollectMonitorsCallback@@YAHPEAUHMONITOR__@@PEAUHDC__@@PEAUtagRECT@@_J@Z 0000000180030e9c     GlassScreen.obj
 0002:00009e9c       $unwind$Java_com_sun_glass_ui_win_WinApplication__1supportsUnifiedWindows 0000000180030e9c     GlassApplication.obj
 0002:00009e9c       $unwind$Java_com_sun_glass_ui_win_WinPixels__1initIDs 0000000180030e9c     Pixels.obj
 0002:00009e9c       $unwind$?deallocate@?$allocator@V?$_List_unchecked_iterator@V?$_List_val@U?$_List_simple_types@U?$pair@$$CBUtagFORMATETC@@V_bstr_t@@@std@@@std@@@std@@@std@@@std@@QEAAXQEAV?$_List_unchecked_iterator@V?$_List_val@U?$_List_simple_types@U?$pair@$$CBUtagFORMATETC@@V_bstr_t@@@std@@@std@@@std@@@2@_K@Z 0000000180030e9c     GlassClipboard.obj
 0002:00009e9c       $unwind$?_Xlength@?$vector@V?$_List_unchecked_iterator@V?$_List_val@U?$_List_simple_types@U?$pair@$$CBV_bstr_t@@G@std@@@std@@@std@@@std@@V?$allocator@V?$_List_unchecked_iterator@V?$_List_val@U?$_List_simple_types@U?$pair@$$CBV_bstr_t@@G@std@@@std@@@std@@@std@@@2@@std@@CAXXZ 0000000180030e9c     GlassClipboard.obj
 0002:00009e9c       $unwind$??1Timer@@UEAA@XZ  0000000180030e9c     Timer.obj
 0002:00009e9c       $unwind$?InitTC@Timer@@CA_NXZ 0000000180030e9c     Timer.obj
 0002:00009e9c       $unwind$?allocate@?$allocator@V?$_List_unchecked_iterator@V?$_List_val@U?$_List_simple_types@U?$pair@$$CBUtagFORMATETC@@V_bstr_t@@@std@@@std@@@std@@@std@@@std@@QEAAPEAV?$_List_unchecked_iterator@V?$_List_val@U?$_List_simple_types@U?$pair@$$CBUtagFORMATETC@@V_bstr_t@@@std@@@std@@@std@@@2@_K@Z 0000000180030e9c     GlassClipboard.obj
 0002:00009e9c       $unwind$?_Xlength@?$vector@V?$_List_unchecked_iterator@V?$_List_val@U?$_List_simple_types@U?$pair@$$CBUtagFORMATETC@@UtagSTGMEDIUM@@@std@@@std@@@std@@@std@@V?$allocator@V?$_List_unchecked_iterator@V?$_List_val@U?$_List_simple_types@U?$pair@$$CBUtagFORMATETC@@UtagSTGMEDIUM@@@std@@@std@@@std@@@std@@@2@@std@@CAXXZ 0000000180030e9c     GlassClipboard.obj
 0002:00009e9c       $unwind$Java_com_sun_glass_ui_win_WinTimer__1getMinPeriod 0000000180030e9c     Timer.obj
 0002:00009e9c       $unwind$atexit             0000000180030e9c     MSVCRT:utility.obj
 0002:00009e9c       $unwind$__scrt_acquire_startup_lock 0000000180030e9c     MSVCRT:utility.obj
 0002:00009e9c       $unwind$?ManipulationCompleted@ManipulationEventSinkWithInertia@@UEAAJMMMMMMM@Z 0000000180030e9c     ManipulationEvents.obj
 0002:00009e9c       $unwind$?DloadReleaseSectionWriteAccess@@YAXXZ 0000000180030e9c     delayimp:delayhlp.obj
 0002:00009e9c       $unwind$Java_com_sun_glass_ui_win_WinAccessible_UiaClientsAreListening 0000000180030e9c     GlassAccessible.obj
 0002:00009e9c       $unwind$?deallocate@?$allocator@V?$_List_unchecked_const_iterator@V?$_List_val@U?$_List_simple_types@V_bstr_t@@@std@@@std@@U_Iterator_base0@2@@std@@@std@@QEAAXQEAV?$_List_unchecked_const_iterator@V?$_List_val@U?$_List_simple_types@V_bstr_t@@@std@@@std@@U_Iterator_base0@2@@2@_K@Z 0000000180030e9c     GlassClipboard.obj
 0002:00009e9c       $unwind$?ResetGrab@GlassWindow@@SAXXZ 0000000180030e9c     GlassWindow.obj
 0002:00009e9c       $unwind$??R?$hash_compare@UtagFORMATETC@@U?$less@UtagFORMATETC@@@std@@@stdext@@QEBA_KAEBUtagFORMATETC@@@Z 0000000180030e9c     GlassClipboard.obj
 0002:00009e9c       $unwind$__scrt_initialize_default_local_stdio_options 0000000180030e9c     MSVCRT:default_local_stdio_options.obj
 0002:00009e9c       $unwind$??__Fmime2oscf@@YAXXZ 0000000180030e9c     GlassClipboard.obj
 0002:00009e9c       $unwind$?deallocate@?$allocator@U?$_List_node@U?$pair@$$CBGV_bstr_t@@@std@@PEAX@std@@@std@@QEAAXQEAU?$_List_node@U?$pair@$$CBGV_bstr_t@@@std@@PEAX@2@_K@Z 0000000180030e9c     GlassClipboard.obj
 0002:00009e9c       $unwind$??__Foscf2mime@@YAXXZ 0000000180030e9c     GlassClipboard.obj
 0002:00009e9c       $unwind$Java_com_sun_glass_ui_win_WinTimer__1getMaxPeriod 0000000180030e9c     Timer.obj
 0002:00009e9c       $unwind$?allocate@?$allocator@V?$_List_unchecked_const_iterator@V?$_List_val@U?$_List_simple_types@V_bstr_t@@@std@@@std@@U_Iterator_base0@2@@std@@@std@@QEAAPEAV?$_List_unchecked_const_iterator@V?$_List_val@U?$_List_simple_types@V_bstr_t@@@std@@@std@@U_Iterator_base0@2@@2@_K@Z 0000000180030e9c     GlassClipboard.obj
 0002:00009e9c       $unwind$?QueryInterface@?$IUnknownImpl@UIEnumFORMATETC@@@@UEAAJAEBU_GUID@@PEAPEAX@Z 0000000180030e9c     GlassClipboard.obj
 0002:00009e9c       $unwind$?QueryInterface@?$IUnknownImpl@UIDataObject@@@@UEAAJAEBU_GUID@@PEAPEAX@Z 0000000180030e9c     GlassClipboard.obj
 0002:00009e9c       $unwind$?allocate@?$allocator@V?$_List_unchecked_iterator@V?$_List_val@U?$_List_simple_types@U?$pair@$$CBV_bstr_t@@G@std@@@std@@@std@@@std@@@std@@QEAAPEAV?$_List_unchecked_iterator@V?$_List_val@U?$_List_simple_types@U?$pair@$$CBV_bstr_t@@G@std@@@std@@@std@@@2@_K@Z 0000000180030e9c     GlassClipboard.obj
 0002:00009e9c       $unwind$Java_com_sun_glass_ui_win_WinView__1getMultiClickTime_1impl 0000000180030e9c     GlassView.obj
 0002:00009e9c       $unwind$?ManipulationStarted@ManipulationEventSinkWithInertia@@UEAAJMM@Z 0000000180030e9c     ManipulationEvents.obj
 0002:00009e9c       $unwind$?GetEnv@@YAPEAUJNIEnv_@@XZ 0000000180030e9c     Utils.obj
 0002:00009e9c       $unwind$?deallocate@?$allocator@U?$_List_node@U?$pair@$$CBUtagFORMATETC@@V_bstr_t@@@std@@PEAX@std@@@std@@QEAAXQEAU?$_List_node@U?$pair@$$CBUtagFORMATETC@@V_bstr_t@@@std@@PEAX@2@_K@Z 0000000180030e9c     GlassClipboard.obj
 0002:00009e9c       $unwind$?deallocate@?$allocator@U?$_List_node@U?$pair@$$CBUtagFORMATETC@@UtagSTGMEDIUM@@@std@@PEAX@std@@@std@@QEAAXQEAU?$_List_node@U?$pair@$$CBUtagFORMATETC@@UtagSTGMEDIUM@@@std@@PEAX@2@_K@Z 0000000180030e9c     GlassClipboard.obj
 0002:00009e9c       $unwind$Java_com_sun_glass_ui_win_WinApplication__1setClassLoader 0000000180030e9c     GlassApplication.obj
 0002:00009e9c       $unwind$?deallocate@?$allocator@V?$_List_unchecked_iterator@V?$_List_val@U?$_List_simple_types@U?$pair@$$CBV_bstr_t@@G@std@@@std@@@std@@@std@@@std@@QEAAXQEAV?$_List_unchecked_iterator@V?$_List_val@U?$_List_simple_types@U?$pair@$$CBV_bstr_t@@G@std@@@std@@@std@@@2@_K@Z 0000000180030e9c     GlassClipboard.obj
 0002:00009e9c       $unwind$?QueryInterface@?$IUnknownImpl@U_IManipulationEvents@@@@UEAAJAEBU_GUID@@PEAPEAX@Z 0000000180030e9c     ManipulationEvents.obj
 0002:00009e9c       $unwind$?dllmain_crt_dispatch@@YAHQEAUHINSTANCE__@@KQEAX@Z 0000000180030e9c     MSVCRT:dll_dllmain.obj
 0002:00009e9c       $unwind$__GSHandlerCheck   0000000180030e9c     MSVCRT:gshandler.obj
 0002:00009e9c       $unwind$?deallocate@?$allocator@V?$_List_unchecked_iterator@V?$_List_val@U?$_List_simple_types@U?$pair@$$CBGV_bstr_t@@@std@@@std@@@std@@@std@@@std@@QEAAXQEAV?$_List_unchecked_iterator@V?$_List_val@U?$_List_simple_types@U?$pair@$$CBGV_bstr_t@@@std@@@std@@@std@@@2@_K@Z 0000000180030e9c     GlassClipboard.obj
 0002:00009e9c       $unwind$?_Xlength@?$vector@UtagTOUCHINPUT@@V?$allocator@UtagTOUCHINPUT@@@std@@@std@@CAXXZ 0000000180030e9c     ViewContainer.obj
 0002:00009e9c       $unwind$?allocate@?$allocator@V?$_List_unchecked_iterator@V?$_List_val@U?$_List_simple_types@U?$pair@$$CBGV_bstr_t@@@std@@@std@@@std@@@std@@@std@@QEAAPEAV?$_List_unchecked_iterator@V?$_List_val@U?$_List_simple_types@U?$pair@$$CBGV_bstr_t@@@std@@@std@@@std@@@2@_K@Z 0000000180030e9c     GlassClipboard.obj
 0002:00009e9c       $unwind$__scrt_dllmain_before_initialize_c 0000000180030e9c     MSVCRT:utility.obj
 0002:00009e9c       $unwind$?_Xlength@?$vector@V?$_List_unchecked_iterator@V?$_List_val@U?$_List_simple_types@U?$pair@$$CBGV_bstr_t@@@std@@@std@@@std@@@std@@V?$allocator@V?$_List_unchecked_iterator@V?$_List_val@U?$_List_simple_types@U?$pair@$$CBGV_bstr_t@@@std@@@std@@@std@@@std@@@2@@std@@CAXXZ 0000000180030e9c     GlassClipboard.obj
 0002:00009e9c       $unwind$?deallocate@?$allocator@V?$_List_unchecked_iterator@V?$_List_val@U?$_List_simple_types@U?$pair@$$CBUtagFORMATETC@@UtagSTGMEDIUM@@@std@@@std@@@std@@@std@@@std@@QEAAXQEAV?$_List_unchecked_iterator@V?$_List_val@U?$_List_simple_types@U?$pair@$$CBUtagFORMATETC@@UtagSTGMEDIUM@@@std@@@std@@@std@@@2@_K@Z 0000000180030e9c     GlassClipboard.obj
 0002:00009e9c       $unwind$?deallocate@?$allocator@U?$_List_node@V_bstr_t@@PEAX@std@@@std@@QEAAXQEAU?$_List_node@V_bstr_t@@PEAX@2@_K@Z 0000000180030e9c     GlassClipboard.obj
 0002:00009e9c       $unwind$??R?$hash_compare@V_bstr_t@@U?$less@V_bstr_t@@@std@@@stdext@@QEBA_KAEBV_bstr_t@@@Z 0000000180030e9c     GlassClipboard.obj
 0002:00009e9c       $unwind$?__scrt_uninitialize_thread_safe_statics@@YAXXZ 0000000180030e9c     MSVCRT:thread_safe_statics.obj
 0002:00009e9c       $unwind$?_Xlength@?$vector@V?$_List_unchecked_const_iterator@V?$_List_val@U?$_List_simple_types@V_bstr_t@@@std@@@std@@U_Iterator_base0@2@@std@@V?$allocator@V?$_List_unchecked_const_iterator@V?$_List_val@U?$_List_simple_types@V_bstr_t@@@std@@@std@@U_Iterator_base0@2@@std@@@2@@std@@CAXXZ 0000000180030e9c     GlassClipboard.obj
 0002:00009e9c       $unwind$_Init_thread_notify 0000000180030e9c     MSVCRT:thread_safe_statics.obj
 0002:00009e9c       $unwind$?FolderChooserCallbackProc@@YAHPEAUHWND__@@I_J1@Z 0000000180030e9c     CommonDialogs_Standard.obj
 0002:00009e9c       $unwind$?_Xlength@?$vector@V?$_List_unchecked_iterator@V?$_List_val@U?$_List_simple_types@U?$pair@$$CBUtagFORMATETC@@V_bstr_t@@@std@@@std@@@std@@@std@@V?$allocator@V?$_List_unchecked_iterator@V?$_List_val@U?$_List_simple_types@U?$pair@$$CBUtagFORMATETC@@V_bstr_t@@@std@@@std@@@std@@@std@@@2@@std@@CAXXZ 0000000180030e9c     GlassClipboard.obj
 0002:00009e9c       $unwind$?QueryInterface@?$IUnknownImpl@UIDropTarget@@@@UEAAJAEBU_GUID@@PEAPEAX@Z 0000000180030e9c     GlassDnD.obj
 0002:00009e9c       $unwind$__scrt_dllmain_after_initialize_c 0000000180030e9c     MSVCRT:utility.obj
 0002:00009e9c       $unwind$Java_com_sun_glass_ui_win_WinAccessible_UiaRaiseAutomationEvent 0000000180030e9c     GlassAccessible.obj
 0002:00009e9c       $unwind$?allocate@?$allocator@V?$_List_unchecked_iterator@V?$_List_val@U?$_List_simple_types@U?$pair@$$CBUtagFORMATETC@@UtagSTGMEDIUM@@@std@@@std@@@std@@@std@@@std@@QEAAPEAV?$_List_unchecked_iterator@V?$_List_val@U?$_List_simple_types@U?$pair@$$CBUtagFORMATETC@@UtagSTGMEDIUM@@@std@@@std@@@std@@@2@_K@Z 0000000180030e9c     GlassClipboard.obj
 0002:00009e9c       $unwind$??__E_init_mime_stuff@@YAXXZ 0000000180030e9c     GlassClipboard.obj
 0002:00009e9c       $unwind$?Do@_MyAction@?1??Java_com_sun_glass_ui_win_WinWindow__1ungrabFocus@@YAXPEAUJNIEnv_@@PEAV_jobject@@_J@Z@UEAAXXZ 0000000180030e9c     GlassWindow.obj
 0002:00009e9c       $unwind$?deallocate@?$allocator@UtagTOUCHINPUT@@@std@@QEAAXQEAUtagTOUCHINPUT@@_K@Z 0000000180030e9c     FullScreenWindow.obj
 0002:00009e9c       $unwind$__scrt_dllmain_crt_thread_detach 0000000180030e9c     MSVCRT:utility.obj
 0002:00009e9c       $unwind$?InstallMouseLLHook@GlassApplication@@SAXXZ 0000000180030e9c     GlassApplication.obj
 0002:00009e9c       $unwind$__scrt_dllmain_crt_thread_attach 0000000180030e9c     MSVCRT:utility.obj
 0002:00009e9c       $unwind$?QueryInterface@GlassTextRangeProvider@@UEAAJAEBU_GUID@@PEAPEAX@Z 0000000180030e9c     GlassTextRangeProvider.obj
 0002:00009e9c       $unwind$__scrt_dllmain_uninitialize_critical 0000000180030e9c     MSVCRT:utility.obj
 0002:00009e9c       $unwind$?QueryInterface@GlassAccessible@@UEAAJAEBU_GUID@@PEAPEAX@Z 0000000180030e9c     GlassAccessible.obj
 0002:00009e9c       $unwind$__scrt_dllmain_uninitialize_c 0000000180030e9c     MSVCRT:utility.obj
 0002:00009e9c       $unwind$?QueryInterface@?$IUnknownImpl@UIDropSource@@@@UEAAJAEBU_GUID@@PEAPEAX@Z 0000000180030e9c     GlassDnD.obj
 0002:00009e9c       $unwind$?deallocate@?$allocator@U?$_List_node@U?$pair@$$CBV_bstr_t@@G@std@@PEAX@std@@@std@@QEAAXQEAU?$_List_node@U?$pair@$$CBV_bstr_t@@G@std@@PEAX@2@_K@Z 0000000180030e9c     GlassClipboard.obj
 0002:00009ea4       $unwind$??0FullScreenWindow@@QEAA@XZ 0000000180030ea4     FullScreenWindow.obj
 0002:00009eb8       $stateUnwindMap$??0FullScreenWindow@@QEAA@XZ 0000000180030eb8     FullScreenWindow.obj
 0002:00009ec0       $ip2state$??0FullScreenWindow@@QEAA@XZ 0000000180030ec0     FullScreenWindow.obj
 0002:00009ed0       $unwind$?Create@FullScreenWindow@@QEAAPEAUHWND__@@XZ 0000000180030ed0     FullScreenWindow.obj
 0002:00009eec       $stateUnwindMap$?Create@FullScreenWindow@@QEAAPEAUHWND__@@XZ 0000000180030eec     FullScreenWindow.obj
